TI ARM Assembler PC v18.1.1 Wed Apr 25 09:49:08 2018

Tools Copyright (c) 1996-2017 Texas Instruments Incorporated
C:\Users\devops\AppData\Local\Temp\2\{0B978F18-9563-4BBD-B32F-32B01450AE46} PAGE    1

       1                    ;******************************************************************************
       2                    ;* TI ARM C/C++ Codegen                                        PC v18.1.1.LTS *
       3                    ;* Date/Time created: Wed Apr 25 09:49:08 2018                                *
       4                    ;******************************************************************************
       5                            .compiler_opts --abi=eabi --arm_vmrs_si_workaround=off --code_state=16 --diag_wrap=off --embed
       6 00000000                   .thumb
       7                    
       8                    $C$DW$CU        .dwtag  DW_TAG_compile_unit
       9                            .dwattr $C$DW$CU, DW_AT_name("../Application/LaunchPad/board_led.c")
      10                            .dwattr $C$DW$CU, DW_AT_producer("TI TI ARM C/C++ Codegen PC v18.1.1.LTS Copyright (c) 1996-20
      11                            .dwattr $C$DW$CU, DW_AT_TI_version(0x01)
      12                            .dwattr $C$DW$CU, DW_AT_comp_dir("C:\ti\workspace1\sensor_cc1350lp\sensor_cc1350lp")
      13                    
      14                    $C$DW$1 .dwtag  DW_TAG_subprogram
      15                            .dwattr $C$DW$1, DW_AT_name("board_led_blinkLed")
      16                            .dwattr $C$DW$1, DW_AT_TI_symbol_name("board_led_blinkLed")
      17                            .dwattr $C$DW$1, DW_AT_declaration
      18                            .dwattr $C$DW$1, DW_AT_external
      19                            .dwattr $C$DW$1, DW_AT_decl_file("../Application/LaunchPad/board_led.c")
      20                            .dwattr $C$DW$1, DW_AT_decl_line(0x11c)
      21                            .dwattr $C$DW$1, DW_AT_decl_column(0x0d)
      22                            .dwendtag $C$DW$1
      23                    
      24                    
      25                    $C$DW$2 .dwtag  DW_TAG_subprogram
      26                            .dwattr $C$DW$2, DW_AT_name("PIN_open")
      27                            .dwattr $C$DW$2, DW_AT_TI_symbol_name("PIN_open")
      28                            .dwattr $C$DW$2, DW_AT_type(*$C$DW$T$231)
      29                            .dwattr $C$DW$2, DW_AT_declaration
      30                            .dwattr $C$DW$2, DW_AT_external
      31                            .dwattr $C$DW$2, DW_AT_decl_file("C:/ti/simplelink_cc13x0_sdk_2_10_00_36/source/ti/drivers/PIN
      32                            .dwattr $C$DW$2, DW_AT_decl_line(0x2f5)
      33                            .dwattr $C$DW$2, DW_AT_decl_column(0x13)
      34                    $C$DW$3 .dwtag  DW_TAG_formal_parameter
      35                            .dwattr $C$DW$3, DW_AT_type(*$C$DW$T$230)
      36                    
      37                    $C$DW$4 .dwtag  DW_TAG_formal_parameter
      38                            .dwattr $C$DW$4, DW_AT_type(*$C$DW$T$786)
      39                    
      40                            .dwendtag $C$DW$2
      41                    
      42                    
      43                    $C$DW$5 .dwtag  DW_TAG_subprogram
      44                            .dwattr $C$DW$5, DW_AT_name("PIN_setOutputValue")
      45                            .dwattr $C$DW$5, DW_AT_TI_symbol_name("PIN_setOutputValue")
      46                            .dwattr $C$DW$5, DW_AT_type(*$C$DW$T$693)
      47                            .dwattr $C$DW$5, DW_AT_declaration
      48                            .dwattr $C$DW$5, DW_AT_external
      49                            .dwattr $C$DW$5, DW_AT_decl_file("C:/ti/simplelink_cc13x0_sdk_2_10_00_36/source/ti/drivers/PIN
      50                            .dwattr $C$DW$5, DW_AT_decl_line(0x367)
      51                            .dwattr $C$DW$5, DW_AT_decl_column(0x13)
      52                    $C$DW$6 .dwtag  DW_TAG_formal_parameter
      53                            .dwattr $C$DW$6, DW_AT_type(*$C$DW$T$231)
      54                    
      55                    $C$DW$7 .dwtag  DW_TAG_formal_parameter
TI ARM Assembler PC v18.1.1 Wed Apr 25 09:49:08 2018

Tools Copyright (c) 1996-2017 Texas Instruments Incorporated
C:\Users\devops\AppData\Local\Temp\2\{0B978F18-9563-4BBD-B32F-32B01450AE46} PAGE    2

      56                            .dwattr $C$DW$7, DW_AT_type(*$C$DW$T$232)
      57                    
      58                    $C$DW$8 .dwtag  DW_TAG_formal_parameter
      59                            .dwattr $C$DW$8, DW_AT_type(*$C$DW$T$146)
      60                    
      61                            .dwendtag $C$DW$5
      62                    
      63                    
      64                    $C$DW$9 .dwtag  DW_TAG_subprogram
      65                            .dwattr $C$DW$9, DW_AT_name("Timer_construct")
      66                            .dwattr $C$DW$9, DW_AT_TI_symbol_name("Timer_construct")
      67                            .dwattr $C$DW$9, DW_AT_type(*$C$DW$T$1423)
      68                            .dwattr $C$DW$9, DW_AT_declaration
      69                            .dwattr $C$DW$9, DW_AT_external
      70                            .dwattr $C$DW$9, DW_AT_decl_file("C:/ti/workspace1/sensor_cc1350lp/Application/timer.h")
      71                            .dwattr $C$DW$9, DW_AT_decl_line(0x5d)
      72                            .dwattr $C$DW$9, DW_AT_decl_column(0x15)
      73                    $C$DW$10        .dwtag  DW_TAG_formal_parameter
      74                            .dwattr $C$DW$10, DW_AT_type(*$C$DW$T$875)
      75                    
      76                    $C$DW$11        .dwtag  DW_TAG_formal_parameter
      77                            .dwattr $C$DW$11, DW_AT_type(*$C$DW$T$486)
      78                    
      79                    $C$DW$12        .dwtag  DW_TAG_formal_parameter
      80                            .dwattr $C$DW$12, DW_AT_type(*$C$DW$T$146)
      81                    
      82                    $C$DW$13        .dwtag  DW_TAG_formal_parameter
      83                            .dwattr $C$DW$13, DW_AT_type(*$C$DW$T$146)
      84                    
      85                    $C$DW$14        .dwtag  DW_TAG_formal_parameter
      86                            .dwattr $C$DW$14, DW_AT_type(*$C$DW$T$148)
      87                    
      88                    $C$DW$15        .dwtag  DW_TAG_formal_parameter
      89                            .dwattr $C$DW$15, DW_AT_type(*$C$DW$T$881)
      90                    
      91                            .dwendtag $C$DW$9
      92                    
      93                    
      94                    $C$DW$16        .dwtag  DW_TAG_subprogram
      95                            .dwattr $C$DW$16, DW_AT_name("HwiP_disable")
      96                            .dwattr $C$DW$16, DW_AT_TI_symbol_name("HwiP_disable")
      97                            .dwattr $C$DW$16, DW_AT_type(*$C$DW$T$223)
      98                            .dwattr $C$DW$16, DW_AT_declaration
      99                            .dwattr $C$DW$16, DW_AT_external
     100                            .dwattr $C$DW$16, DW_AT_decl_file("C:/ti/simplelink_cc13x0_sdk_2_10_00_36/source/ti/drivers/dp
     101                            .dwattr $C$DW$16, DW_AT_decl_line(0xd1)
     102                            .dwattr $C$DW$16, DW_AT_decl_column(0x12)
     103                            .dwendtag $C$DW$16
     104                    
     105                    
     106                    $C$DW$17        .dwtag  DW_TAG_subprogram
     107                            .dwattr $C$DW$17, DW_AT_name("HwiP_restore")
     108                            .dwattr $C$DW$17, DW_AT_TI_symbol_name("HwiP_restore")
     109                            .dwattr $C$DW$17, DW_AT_declaration
     110                            .dwattr $C$DW$17, DW_AT_external
TI ARM Assembler PC v18.1.1 Wed Apr 25 09:49:08 2018

Tools Copyright (c) 1996-2017 Texas Instruments Incorporated
C:\Users\devops\AppData\Local\Temp\2\{0B978F18-9563-4BBD-B32F-32B01450AE46} PAGE    3

     111                            .dwattr $C$DW$17, DW_AT_decl_file("C:/ti/simplelink_cc13x0_sdk_2_10_00_36/source/ti/drivers/dp
     112                            .dwattr $C$DW$17, DW_AT_decl_line(0x10f)
     113                            .dwattr $C$DW$17, DW_AT_decl_column(0x0d)
     114                    $C$DW$18        .dwtag  DW_TAG_formal_parameter
     115                            .dwattr $C$DW$18, DW_AT_type(*$C$DW$T$223)
     116                    
     117                            .dwendtag $C$DW$17
     118                    
     119                    
     120                    $C$DW$19        .dwtag  DW_TAG_subprogram
     121                            .dwattr $C$DW$19, DW_AT_name("Timer_isActive")
     122                            .dwattr $C$DW$19, DW_AT_TI_symbol_name("Timer_isActive")
     123                            .dwattr $C$DW$19, DW_AT_type(*$C$DW$T$224)
     124                            .dwattr $C$DW$19, DW_AT_declaration
     125                            .dwattr $C$DW$19, DW_AT_external
     126                            .dwattr $C$DW$19, DW_AT_decl_file("C:/ti/workspace1/sensor_cc1350lp/Application/timer.h")
     127                            .dwattr $C$DW$19, DW_AT_decl_line(0x72)
     128                            .dwattr $C$DW$19, DW_AT_decl_column(0x0d)
     129                    $C$DW$20        .dwtag  DW_TAG_formal_parameter
     130                            .dwattr $C$DW$20, DW_AT_type(*$C$DW$T$875)
     131                    
     132                            .dwendtag $C$DW$19
     133                    
     134                    
     135                    $C$DW$21        .dwtag  DW_TAG_subprogram
     136                            .dwattr $C$DW$21, DW_AT_name("Timer_start")
     137                            .dwattr $C$DW$21, DW_AT_TI_symbol_name("Timer_start")
     138                            .dwattr $C$DW$21, DW_AT_declaration
     139                            .dwattr $C$DW$21, DW_AT_external
     140                            .dwattr $C$DW$21, DW_AT_decl_file("C:/ti/workspace1/sensor_cc1350lp/Application/timer.h")
     141                            .dwattr $C$DW$21, DW_AT_decl_line(0x69)
     142                            .dwattr $C$DW$21, DW_AT_decl_column(0x0d)
     143                    $C$DW$22        .dwtag  DW_TAG_formal_parameter
     144                            .dwattr $C$DW$22, DW_AT_type(*$C$DW$T$875)
     145                    
     146                            .dwendtag $C$DW$21
     147                    
     148                    
     149                    $C$DW$23        .dwtag  DW_TAG_subprogram
     150                            .dwattr $C$DW$23, DW_AT_name("Timer_stop")
     151                            .dwattr $C$DW$23, DW_AT_TI_symbol_name("Timer_stop")
     152                            .dwattr $C$DW$23, DW_AT_declaration
     153                            .dwattr $C$DW$23, DW_AT_external
     154                            .dwattr $C$DW$23, DW_AT_decl_file("C:/ti/workspace1/sensor_cc1350lp/Application/timer.h")
     155                            .dwattr $C$DW$23, DW_AT_decl_line(0x79)
     156                            .dwattr $C$DW$23, DW_AT_decl_column(0x0d)
     157                    $C$DW$24        .dwtag  DW_TAG_formal_parameter
     158                            .dwattr $C$DW$24, DW_AT_type(*$C$DW$T$875)
     159                    
     160                            .dwendtag $C$DW$23
     161                    
     162 00000000                   .sect   ".data:$O1$$", RW
     163                            .clink
     164                            .align  4
     165                            .elfsym ||$O1$$||,SYM_SIZE(68)
TI ARM Assembler PC v18.1.1 Wed Apr 25 09:49:08 2018

Tools Copyright (c) 1996-2017 Texas Instruments Incorporated
C:\Users\devops\AppData\Local\Temp\2\{0B978F18-9563-4BBD-B32F-32B01450AE46} PAGE    4

     166 00000000           ||$O1$$||:
     167 00000000                   .space  8
     168 00000008 80800806          .bits   -2139092986,32                  ; $O1$$.ledPinTable[0] @ 64
     169 0000000c 80800807          .bits   -2139092985,32                  ; $O1$$.ledPinTable[1] @ 96
     170 00000010 000000FE          .bits   254,32                  ; $O1$$.ledPinTable[2] @ 128
     171 00000014                   .space  48
     172                    
     173                    
     174                    ;*********************************************************************
     175                    ;* GROUPED GLOBALS FOR $O1$$                                         *
     176                    ;*********************************************************************
     177          00000000! ledStatus:      .set    ||$O1$$||+0
     178                    $C$DW$25        .dwtag  DW_TAG_variable
     179                            .dwattr $C$DW$25, DW_AT_name("ledStatus")
     180                            .dwattr $C$DW$25, DW_AT_TI_symbol_name("ledStatus")
     181                            .dwattr $C$DW$25, DW_AT_type(*$C$DW$T$741)
     182                            .dwattr $C$DW$25, DW_AT_location[DW_OP_addr ledStatus]
     183                            .dwattr $C$DW$25, DW_AT_decl_file("../Application/LaunchPad/board_led.c")
     184                            .dwattr $C$DW$25, DW_AT_decl_line(0x5c)
     185                            .dwattr $C$DW$25, DW_AT_decl_column(0x1b)
     186                    
     187          00000004! ledPinHandle:   .set    ||$O1$$||+4
     188                    $C$DW$26        .dwtag  DW_TAG_variable
     189                            .dwattr $C$DW$26, DW_AT_name("ledPinHandle")
     190                            .dwattr $C$DW$26, DW_AT_TI_symbol_name("ledPinHandle")
     191                            .dwattr $C$DW$26, DW_AT_type(*$C$DW$T$231)
     192                            .dwattr $C$DW$26, DW_AT_location[DW_OP_addr ledPinHandle]
     193                            .dwattr $C$DW$26, DW_AT_decl_file("../Application/LaunchPad/board_led.c")
     194                            .dwattr $C$DW$26, DW_AT_decl_line(0x6d)
     195                            .dwattr $C$DW$26, DW_AT_decl_column(0x13)
     196                    
     197          00000008! ledPinTable:    .set    ||$O1$$||+8
     198                    $C$DW$27        .dwtag  DW_TAG_variable
     199                            .dwattr $C$DW$27, DW_AT_name("ledPinTable")
     200                            .dwattr $C$DW$27, DW_AT_TI_symbol_name("ledPinTable")
     201                            .dwattr $C$DW$27, DW_AT_type(*$C$DW$T$1181)
     202                            .dwattr $C$DW$27, DW_AT_location[DW_OP_addr ledPinTable]
     203                            .dwattr $C$DW$27, DW_AT_decl_file("../Application/LaunchPad/board_led.c")
     204                            .dwattr $C$DW$27, DW_AT_decl_line(0x5e)
     205                            .dwattr $C$DW$27, DW_AT_decl_column(0x13)
     206                    
     207          00000014! ledPinState:    .set    ||$O1$$||+20
     208                    $C$DW$28        .dwtag  DW_TAG_variable
     209                            .dwattr $C$DW$28, DW_AT_name("ledPinState")
     210                            .dwattr $C$DW$28, DW_AT_TI_symbol_name("ledPinState")
     211                            .dwattr $C$DW$28, DW_AT_type(*$C$DW$T$229)
     212                            .dwattr $C$DW$28, DW_AT_location[DW_OP_addr ledPinState]
     213                            .dwattr $C$DW$28, DW_AT_decl_file("../Application/LaunchPad/board_led.c")
     214                            .dwattr $C$DW$28, DW_AT_decl_line(0x6a)
     215                            .dwattr $C$DW$28, DW_AT_decl_column(0x12)
     216                    
     217          00000020! blinkClkStruct: .set    ||$O1$$||+32
     218                    $C$DW$29        .dwtag  DW_TAG_variable
     219                            .dwattr $C$DW$29, DW_AT_name("blinkClkStruct")
     220                            .dwattr $C$DW$29, DW_AT_TI_symbol_name("blinkClkStruct")
TI ARM Assembler PC v18.1.1 Wed Apr 25 09:49:08 2018

Tools Copyright (c) 1996-2017 Texas Instruments Incorporated
C:\Users\devops\AppData\Local\Temp\2\{0B978F18-9563-4BBD-B32F-32B01450AE46} PAGE    5

     221                            .dwattr $C$DW$29, DW_AT_type(*$C$DW$T$874)
     222                            .dwattr $C$DW$29, DW_AT_location[DW_OP_addr blinkClkStruct]
     223                            .dwattr $C$DW$29, DW_AT_decl_file("../Application/LaunchPad/board_led.c")
     224                            .dwattr $C$DW$29, DW_AT_decl_line(0x5a)
     225                            .dwattr $C$DW$29, DW_AT_decl_column(0x15)
     226                    
     227                    ;       C:\ti\ccsv8\tools\compiler\ti-cgt-arm_18.1.1.LTS\bin\armopt.exe C:/ti/workspace1/sensor_cc1350
     228 00000000                   .sect   ".text:board_led_convertLedType"
     229                            .clink
     230                            .thumbfunc board_led_convertLedType
     231 00000000                   .thumb
     232                    
     233                    $C$DW$30        .dwtag  DW_TAG_subprogram
     234                            .dwattr $C$DW$30, DW_AT_name("board_led_convertLedType")
     235                            .dwattr $C$DW$30, DW_AT_low_pc(board_led_convertLedType)
     236                            .dwattr $C$DW$30, DW_AT_high_pc(0x00)
     237                            .dwattr $C$DW$30, DW_AT_TI_symbol_name("board_led_convertLedType")
     238                            .dwattr $C$DW$30, DW_AT_type(*$C$DW$T$11)
     239                            .dwattr $C$DW$30, DW_AT_TI_begin_file("../Application/LaunchPad/board_led.c")
     240                            .dwattr $C$DW$30, DW_AT_TI_begin_line(0x157)
     241                            .dwattr $C$DW$30, DW_AT_TI_begin_column(0x15)
     242                            .dwattr $C$DW$30, DW_AT_decl_file("../Application/LaunchPad/board_led.c")
     243                            .dwattr $C$DW$30, DW_AT_decl_line(0x157)
     244                            .dwattr $C$DW$30, DW_AT_decl_column(0x15)
     245                            .dwattr $C$DW$30, DW_AT_TI_max_frame_size(0x00)
     246                            .dwpsn  file "../Application/LaunchPad/board_led.c",line 344,column 1,is_stmt,address board_le
     247                    
     248                            .dwfde $C$DW$CIE, board_led_convertLedType
     249                    $C$DW$31        .dwtag  DW_TAG_formal_parameter
     250                            .dwattr $C$DW$31, DW_AT_name("led")
     251                            .dwattr $C$DW$31, DW_AT_TI_symbol_name("led")
     252                            .dwattr $C$DW$31, DW_AT_type(*$C$DW$T$698)
     253                            .dwattr $C$DW$31, DW_AT_location[DW_OP_reg0]
     254                    
     255                    
     256                    ;*****************************************************************************
     257                    ;* FUNCTION NAME: board_led_convertLedType                                   *
     258                    ;*                                                                           *
     259                    ;*   Regs Modified     : A1,SR                                               *
     260                    ;*   Regs Used         : A1,LR,SR                                            *
     261                    ;*   Local Frame Size  : 0 Args + 0 Auto + 0 Save = 0 byte                   *
     262                    ;*****************************************************************************
     263                    board_led_convertLedType:
     264                    ;* --------------------------------------------------------------------------*
     265                    ;* A1    assigned to led
     266                    $C$DW$32        .dwtag  DW_TAG_variable
     267                            .dwattr $C$DW$32, DW_AT_name("led")
     268                            .dwattr $C$DW$32, DW_AT_TI_symbol_name("led")
     269                            .dwattr $C$DW$32, DW_AT_type(*$C$DW$T$699)
     270                            .dwattr $C$DW$32, DW_AT_location[DW_OP_reg0]
     271                    
     272                            .dwcfi  cfa_offset, 0
     273                            .dwpsn  file "../Application/LaunchPad/board_led.c",line 349,column 5,is_stmt,isa 1
     274 00000000 2800              CMP       A1, #0                ; [DPU_V7M3_PIPE] |349|  ; [ORIG 16-BIT INS]
     275 00000002 BF14              ITE       NE                    ; [DPU_V7M3_PIPE]  ; [ORIG 16-BIT INS]
TI ARM Assembler PC v18.1.1 Wed Apr 25 09:49:08 2018

Tools Copyright (c) 1996-2017 Texas Instruments Incorporated
C:\Users\devops\AppData\Local\Temp\2\{0B978F18-9563-4BBD-B32F-32B01450AE46} PAGE    6

     276 00000004 2007              MOVNE     A1, #7                ; [DPU_V7M3_PIPE] |349|  ; [ORIG 16-BIT INS]
     277 00000006 2006              MOVEQ     A1, #6                ; [DPU_V7M3_PIPE] |349|  ; [ORIG 16-BIT INS]
     278                    $C$DW$33        .dwtag  DW_TAG_TI_branch
     279                            .dwattr $C$DW$33, DW_AT_low_pc(0x00)
     280                            .dwattr $C$DW$33, DW_AT_TI_return
     281                    
     282 00000008 4770              BX        LR                    ; [DPU_V7M3_PIPE]  ; [ORIG 16-BIT INS]
     283                            ; BRANCH OCCURS                  ; [] 
     284                            .dwattr $C$DW$30, DW_AT_TI_end_file("../Application/LaunchPad/board_led.c")
     285                            .dwattr $C$DW$30, DW_AT_TI_end_line(0x15e)
     286                            .dwattr $C$DW$30, DW_AT_TI_end_column(0x01)
     287                            .dwendentry
     288                            .dwendtag $C$DW$30
     289                    
     290 00000000                   .sect   ".text:board_led_convertLedValue"
     291                            .clink
     292                            .thumbfunc board_led_convertLedValue
     293 00000000                   .thumb
     294                    
     295                    $C$DW$34        .dwtag  DW_TAG_subprogram
     296                            .dwattr $C$DW$34, DW_AT_name("board_led_convertLedValue")
     297                            .dwattr $C$DW$34, DW_AT_low_pc(board_led_convertLedValue)
     298                            .dwattr $C$DW$34, DW_AT_high_pc(0x00)
     299                            .dwattr $C$DW$34, DW_AT_TI_symbol_name("board_led_convertLedValue")
     300                            .dwattr $C$DW$34, DW_AT_type(*$C$DW$T$146)
     301                            .dwattr $C$DW$34, DW_AT_TI_begin_file("../Application/LaunchPad/board_led.c")
     302                            .dwattr $C$DW$34, DW_AT_TI_begin_line(0x167)
     303                            .dwattr $C$DW$34, DW_AT_TI_begin_column(0x11)
     304                            .dwattr $C$DW$34, DW_AT_decl_file("../Application/LaunchPad/board_led.c")
     305                            .dwattr $C$DW$34, DW_AT_decl_line(0x167)
     306                            .dwattr $C$DW$34, DW_AT_decl_column(0x11)
     307                            .dwattr $C$DW$34, DW_AT_TI_max_frame_size(0x00)
     308                            .dwpsn  file "../Application/LaunchPad/board_led.c",line 360,column 1,is_stmt,address board_le
     309                    
     310                            .dwfde $C$DW$CIE, board_led_convertLedValue
     311                    $C$DW$35        .dwtag  DW_TAG_formal_parameter
     312                            .dwattr $C$DW$35, DW_AT_name("state")
     313                            .dwattr $C$DW$35, DW_AT_TI_symbol_name("state")
     314                            .dwattr $C$DW$35, DW_AT_type(*$C$DW$T$140)
     315                            .dwattr $C$DW$35, DW_AT_location[DW_OP_reg0]
     316                    
     317                    
     318                    ;*****************************************************************************
     319                    ;* FUNCTION NAME: board_led_convertLedValue                                  *
     320                    ;*                                                                           *
     321                    ;*   Regs Modified     : A1,SR                                               *
     322                    ;*   Regs Used         : A1,LR,SR                                            *
     323                    ;*   Local Frame Size  : 0 Args + 0 Auto + 0 Save = 0 byte                   *
     324                    ;*****************************************************************************
     325                    board_led_convertLedValue:
     326                    ;* --------------------------------------------------------------------------*
     327                    ;* A1    assigned to value
     328                    $C$DW$36        .dwtag  DW_TAG_variable
     329                            .dwattr $C$DW$36, DW_AT_name("value")
     330                            .dwattr $C$DW$36, DW_AT_TI_symbol_name("value")
TI ARM Assembler PC v18.1.1 Wed Apr 25 09:49:08 2018

Tools Copyright (c) 1996-2017 Texas Instruments Incorporated
C:\Users\devops\AppData\Local\Temp\2\{0B978F18-9563-4BBD-B32F-32B01450AE46} PAGE    7

     331                            .dwattr $C$DW$36, DW_AT_type(*$C$DW$T$146)
     332                            .dwattr $C$DW$36, DW_AT_location[DW_OP_reg0]
     333                    
     334                            .dwcfi  cfa_offset, 0
     335                            .dwpsn  file "../Application/LaunchPad/board_led.c",line 363,column 5,is_stmt,isa 1
     336 00000000 1E40              SUBS      A1, A1, #1            ; [DPU_V7M3_PIPE] |363|  ; [ORIG 16-BIT INS]
     337 00000002 2802              CMP       A1, #2                ; [DPU_V7M3_PIPE] |363|  ; [ORIG 16-BIT INS]
     338 00000004 BF8C              ITE       HI                    ; [DPU_V7M3_PIPE]  ; [ORIG 16-BIT INS]
     339                            .dwpsn  file "../Application/LaunchPad/board_led.c",line 372,column 13,is_stmt,isa 1
     340 00000006 2000              MOVHI     A1, #0                ; [DPU_V7M3_PIPE] |372|  ; [ORIG 16-BIT INS]
     341                            .dwpsn  file "../Application/LaunchPad/board_led.c",line 368,column 13,is_stmt,isa 1
     342 00000008 2001              MOVLS     A1, #1                ; [DPU_V7M3_PIPE] |368|  ; [ORIG 16-BIT INS]
     343                    $C$DW$37        .dwtag  DW_TAG_TI_branch
     344                            .dwattr $C$DW$37, DW_AT_low_pc(0x00)
     345                            .dwattr $C$DW$37, DW_AT_TI_return
     346                    
     347 0000000a 4770              BX        LR                    ; [DPU_V7M3_PIPE]  ; [ORIG 16-BIT INS]
     348                            ; BRANCH OCCURS                  ; [] 
     349                            .dwattr $C$DW$34, DW_AT_TI_end_file("../Application/LaunchPad/board_led.c")
     350                            .dwattr $C$DW$34, DW_AT_TI_end_line(0x179)
     351                            .dwattr $C$DW$34, DW_AT_TI_end_column(0x01)
     352                            .dwendentry
     353                            .dwendtag $C$DW$34
     354                    
     355 00000000                   .sect   ".text:board_led_anyBlinking"
     356                            .clink
     357                            .thumbfunc board_led_anyBlinking
     358 00000000                   .thumb
     359                    
     360                    $C$DW$38        .dwtag  DW_TAG_subprogram
     361                            .dwattr $C$DW$38, DW_AT_name("board_led_anyBlinking")
     362                            .dwattr $C$DW$38, DW_AT_low_pc(board_led_anyBlinking)
     363                            .dwattr $C$DW$38, DW_AT_high_pc(0x00)
     364                            .dwattr $C$DW$38, DW_AT_TI_symbol_name("board_led_anyBlinking")
     365                            .dwattr $C$DW$38, DW_AT_type(*$C$DW$T$224)
     366                            .dwattr $C$DW$38, DW_AT_TI_begin_file("../Application/LaunchPad/board_led.c")
     367                            .dwattr $C$DW$38, DW_AT_TI_begin_line(0x108)
     368                            .dwattr $C$DW$38, DW_AT_TI_begin_column(0x0d)
     369                            .dwattr $C$DW$38, DW_AT_decl_file("../Application/LaunchPad/board_led.c")
     370                            .dwattr $C$DW$38, DW_AT_decl_line(0x108)
     371                            .dwattr $C$DW$38, DW_AT_decl_column(0x0d)
     372                            .dwattr $C$DW$38, DW_AT_TI_max_frame_size(0x00)
     373                            .dwpsn  file "../Application/LaunchPad/board_led.c",line 265,column 1,is_stmt,address board_le
     374                    
     375                            .dwfde $C$DW$CIE, board_led_anyBlinking
     376                    
     377                    ;*****************************************************************************
     378                    ;* FUNCTION NAME: board_led_anyBlinking                                      *
     379                    ;*                                                                           *
     380                    ;*   Regs Modified     : A1,A2,A3,SR                                         *
     381                    ;*   Regs Used         : A1,A2,A3,LR,SR                                      *
     382                    ;*   Local Frame Size  : 0 Args + 0 Auto + 0 Save = 0 byte                   *
     383                    ;*****************************************************************************
     384 00000000           board_led_anyBlinking:
     385                    ;* --------------------------------------------------------------------------*
TI ARM Assembler PC v18.1.1 Wed Apr 25 09:49:08 2018

Tools Copyright (c) 1996-2017 Texas Instruments Incorporated
C:\Users\devops\AppData\Local\Temp\2\{0B978F18-9563-4BBD-B32F-32B01450AE46} PAGE    8

     386                    ;* A3    assigned to $O$C1
     387                    ;* A1    assigned to $O$U11
     388                    ;* A2    assigned to $O$L1
     389                            .dwcfi  cfa_offset, 0
     390 00000000 4808              LDR       A1, $C$CON1           ; [DPU_V7M3_PIPE]  ; [ORIG 16-BIT INS]
     391                            .dwpsn  file "../Application/LaunchPad/board_led.c",line 268,column 16,is_stmt,isa 1
     392 00000002 2102              MOVS      A2, #2                ; [DPU_V7M3_PIPE] |268|  ; [ORIG 16-BIT INS]
     393 00000004 1E80              SUBS      A1, A1, #2            ; [DPU_V7M3_PIPE]  ; [ORIG 16-BIT INS]
     394                    ;* --------------------------------------------------------------------------*
     395                    ;*   BEGIN LOOP ||$C$L1||
     396                    ;*
     397                    ;*   Loop source line                : 268
     398                    ;*   Loop closing brace source line  : 276
     399                    ;*   Known Minimum Trip Count        : 1
     400                    ;*   Known Maximum Trip Count        : 2
     401                    ;*   Known Max Trip Count Factor     : 1
     402                    ;* --------------------------------------------------------------------------*
     403 00000006           ||$C$L1||:    
     404                            .dwpsn  file "../Application/LaunchPad/board_led.c",line 270,column 9,is_stmt,isa 1
     405 00000006 2F02F810          LDRB      A3, [A1, #2]!         ; [DPU_V7M3_PIPE] |270|  ; [KEEP 32-BIT INS]
     406 0000000a 2A03              CMP       A3, #3                ; [DPU_V7M3_PIPE] |270|  ; [ORIG 16-BIT INS]
     407 0000000c D004              BEQ       ||$C$L2||             ; [DPU_V7M3_PIPE] |270|  ; [ORIG 16-BIT INS]
     408                            ; BRANCHCC OCCURS {||$C$L2||}    ; [] |270| 
     409                    ;* --------------------------------------------------------------------------*
     410 0000000e 2A02              CMP       A3, #2                ; [DPU_V7M3_PIPE] |270|  ; [ORIG 16-BIT INS]
     411 00000010 D104              BNE       ||$C$L3||             ; [DPU_V7M3_PIPE] |270|  ; [ORIG 16-BIT INS]
     412                            ; BRANCHCC OCCURS {||$C$L3||}    ; [] |270| 
     413                    ;* --------------------------------------------------------------------------*
     414 00000012 7842              LDRB      A3, [A1, #1]          ; [DPU_V7M3_PIPE] |270|  ; [ORIG 16-BIT INS]
     415 00000014 2A02              CMP       A3, #2                ; [DPU_V7M3_PIPE] |270|  ; [ORIG 16-BIT INS]
     416 00000016 D001              BEQ       ||$C$L3||             ; [DPU_V7M3_PIPE] |270|  ; [ORIG 16-BIT INS]
     417                            ; BRANCHCC OCCURS {||$C$L3||}    ; [] |270| 
     418                    ;* --------------------------------------------------------------------------*
     419 00000018           ||$C$L2||:    
     420                            .dwcfi  remember_state
     421                            .dwpsn  file "../Application/LaunchPad/board_led.c",line 274,column 13,is_stmt,isa 1
     422 00000018 2001              MOVS      A1, #1                ; [DPU_V7M3_PIPE] |274|  ; [ORIG 16-BIT INS]
     423                    $C$DW$39        .dwtag  DW_TAG_TI_branch
     424                            .dwattr $C$DW$39, DW_AT_low_pc(0x00)
     425                            .dwattr $C$DW$39, DW_AT_TI_return
     426                    
     427 0000001a 4770              BX        LR                    ; [DPU_V7M3_PIPE]  ; [ORIG 16-BIT INS]
     428                            ; BRANCH OCCURS                  ; [] 
     429                            .dwcfi  restore_state
     430                    ;* --------------------------------------------------------------------------*
     431 0000001c           ||$C$L3||:    
     432                            .dwpsn  file "../Application/LaunchPad/board_led.c",line 268,column 16,is_stmt,isa 1
     433 0000001c 1E49              SUBS      A2, A2, #1            ; [DPU_V7M3_PIPE] |268|  ; [ORIG 16-BIT INS]
     434 0000001e D1F2              BNE       ||$C$L1||             ; [DPU_V7M3_PIPE] |268|  ; [ORIG 16-BIT INS]
     435                            ; BRANCHCC OCCURS {||$C$L1||}    ; [] |268| 
     436                    ;* --------------------------------------------------------------------------*
     437                            .dwpsn  file "../Application/LaunchPad/board_led.c",line 278,column 5,is_stmt,isa 1
     438 00000020 2000              MOVS      A1, #0                ; [DPU_V7M3_PIPE] |278|  ; [ORIG 16-BIT INS]
     439                    ;* --------------------------------------------------------------------------*
     440                    $C$DW$40        .dwtag  DW_TAG_TI_branch
TI ARM Assembler PC v18.1.1 Wed Apr 25 09:49:08 2018

Tools Copyright (c) 1996-2017 Texas Instruments Incorporated
C:\Users\devops\AppData\Local\Temp\2\{0B978F18-9563-4BBD-B32F-32B01450AE46} PAGE    9

     441                            .dwattr $C$DW$40, DW_AT_low_pc(0x00)
     442                            .dwattr $C$DW$40, DW_AT_TI_return
     443                    
     444 00000022 4770              BX        LR                    ; [DPU_V7M3_PIPE]  ; [ORIG 16-BIT INS]
     445                            ; BRANCH OCCURS                  ; [] 
     446                            .dwattr $C$DW$38, DW_AT_TI_end_file("../Application/LaunchPad/board_led.c")
     447                            .dwattr $C$DW$38, DW_AT_TI_end_line(0x117)
     448                            .dwattr $C$DW$38, DW_AT_TI_end_column(0x01)
     449                            .dwendentry
     450                            .dwendtag $C$DW$38
     451                    
     452 00000000                   .sect   ".text:board_led_blinkTimeoutCB"
     453                            .clink
     454                            .thumbfunc board_led_blinkTimeoutCB
     455 00000000                   .thumb
     456                    
     457                    $C$DW$41        .dwtag  DW_TAG_subprogram
     458                            .dwattr $C$DW$41, DW_AT_name("board_led_blinkTimeoutCB")
     459                            .dwattr $C$DW$41, DW_AT_low_pc(board_led_blinkTimeoutCB)
     460                            .dwattr $C$DW$41, DW_AT_high_pc(0x00)
     461                            .dwattr $C$DW$41, DW_AT_TI_symbol_name("board_led_blinkTimeoutCB")
     462                            .dwattr $C$DW$41, DW_AT_TI_begin_file("../Application/LaunchPad/board_led.c")
     463                            .dwattr $C$DW$41, DW_AT_TI_begin_line(0xf7)
     464                            .dwattr $C$DW$41, DW_AT_TI_begin_column(0x0d)
     465                            .dwattr $C$DW$41, DW_AT_decl_file("../Application/LaunchPad/board_led.c")
     466                            .dwattr $C$DW$41, DW_AT_decl_line(0xf7)
     467                            .dwattr $C$DW$41, DW_AT_decl_column(0x0d)
     468                            .dwattr $C$DW$41, DW_AT_TI_max_frame_size(0x28)
     469                            .dwpsn  file "../Application/LaunchPad/board_led.c",line 248,column 1,is_stmt,address board_le
     470                    
     471                            .dwfde $C$DW$CIE, board_led_blinkTimeoutCB
     472                    $C$DW$42        .dwtag  DW_TAG_formal_parameter
     473                            .dwattr $C$DW$42, DW_AT_name("a0")
     474                            .dwattr $C$DW$42, DW_AT_TI_symbol_name("a0")
     475                            .dwattr $C$DW$42, DW_AT_type(*$C$DW$T$881)
     476                            .dwattr $C$DW$42, DW_AT_location[DW_OP_reg0]
     477                    
     478                    
     479                    ;*****************************************************************************
     480                    ;* FUNCTION NAME: board_led_blinkTimeoutCB                                   *
     481                    ;*                                                                           *
     482                    ;*   Regs Modified     : A1,A2,A3,A4,V1,V2,V3,V4,V5,V6,V7,V8,V9,SP,LR,SR     *
     483                    ;*   Regs Used         : A1,A2,A3,A4,V1,V2,V3,V4,V5,V6,V7,V8,V9,SP,LR,SR     *
     484                    ;*   Local Frame Size  : 0 Args + 4 Auto + 36 Save = 40 byte                 *
     485                    ;*****************************************************************************
     486                    board_led_blinkTimeoutCB:
     487                    ;* --------------------------------------------------------------------------*
     488                    ;* A1    assigned to $O$C1
     489                    ;* V8    assigned to key
     490                    $C$DW$43        .dwtag  DW_TAG_variable
     491                            .dwattr $C$DW$43, DW_AT_name("key")
     492                            .dwattr $C$DW$43, DW_AT_TI_symbol_name("key")
     493                            .dwattr $C$DW$43, DW_AT_type(*$C$DW$T$146)
     494                            .dwattr $C$DW$43, DW_AT_location[DW_OP_reg11]
     495                    
TI ARM Assembler PC v18.1.1 Wed Apr 25 09:49:08 2018

Tools Copyright (c) 1996-2017 Texas Instruments Incorporated
C:\Users\devops\AppData\Local\Temp\2\{0B978F18-9563-4BBD-B32F-32B01450AE46} PAGE   10

     496                    ;* V5    assigned to index
     497                    $C$DW$44        .dwtag  DW_TAG_variable
     498                            .dwattr $C$DW$44, DW_AT_name("index")
     499                            .dwattr $C$DW$44, DW_AT_TI_symbol_name("index")
     500                            .dwattr $C$DW$44, DW_AT_type(*$C$DW$T$11)
     501                            .dwattr $C$DW$44, DW_AT_location[DW_OP_reg8]
     502                    
     503                    ;* V5    assigned to index
     504                    $C$DW$45        .dwtag  DW_TAG_variable
     505                            .dwattr $C$DW$45, DW_AT_name("index")
     506                            .dwattr $C$DW$45, DW_AT_TI_symbol_name("index")
     507                            .dwattr $C$DW$45, DW_AT_type(*$C$DW$T$11)
     508                            .dwattr $C$DW$45, DW_AT_location[DW_OP_reg8]
     509                    
     510                    $C$DW$46        .dwtag  DW_TAG_variable
     511                            .dwattr $C$DW$46, DW_AT_name("value")
     512                            .dwattr $C$DW$46, DW_AT_TI_symbol_name("value")
     513                            .dwattr $C$DW$46, DW_AT_type(*$C$DW$T$146)
     514                            .dwattr $C$DW$46, DW_AT_location[DW_OP_breg13 0]
     515                    
     516                    ;* V2    assigned to $O$U11
     517                    ;* V1    assigned to $O$K7
     518                    ;* V3    assigned to x
     519                    $C$DW$47        .dwtag  DW_TAG_variable
     520                            .dwattr $C$DW$47, DW_AT_name("x")
     521                            .dwattr $C$DW$47, DW_AT_TI_symbol_name("x")
     522                            .dwattr $C$DW$47, DW_AT_type(*$C$DW$T$10)
     523                            .dwattr $C$DW$47, DW_AT_location[DW_OP_reg6]
     524                    
     525                            .dwcfi  cfa_offset, 0
     526 00000000 4FF8E92D          PUSH      {A4, V1, V2, V3, V4, V5, V6, V7, V8, LR} ; [DPU_V7M3_PIPE]  ; [KEEP 32-BIT INS]
     527                            .dwcfi  cfa_offset, 40
     528                            .dwcfi  save_reg_to_mem, 14, -4
     529                            .dwcfi  save_reg_to_mem, 11, -8
     530                            .dwcfi  save_reg_to_mem, 10, -12
     531                            .dwcfi  save_reg_to_mem, 9, -16
     532                            .dwcfi  save_reg_to_mem, 8, -20
     533                            .dwcfi  save_reg_to_mem, 7, -24
     534                            .dwcfi  save_reg_to_mem, 6, -28
     535                            .dwcfi  save_reg_to_mem, 5, -32
     536                            .dwcfi  save_reg_to_mem, 4, -36
     537                            .dwcfi  save_reg_to_mem, 3, -40
     538 00000004 4C22              LDR       V1, $C$CON6           ; [DPU_V7M3_PIPE]  ; [ORIG 16-BIT INS]
     539 00000006 2600              MOVS      V3, #0                ; [DPU_V7M3_PIPE]  ; [ORIG 16-BIT INS]
     540                            .dwpsn  file "../Application/LaunchPad/board_led.c",line 306,column 17,is_stmt,isa 1
     541 00000008 0901F04F          MOV       V6, #1                ; [DPU_V7M3_PIPE] |306|  ; [KEEP 32-BIT INS]
     542                            .dwpsn  file "../Application/LaunchPad/board_led.c",line 323,column 13,is_stmt,isa 1
     543 0000000c 0A02F04F          MOV       V7, #2                ; [DPU_V7M3_PIPE] |323|  ; [KEEP 32-BIT INS]
     544                            .dwpsn  file "../Application/LaunchPad/board_led.c",line 306,column 17,is_stmt,isa 1
     545 00000010 4637              MOV       V4, V3                ; [DPU_V7M3_PIPE] |306|  ; [ORIG 16-BIT INS]
     546 00000012 1EA5              SUBS      V2, V1, #2            ; [DPU_V7M3_PIPE]  ; [ORIG 16-BIT INS]
     547                    ;* --------------------------------------------------------------------------*
     548                    ;*   BEGIN LOOP ||$C$L4||
     549                    ;*
     550                    ;*   Loop source line                : 289
TI ARM Assembler PC v18.1.1 Wed Apr 25 09:49:08 2018

Tools Copyright (c) 1996-2017 Texas Instruments Incorporated
C:\Users\devops\AppData\Local\Temp\2\{0B978F18-9563-4BBD-B32F-32B01450AE46} PAGE   11

     551                    ;*   Loop closing brace source line  : 333
     552                    ;*   Known Minimum Trip Count        : 2
     553                    ;*   Known Maximum Trip Count        : 2
     554                    ;*   Known Max Trip Count Factor     : 2
     555                    ;* --------------------------------------------------------------------------*
     556 00000014           ||$C$L4||:    
     557                            .dwpsn  file "../Application/LaunchPad/board_led.c",line 294,column 9,is_stmt,isa 1
     558 00000014 0F02F815          LDRB      A1, [V2, #2]!         ; [DPU_V7M3_PIPE] |294|  ; [KEEP 32-BIT INS]
     559 00000018 2803              CMP       A1, #3                ; [DPU_V7M3_PIPE] |294|  ; [ORIG 16-BIT INS]
     560 0000001a D00E              BEQ       ||$C$L5||             ; [DPU_V7M3_PIPE] |294|  ; [ORIG 16-BIT INS]
     561                            ; BRANCHCC OCCURS {||$C$L5||}    ; [] |294| 
     562                    ;* --------------------------------------------------------------------------*
     563                            .dwpsn  file "../Application/LaunchPad/board_led.c",line 317,column 14,is_stmt,isa 1
     564 0000001c 2802              CMP       A1, #2                ; [DPU_V7M3_PIPE] |317|  ; [ORIG 16-BIT INS]
     565 0000001e D12A              BNE       ||$C$L8||             ; [DPU_V7M3_PIPE] |317|  ; [ORIG 16-BIT INS]
     566                            ; BRANCHCC OCCURS {||$C$L8||}    ; [] |317| 
     567                    ;* --------------------------------------------------------------------------*
     568 00000020 7868              LDRB      A1, [V2, #1]          ; [DPU_V7M3_PIPE] |317|  ; [ORIG 16-BIT INS]
     569 00000022 2802              CMP       A1, #2                ; [DPU_V7M3_PIPE] |317|  ; [ORIG 16-BIT INS]
     570 00000024 D027              BEQ       ||$C$L8||             ; [DPU_V7M3_PIPE] |317|  ; [ORIG 16-BIT INS]
     571                            ; BRANCHCC OCCURS {||$C$L8||}    ; [] |317| 
     572                    ;* --------------------------------------------------------------------------*
     573                            .dwpsn  file "../Application/LaunchPad/board_led.c",line 321,column 13,is_stmt,isa 1
     574 00000026 4630              MOV       A1, V3                ; [DPU_V7M3_PIPE] |321|  ; [ORIG 16-BIT INS]
     575                    $C$DW$48        .dwtag  DW_TAG_TI_branch
     576                            .dwattr $C$DW$48, DW_AT_low_pc(0x00)
     577                            .dwattr $C$DW$48, DW_AT_name("board_led_convertLedType")
     578                            .dwattr $C$DW$48, DW_AT_TI_call
     579                    
     580 00000028 FFFEF7FF!         BL        board_led_convertLedType ; [DPU_V7M3_PIPE] |321|  ; [KEEP 32-BIT INS]
     581                            ; CALL OCCURS {board_led_convertLedType }  ; [] |321| 
     582 0000002c 4680              MOV       V5, A1                ; [DPU_V7M3_PIPE] |321|  ; [ORIG 16-BIT INS]
     583 0000002e 4638              MOV       A1, V4                ; [DPU_V7M3_PIPE] |321|  ; [ORIG 16-BIT INS]
     584                            .dwpsn  file "../Application/LaunchPad/board_led.c",line 322,column 13,is_stmt,isa 1
     585                    $C$DW$49        .dwtag  DW_TAG_TI_branch
     586                            .dwattr $C$DW$49, DW_AT_low_pc(0x00)
     587                            .dwattr $C$DW$49, DW_AT_name("board_led_convertLedValue")
     588                            .dwattr $C$DW$49, DW_AT_TI_call
     589                    
     590 00000030 FFFEF7FF!         BL        board_led_convertLedValue ; [DPU_V7M3_PIPE] |322|  ; [KEEP 32-BIT INS]
     591                            ; CALL OCCURS {board_led_convertLedValue }  ; [] |322| 
     592                            .dwpsn  file "../Application/LaunchPad/board_led.c",line 323,column 13,is_stmt,isa 1
     593 00000034 A001F885          STRB      V7, [V2, #1]          ; [DPU_V7M3_PIPE] |323|  ; [KEEP 32-BIT INS]
     594                            .dwpsn  file "../Application/LaunchPad/board_led.c",line 331,column 13,is_stmt,isa 1
     595 00000038 E010              B         ||$C$L7||             ; [DPU_V7M3_PIPE] |331|  ; [ORIG 16-BIT INS]
     596                            ; BRANCH OCCURS {||$C$L7||}      ; [] |331| 
     597                    ;* --------------------------------------------------------------------------*
     598 0000003a           ||$C$L5||:    
     599                            .dwpsn  file "../Application/LaunchPad/board_led.c",line 296,column 13,is_stmt,isa 1
     600 0000003a 4630              MOV       A1, V3                ; [DPU_V7M3_PIPE] |296|  ; [ORIG 16-BIT INS]
     601                    $C$DW$50        .dwtag  DW_TAG_TI_branch
     602                            .dwattr $C$DW$50, DW_AT_low_pc(0x00)
     603                            .dwattr $C$DW$50, DW_AT_name("board_led_convertLedType")
     604                            .dwattr $C$DW$50, DW_AT_TI_call
     605                    
TI ARM Assembler PC v18.1.1 Wed Apr 25 09:49:08 2018

Tools Copyright (c) 1996-2017 Texas Instruments Incorporated
C:\Users\devops\AppData\Local\Temp\2\{0B978F18-9563-4BBD-B32F-32B01450AE46} PAGE   12

     606 0000003c FFFEF7FF!         BL        board_led_convertLedType ; [DPU_V7M3_PIPE] |296|  ; [KEEP 32-BIT INS]
     607                            ; CALL OCCURS {board_led_convertLedType }  ; [] |296| 
     608 00000040 4680              MOV       V5, A1                ; [DPU_V7M3_PIPE] |296|  ; [ORIG 16-BIT INS]
     609                            .dwpsn  file "../Application/LaunchPad/board_led.c",line 298,column 13,is_stmt,isa 1
     610 00000042 7868              LDRB      A1, [V2, #1]          ; [DPU_V7M3_PIPE] |298|  ; [ORIG 16-BIT INS]
     611 00000044 2801              CMP       A1, #1                ; [DPU_V7M3_PIPE] |298|  ; [ORIG 16-BIT INS]
     612 00000046 D005              BEQ       ||$C$L6||             ; [DPU_V7M3_PIPE] |298|  ; [ORIG 16-BIT INS]
     613                            ; BRANCHCC OCCURS {||$C$L6||}    ; [] |298| 
     614                    ;* --------------------------------------------------------------------------*
     615 00000048 4638              MOV       A1, V4                ; [DPU_V7M3_PIPE]  ; [ORIG 16-BIT INS]
     616                            .dwpsn  file "../Application/LaunchPad/board_led.c",line 305,column 17,is_stmt,isa 1
     617                    $C$DW$51        .dwtag  DW_TAG_TI_branch
     618                            .dwattr $C$DW$51, DW_AT_low_pc(0x00)
     619                            .dwattr $C$DW$51, DW_AT_name("board_led_convertLedValue")
     620                            .dwattr $C$DW$51, DW_AT_TI_call
     621                    
     622 0000004a FFFEF7FF!         BL        board_led_convertLedValue ; [DPU_V7M3_PIPE] |305|  ; [KEEP 32-BIT INS]
     623                            ; CALL OCCURS {board_led_convertLedValue }  ; [] |305| 
     624                            .dwpsn  file "../Application/LaunchPad/board_led.c",line 306,column 17,is_stmt,isa 1
     625 0000004e 9001F885          STRB      V6, [V2, #1]          ; [DPU_V7M3_PIPE] |306|  ; [KEEP 32-BIT INS]
     626 00000052 E003              B         ||$C$L7||             ; [DPU_V7M3_PIPE] |306|  ; [ORIG 16-BIT INS]
     627                            ; BRANCH OCCURS {||$C$L7||}      ; [] |306| 
     628                    ;* --------------------------------------------------------------------------*
     629 00000054           ||$C$L6||:    
     630 00000054 4648              MOV       A1, V6                ; [DPU_V7M3_PIPE]  ; [ORIG 16-BIT INS]
     631                            .dwpsn  file "../Application/LaunchPad/board_led.c",line 300,column 17,is_stmt,isa 1
     632                    $C$DW$52        .dwtag  DW_TAG_TI_branch
     633                            .dwattr $C$DW$52, DW_AT_low_pc(0x00)
     634                            .dwattr $C$DW$52, DW_AT_name("board_led_convertLedValue")
     635                            .dwattr $C$DW$52, DW_AT_TI_call
     636                    
     637 00000056 FFFEF7FF!         BL        board_led_convertLedValue ; [DPU_V7M3_PIPE] |300|  ; [KEEP 32-BIT INS]
     638                            ; CALL OCCURS {board_led_convertLedValue }  ; [] |300| 
     639                            .dwpsn  file "../Application/LaunchPad/board_led.c",line 301,column 17,is_stmt,isa 1
     640 0000005a 706F              STRB      V4, [V2, #1]          ; [DPU_V7M3_PIPE] |301|  ; [ORIG 16-BIT INS]
     641                    ;* --------------------------------------------------------------------------*
     642 0000005c           ||$C$L7||:    
     643                            .dwpsn  file "../Application/LaunchPad/board_led.c",line 300,column 17,is_stmt,isa 1
     644 0000005c 9000              STR       A1, [SP, #0]          ; [DPU_V7M3_PIPE] |300|  ; [ORIG 16-BIT INS]
     645                            .dwpsn  file "../Application/LaunchPad/board_led.c",line 310,column 13,is_stmt,isa 1
     646                    $C$DW$53        .dwtag  DW_TAG_TI_branch
     647                            .dwattr $C$DW$53, DW_AT_low_pc(0x00)
     648                            .dwattr $C$DW$53, DW_AT_name("HwiP_disable")
     649                            .dwattr $C$DW$53, DW_AT_TI_call
     650                    
     651 0000005e FFFEF7FF!         BL        HwiP_disable          ; [DPU_V7M3_PIPE] |310|  ; [KEEP 32-BIT INS]
     652                            ; CALL OCCURS {HwiP_disable }    ; [] |310| 
     653 00000062 4683              MOV       V8, A1                ; [DPU_V7M3_PIPE] |310|  ; [ORIG 16-BIT INS]
     654                            .dwpsn  file "../Application/LaunchPad/board_led.c",line 312,column 13,is_stmt,isa 1
     655 00000064 9A00              LDR       A3, [SP, #0]          ; [DPU_V7M3_PIPE] |312|  ; [ORIG 16-BIT INS]
     656 00000066 6860              LDR       A1, [V1, #4]          ; [DPU_V7M3_PIPE] |312|  ; [ORIG 16-BIT INS]
     657 00000068 F188FA5F          UXTB      A2, V5                ; [DPU_V7M3_PIPE] |312|  ; [KEEP 32-BIT INS]
     658                    $C$DW$54        .dwtag  DW_TAG_TI_branch
     659                            .dwattr $C$DW$54, DW_AT_low_pc(0x00)
     660                            .dwattr $C$DW$54, DW_AT_name("PIN_setOutputValue")
TI ARM Assembler PC v18.1.1 Wed Apr 25 09:49:08 2018

Tools Copyright (c) 1996-2017 Texas Instruments Incorporated
C:\Users\devops\AppData\Local\Temp\2\{0B978F18-9563-4BBD-B32F-32B01450AE46} PAGE   13

     661                            .dwattr $C$DW$54, DW_AT_TI_call
     662                    
     663 0000006c FFFEF7FF!         BL        PIN_setOutputValue    ; [DPU_V7M3_PIPE] |312|  ; [KEEP 32-BIT INS]
     664                            ; CALL OCCURS {PIN_setOutputValue }  ; [] |312| 
     665                            .dwpsn  file "../Application/LaunchPad/board_led.c",line 315,column 13,is_stmt,isa 1
     666 00000070 4658              MOV       A1, V8                ; [DPU_V7M3_PIPE] |315|  ; [ORIG 16-BIT INS]
     667                    $C$DW$55        .dwtag  DW_TAG_TI_branch
     668                            .dwattr $C$DW$55, DW_AT_low_pc(0x00)
     669                            .dwattr $C$DW$55, DW_AT_name("HwiP_restore")
     670                            .dwattr $C$DW$55, DW_AT_TI_call
     671                    
     672 00000072 FFFEF7FF!         BL        HwiP_restore          ; [DPU_V7M3_PIPE] |315|  ; [KEEP 32-BIT INS]
     673                            ; CALL OCCURS {HwiP_restore }    ; [] |315| 
     674                    ;* --------------------------------------------------------------------------*
     675 00000076           ||$C$L8||:    
     676                            .dwpsn  file "../Application/LaunchPad/board_led.c",line 289,column 16,is_stmt,isa 1
     677 00000076 1C76              ADDS      V3, V3, #1            ; [DPU_V7M3_PIPE] |289|  ; [ORIG 16-BIT INS]
     678 00000078 2E02              CMP       V3, #2                ; [DPU_V7M3_PIPE] |289|  ; [ORIG 16-BIT INS]
     679 0000007a DBCB              BLT       ||$C$L4||             ; [DPU_V7M3_PIPE] |289|  ; [ORIG 16-BIT INS]
     680                            ; BRANCHCC OCCURS {||$C$L4||}    ; [] |289| 
     681                    ;* --------------------------------------------------------------------------*
     682                            .dwpsn  file "../Application/LaunchPad/board_led.c",line 252,column 5,is_stmt,isa 1
     683                    $C$DW$56        .dwtag  DW_TAG_TI_branch
     684                            .dwattr $C$DW$56, DW_AT_low_pc(0x00)
     685                            .dwattr $C$DW$56, DW_AT_name("board_led_anyBlinking")
     686                            .dwattr $C$DW$56, DW_AT_TI_call
     687                    
     688 0000007c FFFEF7FF!         BL        board_led_anyBlinking ; [DPU_V7M3_PIPE] |252|  ; [KEEP 32-BIT INS]
     689                            ; CALL OCCURS {board_led_anyBlinking }  ; [] |252| 
     690 00000080 B118              CBZ       A1, ||$C$L9||         ; []  ; [ORIG 16-BIT INS]
     691                            ; BRANCHCC OCCURS {||$C$L9||}    ; [] |252| 
     692                    ;* --------------------------------------------------------------------------*
     693 00000082 0020F104          ADD       A1, V1, #32           ; [DPU_V7M3_PIPE]  ; [KEEP 32-BIT INS]
     694                            .dwpsn  file "../Application/LaunchPad/board_led.c",line 255,column 9,is_stmt,isa 1
     695                    $C$DW$57        .dwtag  DW_TAG_TI_branch
     696                            .dwattr $C$DW$57, DW_AT_low_pc(0x00)
     697                            .dwattr $C$DW$57, DW_AT_name("Timer_start")
     698                            .dwattr $C$DW$57, DW_AT_TI_call
     699                    
     700 00000086 FFFEF7FF!         BL        Timer_start           ; [DPU_V7M3_PIPE] |255|  ; [KEEP 32-BIT INS]
     701                            ; CALL OCCURS {Timer_start }     ; [] |255| 
     702                    ;* --------------------------------------------------------------------------*
     703                    ||$C$L9||:    
     704                    $C$DW$58        .dwtag  DW_TAG_TI_branch
     705                            .dwattr $C$DW$58, DW_AT_low_pc(0x00)
     706                            .dwattr $C$DW$58, DW_AT_TI_return
     707                    
     708 0000008a 8FF8E8BD          POP       {A4, V1, V2, V3, V4, V5, V6, V7, V8, PC} ; [DPU_V7M3_PIPE]  ; [KEEP 32-BIT INS]
     709                            .dwcfi  cfa_offset, 0
     710                            .dwcfi  restore_reg, 11
     711                            .dwcfi  restore_reg, 10
     712                            .dwcfi  restore_reg, 9
     713                            .dwcfi  restore_reg, 8
     714                            .dwcfi  restore_reg, 7
     715                            .dwcfi  restore_reg, 6
TI ARM Assembler PC v18.1.1 Wed Apr 25 09:49:08 2018

Tools Copyright (c) 1996-2017 Texas Instruments Incorporated
C:\Users\devops\AppData\Local\Temp\2\{0B978F18-9563-4BBD-B32F-32B01450AE46} PAGE   14

     716                            .dwcfi  restore_reg, 5
     717                            .dwcfi  restore_reg, 4
     718                            .dwcfi  restore_reg, 3
     719                            ; BRANCH OCCURS                  ; [] 
     720                            .dwattr $C$DW$41, DW_AT_TI_end_file("../Application/LaunchPad/board_led.c")
     721                            .dwattr $C$DW$41, DW_AT_TI_end_line(0x101)
     722                            .dwattr $C$DW$41, DW_AT_TI_end_column(0x01)
     723                            .dwendentry
     724                            .dwendtag $C$DW$41
     725                    
     726 00000000                   .sect   ".text:Board_Led_control"
     727                            .clink
     728                            .thumbfunc Board_Led_control
     729 00000000                   .thumb
     730                            .global Board_Led_control
     731                    
     732                    $C$DW$59        .dwtag  DW_TAG_subprogram
     733                            .dwattr $C$DW$59, DW_AT_name("Board_Led_control")
     734                            .dwattr $C$DW$59, DW_AT_low_pc(Board_Led_control)
     735                            .dwattr $C$DW$59, DW_AT_high_pc(0x00)
     736                            .dwattr $C$DW$59, DW_AT_TI_symbol_name("Board_Led_control")
     737                            .dwattr $C$DW$59, DW_AT_external
     738                            .dwattr $C$DW$59, DW_AT_TI_begin_file("../Application/LaunchPad/board_led.c")
     739                            .dwattr $C$DW$59, DW_AT_TI_begin_line(0xa0)
     740                            .dwattr $C$DW$59, DW_AT_TI_begin_column(0x06)
     741                            .dwattr $C$DW$59, DW_AT_decl_file("../Application/LaunchPad/board_led.c")
     742                            .dwattr $C$DW$59, DW_AT_decl_line(0xa0)
     743                            .dwattr $C$DW$59, DW_AT_decl_column(0x06)
     744                            .dwattr $C$DW$59, DW_AT_TI_max_frame_size(0x18)
     745                            .dwpsn  file "../Application/LaunchPad/board_led.c",line 161,column 1,is_stmt,address Board_Le
     746                    
     747                            .dwfde $C$DW$CIE, Board_Led_control
     748                    $C$DW$60        .dwtag  DW_TAG_formal_parameter
     749                            .dwattr $C$DW$60, DW_AT_name("led")
     750                            .dwattr $C$DW$60, DW_AT_TI_symbol_name("led")
     751                            .dwattr $C$DW$60, DW_AT_type(*$C$DW$T$698)
     752                            .dwattr $C$DW$60, DW_AT_location[DW_OP_reg0]
     753                    
     754                    $C$DW$61        .dwtag  DW_TAG_formal_parameter
     755                            .dwattr $C$DW$61, DW_AT_name("state")
     756                            .dwattr $C$DW$61, DW_AT_TI_symbol_name("state")
     757                            .dwattr $C$DW$61, DW_AT_type(*$C$DW$T$140)
     758                            .dwattr $C$DW$61, DW_AT_location[DW_OP_reg1]
     759                    
     760                    
     761                    ;*****************************************************************************
     762                    ;* FUNCTION NAME: Board_Led_control                                          *
     763                    ;*                                                                           *
     764                    ;*   Regs Modified     : A1,A2,A3,A4,V1,V2,V3,V4,V9,SP,LR,SR                 *
     765                    ;*   Regs Used         : A1,A2,A3,A4,V1,V2,V3,V4,V9,SP,LR,SR                 *
     766                    ;*   Local Frame Size  : 0 Args + 0 Auto + 20 Save = 20 byte                 *
     767                    ;*****************************************************************************
     768                    Board_Led_control:
     769                    ;* --------------------------------------------------------------------------*
     770                    ;* A1    assigned to $O$C1
TI ARM Assembler PC v18.1.1 Wed Apr 25 09:49:08 2018

Tools Copyright (c) 1996-2017 Texas Instruments Incorporated
C:\Users\devops\AppData\Local\Temp\2\{0B978F18-9563-4BBD-B32F-32B01450AE46} PAGE   15

     771                    ;* A1    assigned to $O$C2
     772                    ;* A1    assigned to $O$C3
     773                    ;* V1    assigned to $O$C4
     774                    ;* V1    assigned to $O$K42
     775                    ;* V1    assigned to $O$K42
     776                    ;* V1    assigned to $O$K4
     777                    ;* A3    assigned to $O$K26
     778                    ;* A3    assigned to led
     779                    $C$DW$62        .dwtag  DW_TAG_variable
     780                            .dwattr $C$DW$62, DW_AT_name("led")
     781                            .dwattr $C$DW$62, DW_AT_TI_symbol_name("led")
     782                            .dwattr $C$DW$62, DW_AT_type(*$C$DW$T$700)
     783                            .dwattr $C$DW$62, DW_AT_location[DW_OP_reg2]
     784                    
     785                    ;* A2    assigned to state
     786                    $C$DW$63        .dwtag  DW_TAG_variable
     787                            .dwattr $C$DW$63, DW_AT_name("state")
     788                            .dwattr $C$DW$63, DW_AT_TI_symbol_name("state")
     789                            .dwattr $C$DW$63, DW_AT_type(*$C$DW$T$691)
     790                            .dwattr $C$DW$63, DW_AT_location[DW_OP_reg1]
     791                    
     792                    ;* V2    assigned to gpioType
     793                    $C$DW$64        .dwtag  DW_TAG_variable
     794                            .dwattr $C$DW$64, DW_AT_name("gpioType")
     795                            .dwattr $C$DW$64, DW_AT_TI_symbol_name("gpioType")
     796                            .dwattr $C$DW$64, DW_AT_type(*$C$DW$T$11)
     797                            .dwattr $C$DW$64, DW_AT_location[DW_OP_reg5]
     798                    
     799                    ;* V3    assigned to value
     800                    $C$DW$65        .dwtag  DW_TAG_variable
     801                            .dwattr $C$DW$65, DW_AT_name("value")
     802                            .dwattr $C$DW$65, DW_AT_TI_symbol_name("value")
     803                            .dwattr $C$DW$65, DW_AT_type(*$C$DW$T$146)
     804                            .dwattr $C$DW$65, DW_AT_location[DW_OP_reg6]
     805                    
     806                    ;* V4    assigned to key
     807                    $C$DW$66        .dwtag  DW_TAG_variable
     808                            .dwattr $C$DW$66, DW_AT_name("key")
     809                            .dwattr $C$DW$66, DW_AT_TI_symbol_name("key")
     810                            .dwattr $C$DW$66, DW_AT_type(*$C$DW$T$146)
     811                            .dwattr $C$DW$66, DW_AT_location[DW_OP_reg7]
     812                    
     813                            .dwcfi  cfa_offset, 0
     814 00000000 B5F8              PUSH      {A4, V1, V2, V3, V4, LR} ; [DPU_V7M3_PIPE]  ; [ORIG 16-BIT INS]
     815                            .dwcfi  cfa_offset, 24
     816                            .dwcfi  save_reg_to_mem, 14, -4
     817                            .dwcfi  save_reg_to_mem, 7, -8
     818                            .dwcfi  save_reg_to_mem, 6, -12
     819                            .dwcfi  save_reg_to_mem, 5, -16
     820                            .dwcfi  save_reg_to_mem, 4, -20
     821                            .dwcfi  save_reg_to_mem, 3, -24
     822                            .dwpsn  file "../Application/LaunchPad/board_led.c",line 166,column 5,is_stmt,isa 1
     823 00000002 4C1E              LDR       V1, $C$CON9           ; [DPU_V7M3_PIPE] |166|  ; [ORIG 16-BIT INS]
     824                            .dwpsn  file "../Application/LaunchPad/board_led.c",line 161,column 1,is_stmt,isa 1
     825 00000004 4602              MOV       A3, A1                ; [DPU_V7M3_PIPE] |161|  ; [ORIG 16-BIT INS]
TI ARM Assembler PC v18.1.1 Wed Apr 25 09:49:08 2018

Tools Copyright (c) 1996-2017 Texas Instruments Incorporated
C:\Users\devops\AppData\Local\Temp\2\{0B978F18-9563-4BBD-B32F-32B01450AE46} PAGE   16

     826                            .dwpsn  file "../Application/LaunchPad/board_led.c",line 166,column 5,is_stmt,isa 1
     827 00000006 6860              LDR       A1, [V1, #4]          ; [DPU_V7M3_PIPE] |166|  ; [ORIG 16-BIT INS]
     828 00000008 2800              CMP       A1, #0                ; [DPU_V7M3_PIPE] |166|  ; [ORIG 16-BIT INS]
     829 0000000a D036              BEQ       ||$C$L11||            ; [DPU_V7M3_PIPE] |166|  ; [ORIG 16-BIT INS]
     830                            ; BRANCHCC OCCURS {||$C$L11||}   ; [] |166| 
     831                    ;* --------------------------------------------------------------------------*
     832                            .dwpsn  file "../Application/LaunchPad/board_led.c",line 172,column 5,is_stmt,isa 1
     833 0000000c 4610              MOV       A1, A3                ; [DPU_V7M3_PIPE] |172|  ; [ORIG 16-BIT INS]
     834                    $C$DW$67        .dwtag  DW_TAG_TI_branch
     835                            .dwattr $C$DW$67, DW_AT_low_pc(0x00)
     836                            .dwattr $C$DW$67, DW_AT_name("board_led_convertLedType")
     837                            .dwattr $C$DW$67, DW_AT_TI_call
     838                    
     839 0000000e FFFEF7FF!         BL        board_led_convertLedType ; [DPU_V7M3_PIPE] |172|  ; [KEEP 32-BIT INS]
     840                            ; CALL OCCURS {board_led_convertLedType }  ; [] |172| 
     841 00000012 4605              MOV       V2, A1                ; [DPU_V7M3_PIPE] |172|  ; [ORIG 16-BIT INS]
     842                            .dwpsn  file "../Application/LaunchPad/board_led.c",line 173,column 5,is_stmt,isa 1
     843 00000014 4608              MOV       A1, A2                ; [DPU_V7M3_PIPE] |173|  ; [ORIG 16-BIT INS]
     844                    $C$DW$68        .dwtag  DW_TAG_TI_branch
     845                            .dwattr $C$DW$68, DW_AT_low_pc(0x00)
     846                            .dwattr $C$DW$68, DW_AT_name("board_led_convertLedValue")
     847                            .dwattr $C$DW$68, DW_AT_TI_call
     848                    
     849 00000016 FFFEF7FF!         BL        board_led_convertLedValue ; [DPU_V7M3_PIPE] |173|  ; [KEEP 32-BIT INS]
     850                            ; CALL OCCURS {board_led_convertLedValue }  ; [] |173| 
     851 0000001a 4606              MOV       V3, A1                ; [DPU_V7M3_PIPE] |173|  ; [ORIG 16-BIT INS]
     852                            .dwpsn  file "../Application/LaunchPad/board_led.c",line 176,column 5,is_stmt,isa 1
     853 0000001c 2A02              CMP       A3, #2                ; [DPU_V7M3_PIPE] |176|  ; [ORIG 16-BIT INS]
     854 0000001e DA2C              BGE       ||$C$L11||            ; [DPU_V7M3_PIPE] |176|  ; [ORIG 16-BIT INS]
     855                            ; BRANCHCC OCCURS {||$C$L11||}   ; [] |176| 
     856                    ;* --------------------------------------------------------------------------*
     857 00000020 2904              CMP       A2, #4                ; [DPU_V7M3_PIPE] |176|  ; [ORIG 16-BIT INS]
     858 00000022 DA2A              BGE       ||$C$L11||            ; [DPU_V7M3_PIPE] |176|  ; [ORIG 16-BIT INS]
     859                            ; BRANCHCC OCCURS {||$C$L11||}   ; [] |176| 
     860                    ;* --------------------------------------------------------------------------*
     861                            .dwpsn  file "../Application/LaunchPad/board_led.c",line 182,column 5,is_stmt,isa 1
     862 00000024 0050              LSLS      A1, A3, #1            ; [DPU_V7M3_PIPE] |182|  ; [ORIG 16-BIT INS]
     863                            .dwpsn  file "../Application/LaunchPad/board_led.c",line 183,column 5,is_stmt,isa 1
     864 00000026 2902              CMP       A2, #2                ; [DPU_V7M3_PIPE] |183|  ; [ORIG 16-BIT INS]
     865                            .dwpsn  file "../Application/LaunchPad/board_led.c",line 182,column 5,is_stmt,isa 1
     866 00000028 5501              STRB      A2, [A1, +V1]         ; [DPU_V7M3_PIPE] |182|  ; [ORIG 16-BIT INS]
     867 0000002a 0200EB04          ADD       A3, V1, A1            ; [DPU_V7M3_PIPE] |182|  ; [KEEP 32-BIT INS]
     868 0000002e BF12              ITEE      NE                    ; [DPU_V7M3_PIPE]  ; [ORIG 16-BIT INS]
     869                            .dwpsn  file "../Application/LaunchPad/board_led.c",line 183,column 5,is_stmt,isa 1
     870 00000030 2903              CMPNE     A2, #3                ; [DPU_V7M3_PIPE] |183|  ; [ORIG 16-BIT INS]
     871                            .dwpsn  file "../Application/LaunchPad/board_led.c",line 185,column 9,is_stmt,isa 1
     872 00000032 2000              MOVEQ     A1, #0                ; [DPU_V7M3_PIPE] |185|  ; [ORIG 16-BIT INS]
     873 00000034 7050              STRBEQ    A1, [A3, #1]          ; [DPU_V7M3_PIPE] |185|  ; [ORIG 16-BIT INS]
     874                            .dwpsn  file "../Application/LaunchPad/board_led.c",line 189,column 5,is_stmt,isa 1
     875                    $C$DW$69        .dwtag  DW_TAG_TI_branch
     876                            .dwattr $C$DW$69, DW_AT_low_pc(0x00)
     877                            .dwattr $C$DW$69, DW_AT_name("HwiP_disable")
     878                            .dwattr $C$DW$69, DW_AT_TI_call
     879                    
     880 00000036 FFFEF7FF!         BL        HwiP_disable          ; [DPU_V7M3_PIPE] |189|  ; [KEEP 32-BIT INS]
TI ARM Assembler PC v18.1.1 Wed Apr 25 09:49:08 2018

Tools Copyright (c) 1996-2017 Texas Instruments Incorporated
C:\Users\devops\AppData\Local\Temp\2\{0B978F18-9563-4BBD-B32F-32B01450AE46} PAGE   17

     881                            ; CALL OCCURS {HwiP_disable }    ; [] |189| 
     882 0000003a 4607              MOV       V4, A1                ; [DPU_V7M3_PIPE] |189|  ; [ORIG 16-BIT INS]
     883                            .dwpsn  file "../Application/LaunchPad/board_led.c",line 192,column 5,is_stmt,isa 1
     884 0000003c 6860              LDR       A1, [V1, #4]          ; [DPU_V7M3_PIPE] |192|  ; [ORIG 16-BIT INS]
     885 0000003e B2E9              UXTB      A2, V2                ; [DPU_V7M3_PIPE] |192|  ; [ORIG 16-BIT INS]
     886 00000040 4632              MOV       A3, V3                ; [DPU_V7M3_PIPE] |192|  ; [ORIG 16-BIT INS]
     887                    $C$DW$70        .dwtag  DW_TAG_TI_branch
     888                            .dwattr $C$DW$70, DW_AT_low_pc(0x00)
     889                            .dwattr $C$DW$70, DW_AT_name("PIN_setOutputValue")
     890                            .dwattr $C$DW$70, DW_AT_TI_call
     891                    
     892 00000042 FFFEF7FF!         BL        PIN_setOutputValue    ; [DPU_V7M3_PIPE] |192|  ; [KEEP 32-BIT INS]
     893                            ; CALL OCCURS {PIN_setOutputValue }  ; [] |192| 
     894                            .dwpsn  file "../Application/LaunchPad/board_led.c",line 195,column 5,is_stmt,isa 1
     895 00000046 4638              MOV       A1, V4                ; [DPU_V7M3_PIPE] |195|  ; [ORIG 16-BIT INS]
     896                    $C$DW$71        .dwtag  DW_TAG_TI_branch
     897                            .dwattr $C$DW$71, DW_AT_low_pc(0x00)
     898                            .dwattr $C$DW$71, DW_AT_name("HwiP_restore")
     899                            .dwattr $C$DW$71, DW_AT_TI_call
     900                    
     901 00000048 FFFEF7FF!         BL        HwiP_restore          ; [DPU_V7M3_PIPE] |195|  ; [KEEP 32-BIT INS]
     902                            ; CALL OCCURS {HwiP_restore }    ; [] |195| 
     903                            .dwpsn  file "../Application/LaunchPad/board_led.c",line 199,column 5,is_stmt,isa 1
     904                    $C$DW$72        .dwtag  DW_TAG_TI_branch
     905                            .dwattr $C$DW$72, DW_AT_low_pc(0x00)
     906                            .dwattr $C$DW$72, DW_AT_name("board_led_anyBlinking")
     907                            .dwattr $C$DW$72, DW_AT_TI_call
     908                    
     909 0000004c FFFEF7FF!         BL        board_led_anyBlinking ; [DPU_V7M3_PIPE] |199|  ; [KEEP 32-BIT INS]
     910                            ; CALL OCCURS {board_led_anyBlinking }  ; [] |199| 
     911 00000050 B950              CBNZ      A1, ||$C$L10||        ; []  ; [ORIG 16-BIT INS]
     912                            ; BRANCHCC OCCURS {||$C$L10||}   ; [] |199| 
     913                    ;* --------------------------------------------------------------------------*
     914 00000052 0020F104          ADD       A1, V1, #32           ; [DPU_V7M3_PIPE]  ; [KEEP 32-BIT INS]
     915                            .dwpsn  file "../Application/LaunchPad/board_led.c",line 208,column 9,is_stmt,isa 1
     916 00000056 4604              MOV       V1, A1                ; [DPU_V7M3_PIPE] |208|  ; [ORIG 16-BIT INS]
     917                    $C$DW$73        .dwtag  DW_TAG_TI_branch
     918                            .dwattr $C$DW$73, DW_AT_low_pc(0x00)
     919                            .dwattr $C$DW$73, DW_AT_name("Timer_isActive")
     920                            .dwattr $C$DW$73, DW_AT_TI_call
     921                    
     922 00000058 FFFEF7FF!         BL        Timer_isActive        ; [DPU_V7M3_PIPE] |208|  ; [KEEP 32-BIT INS]
     923                            ; CALL OCCURS {Timer_isActive }  ; [] |208| 
     924 0000005c 2801              CMP       A1, #1                ; [DPU_V7M3_PIPE] |208|  ; [ORIG 16-BIT INS]
     925 0000005e D10C              BNE       ||$C$L11||            ; [DPU_V7M3_PIPE] |208|  ; [ORIG 16-BIT INS]
     926                            ; BRANCHCC OCCURS {||$C$L11||}   ; [] |208| 
     927                    ;* --------------------------------------------------------------------------*
     928                            .dwcfi  remember_state
     929                            .dwpsn  file "../Application/LaunchPad/board_led.c",line 210,column 13,is_stmt,isa 1
     930 00000060 4620              MOV       A1, V1                ; [DPU_V7M3_PIPE] |210|  ; [ORIG 16-BIT INS]
     931                    $C$DW$74        .dwtag  DW_TAG_TI_branch
     932                            .dwattr $C$DW$74, DW_AT_low_pc(0x00)
     933                            .dwattr $C$DW$74, DW_AT_name("Timer_stop")
     934                            .dwattr $C$DW$74, DW_AT_TI_call
     935                    
TI ARM Assembler PC v18.1.1 Wed Apr 25 09:49:08 2018

Tools Copyright (c) 1996-2017 Texas Instruments Incorporated
C:\Users\devops\AppData\Local\Temp\2\{0B978F18-9563-4BBD-B32F-32B01450AE46} PAGE   18

     936 00000062 FFFEF7FF!         BL        Timer_stop            ; [DPU_V7M3_PIPE] |210|  ; [KEEP 32-BIT INS]
     937                            ; CALL OCCURS {Timer_stop }      ; [] |210| 
     938                    $C$DW$75        .dwtag  DW_TAG_TI_branch
     939                            .dwattr $C$DW$75, DW_AT_low_pc(0x00)
     940                            .dwattr $C$DW$75, DW_AT_TI_return
     941                    
     942 00000066 BDF8              POP       {A4, V1, V2, V3, V4, PC} ; [DPU_V7M3_PIPE]  ; [ORIG 16-BIT INS]
     943                            .dwcfi  cfa_offset, 0
     944                            .dwcfi  restore_reg, 7
     945                            .dwcfi  restore_reg, 6
     946                            .dwcfi  restore_reg, 5
     947                            .dwcfi  restore_reg, 4
     948                            .dwcfi  restore_reg, 3
     949                            ; BRANCH OCCURS                  ; [] 
     950                            .dwcfi  restore_state
     951                    ;* --------------------------------------------------------------------------*
     952 00000068           ||$C$L10||:    
     953 00000068 0020F104          ADD       A1, V1, #32           ; [DPU_V7M3_PIPE]  ; [KEEP 32-BIT INS]
     954                            .dwpsn  file "../Application/LaunchPad/board_led.c",line 201,column 9,is_stmt,isa 1
     955 0000006c 4604              MOV       V1, A1                ; [DPU_V7M3_PIPE] |201|  ; [ORIG 16-BIT INS]
     956                    $C$DW$76        .dwtag  DW_TAG_TI_branch
     957                            .dwattr $C$DW$76, DW_AT_low_pc(0x00)
     958                            .dwattr $C$DW$76, DW_AT_name("Timer_isActive")
     959                            .dwattr $C$DW$76, DW_AT_TI_call
     960                    
     961 0000006e FFFEF7FF!         BL        Timer_isActive        ; [DPU_V7M3_PIPE] |201|  ; [KEEP 32-BIT INS]
     962                            ; CALL OCCURS {Timer_isActive }  ; [] |201| 
     963 00000072 B910              CBNZ      A1, ||$C$L11||        ; []  ; [ORIG 16-BIT INS]
     964                            ; BRANCHCC OCCURS {||$C$L11||}   ; [] |201| 
     965                    ;* --------------------------------------------------------------------------*
     966                            .dwpsn  file "../Application/LaunchPad/board_led.c",line 203,column 13,is_stmt,isa 1
     967 00000074 4620              MOV       A1, V1                ; [DPU_V7M3_PIPE] |203|  ; [ORIG 16-BIT INS]
     968                    $C$DW$77        .dwtag  DW_TAG_TI_branch
     969                            .dwattr $C$DW$77, DW_AT_low_pc(0x00)
     970                            .dwattr $C$DW$77, DW_AT_name("Timer_start")
     971                            .dwattr $C$DW$77, DW_AT_TI_call
     972                    
     973 00000076 FFFEF7FF!         BL        Timer_start           ; [DPU_V7M3_PIPE] |203|  ; [KEEP 32-BIT INS]
     974                            ; CALL OCCURS {Timer_start }     ; [] |203| 
     975                    ;* --------------------------------------------------------------------------*
     976                    ||$C$L11||:    
     977                    $C$DW$78        .dwtag  DW_TAG_TI_branch
     978                            .dwattr $C$DW$78, DW_AT_low_pc(0x00)
     979                            .dwattr $C$DW$78, DW_AT_TI_return
     980                    
     981 0000007a BDF8              POP       {A4, V1, V2, V3, V4, PC} ; [DPU_V7M3_PIPE]  ; [ORIG 16-BIT INS]
     982                            .dwcfi  cfa_offset, 0
     983                            .dwcfi  restore_reg, 7
     984                            .dwcfi  restore_reg, 6
     985                            .dwcfi  restore_reg, 5
     986                            .dwcfi  restore_reg, 4
     987                            .dwcfi  restore_reg, 3
     988                            ; BRANCH OCCURS                  ; [] 
     989                            .dwattr $C$DW$59, DW_AT_TI_end_file("../Application/LaunchPad/board_led.c")
     990                            .dwattr $C$DW$59, DW_AT_TI_end_line(0xd5)
TI ARM Assembler PC v18.1.1 Wed Apr 25 09:49:08 2018

Tools Copyright (c) 1996-2017 Texas Instruments Incorporated
C:\Users\devops\AppData\Local\Temp\2\{0B978F18-9563-4BBD-B32F-32B01450AE46} PAGE   19

     991                            .dwattr $C$DW$59, DW_AT_TI_end_column(0x01)
     992                            .dwendentry
     993                            .dwendtag $C$DW$59
     994                    
     995 00000000                   .sect   ".text:Board_Led_toggle"
     996                            .clink
     997                            .thumbfunc Board_Led_toggle
     998 00000000                   .thumb
     999                            .global Board_Led_toggle
    1000                    
    1001                    $C$DW$79        .dwtag  DW_TAG_subprogram
    1002                            .dwattr $C$DW$79, DW_AT_name("Board_Led_toggle")
    1003                            .dwattr $C$DW$79, DW_AT_low_pc(Board_Led_toggle)
    1004                            .dwattr $C$DW$79, DW_AT_high_pc(0x00)
    1005                            .dwattr $C$DW$79, DW_AT_TI_symbol_name("Board_Led_toggle")
    1006                            .dwattr $C$DW$79, DW_AT_external
    1007                            .dwattr $C$DW$79, DW_AT_TI_begin_file("../Application/LaunchPad/board_led.c")
    1008                            .dwattr $C$DW$79, DW_AT_TI_begin_line(0xdc)
    1009                            .dwattr $C$DW$79, DW_AT_TI_begin_column(0x06)
    1010                            .dwattr $C$DW$79, DW_AT_decl_file("../Application/LaunchPad/board_led.c")
    1011                            .dwattr $C$DW$79, DW_AT_decl_line(0xdc)
    1012                            .dwattr $C$DW$79, DW_AT_decl_column(0x06)
    1013                            .dwattr $C$DW$79, DW_AT_TI_max_frame_size(0x00)
    1014                            .dwpsn  file "../Application/LaunchPad/board_led.c",line 221,column 1,is_stmt,address Board_Le
    1015                    
    1016                            .dwfde $C$DW$CIE, Board_Led_toggle
    1017                    $C$DW$80        .dwtag  DW_TAG_formal_parameter
    1018                            .dwattr $C$DW$80, DW_AT_name("led")
    1019                            .dwattr $C$DW$80, DW_AT_TI_symbol_name("led")
    1020                            .dwattr $C$DW$80, DW_AT_type(*$C$DW$T$698)
    1021                            .dwattr $C$DW$80, DW_AT_location[DW_OP_reg0]
    1022                    
    1023                    
    1024                    ;*****************************************************************************
    1025                    ;* FUNCTION NAME: Board_Led_toggle                                           *
    1026                    ;*                                                                           *
    1027                    ;*   Regs Modified     : A1,A2,A3,A4,V9,LR,SR                                *
    1028                    ;*   Regs Used         : A1,A2,A3,A4,V9,SP,LR,SR                             *
    1029                    ;*   Local Frame Size  : 0 Args + 0 Auto + 0 Save = 0 byte                   *
    1030                    ;*****************************************************************************
    1031                    Board_Led_toggle:
    1032                    ;* --------------------------------------------------------------------------*
    1033                    ;* A1    assigned to led
    1034                    $C$DW$81        .dwtag  DW_TAG_variable
    1035                            .dwattr $C$DW$81, DW_AT_name("led")
    1036                            .dwattr $C$DW$81, DW_AT_TI_symbol_name("led")
    1037                            .dwattr $C$DW$81, DW_AT_type(*$C$DW$T$701)
    1038                            .dwattr $C$DW$81, DW_AT_location[DW_OP_reg0]
    1039                    
    1040                    ;* A2    assigned to newState
    1041                    $C$DW$82        .dwtag  DW_TAG_variable
    1042                            .dwattr $C$DW$82, DW_AT_name("newState")
    1043                            .dwattr $C$DW$82, DW_AT_TI_symbol_name("newState")
    1044                            .dwattr $C$DW$82, DW_AT_type(*$C$DW$T$10)
    1045                            .dwattr $C$DW$82, DW_AT_location[DW_OP_reg1]
TI ARM Assembler PC v18.1.1 Wed Apr 25 09:49:08 2018

Tools Copyright (c) 1996-2017 Texas Instruments Incorporated
C:\Users\devops\AppData\Local\Temp\2\{0B978F18-9563-4BBD-B32F-32B01450AE46} PAGE   20

    1046                    
    1047                            .dwcfi  cfa_offset, 0
    1048                            .dwpsn  file "../Application/LaunchPad/board_led.c",line 225,column 5,is_stmt,isa 1
    1049 00000000 2802              CMP       A1, #2                ; [DPU_V7M3_PIPE] |225|  ; [ORIG 16-BIT INS]
    1050 00000002 DA08              BGE       ||$C$L12||            ; [DPU_V7M3_PIPE] |225|  ; [ORIG 16-BIT INS]
    1051                            ; BRANCHCC OCCURS {||$C$L12||}   ; [] |225| 
    1052                    ;* --------------------------------------------------------------------------*
    1053                            .dwpsn  file "../Application/LaunchPad/board_led.c",line 228,column 9,is_stmt,isa 1
    1054 00000004 4904              LDR       A2, $C$CON10          ; [DPU_V7M3_PIPE] |228|  ; [ORIG 16-BIT INS]
    1055 00000006 1010F811          LDRB      A2, [A2, +A1, LSL #1] ; [DPU_V7M3_PIPE] |228|  ; [KEEP 32-BIT INS]
    1056 0000000a 2900              CMP       A2, #0                ; [DPU_V7M3_PIPE] |228|  ; [ORIG 16-BIT INS]
    1057 0000000c BF0C              ITE       EQ                    ; [DPU_V7M3_PIPE]  ; [ORIG 16-BIT INS]
    1058                            .dwpsn  file "../Application/LaunchPad/board_led.c",line 230,column 13,is_stmt,isa 1
    1059 0000000e 2101              MOVEQ     A2, #1                ; [DPU_V7M3_PIPE] |230|  ; [ORIG 16-BIT INS]
    1060                            .dwpsn  file "../Application/LaunchPad/board_led.c",line 222,column 30,is_stmt,isa 1
    1061 00000010 2100              MOVNE     A2, #0                ; [DPU_V7M3_PIPE] |222|  ; [ORIG 16-BIT INS]
    1062                            .dwpsn  file "../Application/LaunchPad/board_led.c",line 234,column 9,is_stmt,isa 1
    1063                    $C$DW$83        .dwtag  DW_TAG_TI_branch
    1064                            .dwattr $C$DW$83, DW_AT_low_pc(0x00)
    1065                            .dwattr $C$DW$83, DW_AT_name("Board_Led_control")
    1066                            .dwattr $C$DW$83, DW_AT_TI_call
    1067                            .dwattr $C$DW$83, DW_AT_TI_return
    1068                    
    1069 00000012 BFFEF7FF!         CRET      Board_Led_control     ; [DPU_V7M3_PIPE] |234|  ; [KEEP 32-BIT INS]
    1070                            ; CALL OCCURS {Board_Led_control }  ; [] |234| 
    1071                    ;* --------------------------------------------------------------------------*
    1072                    ||$C$L12||:    
    1073                    $C$DW$84        .dwtag  DW_TAG_TI_branch
    1074                            .dwattr $C$DW$84, DW_AT_low_pc(0x00)
    1075                            .dwattr $C$DW$84, DW_AT_TI_return
    1076                    
    1077 00000016 4770              BX        LR                    ; [DPU_V7M3_PIPE]  ; [ORIG 16-BIT INS]
    1078                            ; BRANCH OCCURS                  ; [] 
    1079                            .dwattr $C$DW$79, DW_AT_TI_end_file("../Application/LaunchPad/board_led.c")
    1080                            .dwattr $C$DW$79, DW_AT_TI_end_line(0xec)
    1081                            .dwattr $C$DW$79, DW_AT_TI_end_column(0x01)
    1082                            .dwendentry
    1083                            .dwendtag $C$DW$79
    1084                    
    1085 00000000                   .sect   ".text:Board_Led_initialize"
    1086                            .clink
    1087                            .thumbfunc Board_Led_initialize
    1088 00000000                   .thumb
    1089                            .global Board_Led_initialize
    1090                    
    1091                    $C$DW$85        .dwtag  DW_TAG_subprogram
    1092                            .dwattr $C$DW$85, DW_AT_name("Board_Led_initialize")
    1093                            .dwattr $C$DW$85, DW_AT_low_pc(Board_Led_initialize)
    1094                            .dwattr $C$DW$85, DW_AT_high_pc(0x00)
    1095                            .dwattr $C$DW$85, DW_AT_TI_symbol_name("Board_Led_initialize")
    1096                            .dwattr $C$DW$85, DW_AT_external
    1097                            .dwattr $C$DW$85, DW_AT_TI_begin_file("../Application/LaunchPad/board_led.c")
    1098                            .dwattr $C$DW$85, DW_AT_TI_begin_line(0x81)
    1099                            .dwattr $C$DW$85, DW_AT_TI_begin_column(0x06)
    1100                            .dwattr $C$DW$85, DW_AT_decl_file("../Application/LaunchPad/board_led.c")
TI ARM Assembler PC v18.1.1 Wed Apr 25 09:49:08 2018

Tools Copyright (c) 1996-2017 Texas Instruments Incorporated
C:\Users\devops\AppData\Local\Temp\2\{0B978F18-9563-4BBD-B32F-32B01450AE46} PAGE   21

    1101                            .dwattr $C$DW$85, DW_AT_decl_line(0x81)
    1102                            .dwattr $C$DW$85, DW_AT_decl_column(0x06)
    1103                            .dwattr $C$DW$85, DW_AT_TI_max_frame_size(0x28)
    1104                            .dwpsn  file "../Application/LaunchPad/board_led.c",line 130,column 1,is_stmt,address Board_Le
    1105                    
    1106                            .dwfde $C$DW$CIE, Board_Led_initialize
    1107                    
    1108                    ;*****************************************************************************
    1109                    ;* FUNCTION NAME: Board_Led_initialize                                       *
    1110                    ;*                                                                           *
    1111                    ;*   Regs Modified     : A1,A2,A3,A4,V1,V2,V3,V4,V5,V6,V9,SP,LR,SR           *
    1112                    ;*   Regs Used         : A1,A2,A3,A4,V1,V2,V3,V4,V5,V6,V9,SP,LR,SR           *
    1113                    ;*   Local Frame Size  : 8 Args + 0 Auto + 28 Save = 36 byte                 *
    1114                    ;*****************************************************************************
    1115                    Board_Led_initialize:
    1116                    ;* --------------------------------------------------------------------------*
    1117                    ;* V1    assigned to $O$C1
    1118                    ;* V4    assigned to $O$K15
    1119                    ;* V2    assigned to $O$U22
    1120                    ;* V5    assigned to $O$K25
    1121                    ;* V1    assigned to $O$K2
    1122                    ;* V3    assigned to x
    1123                    $C$DW$86        .dwtag  DW_TAG_variable
    1124                            .dwattr $C$DW$86, DW_AT_name("x")
    1125                            .dwattr $C$DW$86, DW_AT_TI_symbol_name("x")
    1126                            .dwattr $C$DW$86, DW_AT_type(*$C$DW$T$10)
    1127                            .dwattr $C$DW$86, DW_AT_location[DW_OP_reg6]
    1128                    
    1129                    ;* A2    assigned to index
    1130                    $C$DW$87        .dwtag  DW_TAG_variable
    1131                            .dwattr $C$DW$87, DW_AT_name("index")
    1132                            .dwattr $C$DW$87, DW_AT_TI_symbol_name("index")
    1133                            .dwattr $C$DW$87, DW_AT_type(*$C$DW$T$11)
    1134                            .dwattr $C$DW$87, DW_AT_location[DW_OP_reg1]
    1135                    
    1136                    ;* V6    assigned to value
    1137                    $C$DW$88        .dwtag  DW_TAG_variable
    1138                            .dwattr $C$DW$88, DW_AT_name("value")
    1139                            .dwattr $C$DW$88, DW_AT_TI_symbol_name("value")
    1140                            .dwattr $C$DW$88, DW_AT_type(*$C$DW$T$146)
    1141                            .dwattr $C$DW$88, DW_AT_location[DW_OP_reg9]
    1142                    
    1143                            .dwcfi  cfa_offset, 0
    1144 00000000 43FEE92D          PUSH      {A2, A3, A4, V1, V2, V3, V4, V5, V6, LR} ; [DPU_V7M3_PIPE]  ; [KEEP 32-BIT INS]
    1145                            .dwcfi  cfa_offset, 40
    1146                            .dwcfi  save_reg_to_mem, 14, -4
    1147                            .dwcfi  save_reg_to_mem, 9, -8
    1148                            .dwcfi  save_reg_to_mem, 8, -12
    1149                            .dwcfi  save_reg_to_mem, 7, -16
    1150                            .dwcfi  save_reg_to_mem, 6, -20
    1151                            .dwcfi  save_reg_to_mem, 5, -24
    1152                            .dwcfi  save_reg_to_mem, 4, -28
    1153                            .dwcfi  save_reg_to_mem, 3, -32
    1154                            .dwcfi  save_reg_to_mem, 2, -36
    1155                            .dwcfi  save_reg_to_mem, 1, -40
TI ARM Assembler PC v18.1.1 Wed Apr 25 09:49:08 2018

Tools Copyright (c) 1996-2017 Texas Instruments Incorporated
C:\Users\devops\AppData\Local\Temp\2\{0B978F18-9563-4BBD-B32F-32B01450AE46} PAGE   22

    1156                            .dwpsn  file "../Application/LaunchPad/board_led.c",line 136,column 5,is_stmt,isa 1
    1157 00000004 4C17              LDR       V1, $C$CON17          ; [DPU_V7M3_PIPE] |136|  ; [ORIG 16-BIT INS]
    1158 00000006 0014F104          ADD       A1, V1, #20           ; [DPU_V7M3_PIPE]  ; [KEEP 32-BIT INS]
    1159 0000000a 0108F104          ADD       A2, V1, #8            ; [DPU_V7M3_PIPE]  ; [KEEP 32-BIT INS]
    1160                    $C$DW$89        .dwtag  DW_TAG_TI_branch
    1161                            .dwattr $C$DW$89, DW_AT_low_pc(0x00)
    1162                            .dwattr $C$DW$89, DW_AT_name("PIN_open")
    1163                            .dwattr $C$DW$89, DW_AT_TI_call
    1164                    
    1165 0000000e FFFEF7FF!         BL        PIN_open              ; [DPU_V7M3_PIPE] |136|  ; [KEEP 32-BIT INS]
    1166                            ; CALL OCCURS {PIN_open }        ; [] |136| 
    1167 00000012 6060              STR       A1, [V1, #4]          ; [DPU_V7M3_PIPE] |136|  ; [ORIG 16-BIT INS]
    1168                            .dwpsn  file "../Application/LaunchPad/board_led.c",line 138,column 5,is_stmt,isa 1
    1169 00000014 2000              MOVS      A1, #0                ; [DPU_V7M3_PIPE] |138|  ; [ORIG 16-BIT INS]
    1170                    $C$DW$90        .dwtag  DW_TAG_TI_branch
    1171                            .dwattr $C$DW$90, DW_AT_low_pc(0x00)
    1172                            .dwattr $C$DW$90, DW_AT_name("board_led_convertLedValue")
    1173                            .dwattr $C$DW$90, DW_AT_TI_call
    1174                    
    1175 00000016 FFFEF7FF!         BL        board_led_convertLedValue ; [DPU_V7M3_PIPE] |138|  ; [KEEP 32-BIT INS]
    1176                            ; CALL OCCURS {board_led_convertLedValue }  ; [] |138| 
    1177 0000001a 2700              MOVS      V4, #0                ; [DPU_V7M3_PIPE]  ; [ORIG 16-BIT INS]
    1178 0000001c 0802F04F          MOV       V5, #2                ; [DPU_V7M3_PIPE]  ; [KEEP 32-BIT INS]
    1179 00000020 463E              MOV       V3, V4                ; [DPU_V7M3_PIPE]  ; [ORIG 16-BIT INS]
    1180 00000022 1EA5              SUBS      V2, V1, #2            ; [DPU_V7M3_PIPE]  ; [ORIG 16-BIT INS]
    1181 00000024 4681              MOV       V6, A1                ; [DPU_V7M3_PIPE] |138|  ; [ORIG 16-BIT INS]
    1182                    ;* --------------------------------------------------------------------------*
    1183                    ;*   BEGIN LOOP ||$C$L13||
    1184                    ;*
    1185                    ;*   Loop source line                : 140
    1186                    ;*   Loop closing brace source line  : 148
    1187                    ;*   Known Minimum Trip Count        : 2
    1188                    ;*   Known Maximum Trip Count        : 2
    1189                    ;*   Known Max Trip Count Factor     : 2
    1190                    ;* --------------------------------------------------------------------------*
    1191 00000026           ||$C$L13||:    
    1192                            .dwpsn  file "../Application/LaunchPad/board_led.c",line 142,column 9,is_stmt,isa 1
    1193 00000026 7F02F805          STRB      V4, [V2, #2]!         ; [DPU_V7M3_PIPE] |142|  ; [KEEP 32-BIT INS]
    1194                            .dwpsn  file "../Application/LaunchPad/board_led.c",line 145,column 9,is_stmt,isa 1
    1195 0000002a 4630              MOV       A1, V3                ; [DPU_V7M3_PIPE] |145|  ; [ORIG 16-BIT INS]
    1196                            .dwpsn  file "../Application/LaunchPad/board_led.c",line 143,column 9,is_stmt,isa 1
    1197 0000002c 8001F885          STRB      V5, [V2, #1]          ; [DPU_V7M3_PIPE] |143|  ; [KEEP 32-BIT INS]
    1198                            .dwpsn  file "../Application/LaunchPad/board_led.c",line 145,column 9,is_stmt,isa 1
    1199                    $C$DW$91        .dwtag  DW_TAG_TI_branch
    1200                            .dwattr $C$DW$91, DW_AT_low_pc(0x00)
    1201                            .dwattr $C$DW$91, DW_AT_name("board_led_convertLedType")
    1202                            .dwattr $C$DW$91, DW_AT_TI_call
    1203                    
    1204 00000030 FFFEF7FF!         BL        board_led_convertLedType ; [DPU_V7M3_PIPE] |145|  ; [KEEP 32-BIT INS]
    1205                            ; CALL OCCURS {board_led_convertLedType }  ; [] |145| 
    1206 00000034 4601              MOV       A2, A1                ; [DPU_V7M3_PIPE] |145|  ; [ORIG 16-BIT INS]
    1207                            .dwpsn  file "../Application/LaunchPad/board_led.c",line 147,column 9,is_stmt,isa 1
    1208 00000036 6860              LDR       A1, [V1, #4]          ; [DPU_V7M3_PIPE] |147|  ; [ORIG 16-BIT INS]
    1209 00000038 464A              MOV       A3, V6                ; [DPU_V7M3_PIPE] |147|  ; [ORIG 16-BIT INS]
    1210 0000003a B2C9              UXTB      A2, A2                ; [DPU_V7M3_PIPE] |147|  ; [ORIG 16-BIT INS]
TI ARM Assembler PC v18.1.1 Wed Apr 25 09:49:08 2018

Tools Copyright (c) 1996-2017 Texas Instruments Incorporated
C:\Users\devops\AppData\Local\Temp\2\{0B978F18-9563-4BBD-B32F-32B01450AE46} PAGE   23

    1211                    $C$DW$92        .dwtag  DW_TAG_TI_branch
    1212                            .dwattr $C$DW$92, DW_AT_low_pc(0x00)
    1213                            .dwattr $C$DW$92, DW_AT_name("PIN_setOutputValue")
    1214                            .dwattr $C$DW$92, DW_AT_TI_call
    1215                    
    1216 0000003c FFFEF7FF!         BL        PIN_setOutputValue    ; [DPU_V7M3_PIPE] |147|  ; [KEEP 32-BIT INS]
    1217                            ; CALL OCCURS {PIN_setOutputValue }  ; [] |147| 
    1218                            .dwpsn  file "../Application/LaunchPad/board_led.c",line 140,column 16,is_stmt,isa 1
    1219 00000040 1C76              ADDS      V3, V3, #1            ; [DPU_V7M3_PIPE] |140|  ; [ORIG 16-BIT INS]
    1220 00000042 2E02              CMP       V3, #2                ; [DPU_V7M3_PIPE] |140|  ; [ORIG 16-BIT INS]
    1221 00000044 DBEF              BLT       ||$C$L13||            ; [DPU_V7M3_PIPE] |140|  ; [ORIG 16-BIT INS]
    1222                            ; BRANCHCC OCCURS {||$C$L13||}   ; [] |140| 
    1223                    ;* --------------------------------------------------------------------------*
    1224 00000046 463B              MOV       A4, V4                ; [DPU_V7M3_PIPE]  ; [ORIG 16-BIT INS]
    1225                            .dwpsn  file "../Application/LaunchPad/board_led.c",line 150,column 5,is_stmt,isa 1
    1226 00000048 4905              LDR       A2, $C$CON12          ; [DPU_V7M3_PIPE] |150|  ; [ORIG 16-BIT INS]
    1227 0000004a 9300              STR       A4, [SP, #0]          ; [DPU_V7M3_PIPE] |150|  ; [ORIG 16-BIT INS]
    1228 0000004c 0020F104          ADD       A1, V1, #32           ; [DPU_V7M3_PIPE]  ; [KEEP 32-BIT INS]
    1229 00000050 72FAF44F          MOV       A3, #500              ; [DPU_V7M3_PIPE] |150|  ; [KEEP 32-BIT INS]
    1230 00000054 9301              STR       A4, [SP, #4]          ; [DPU_V7M3_PIPE] |150|  ; [ORIG 16-BIT INS]
    1231                    $C$DW$93        .dwtag  DW_TAG_TI_branch
    1232                            .dwattr $C$DW$93, DW_AT_low_pc(0x00)
    1233                            .dwattr $C$DW$93, DW_AT_name("Timer_construct")
    1234                            .dwattr $C$DW$93, DW_AT_TI_call
    1235                    
    1236 00000056 FFFEF7FF!         BL        Timer_construct       ; [DPU_V7M3_PIPE] |150|  ; [KEEP 32-BIT INS]
    1237                            ; CALL OCCURS {Timer_construct }  ; [] |150| 
    1238                    $C$DW$94        .dwtag  DW_TAG_TI_branch
    1239                            .dwattr $C$DW$94, DW_AT_low_pc(0x00)
    1240                            .dwattr $C$DW$94, DW_AT_TI_return
    1241                    
    1242 0000005a 83FEE8BD          POP       {A2, A3, A4, V1, V2, V3, V4, V5, V6, PC} ; [DPU_V7M3_PIPE]  ; [KEEP 32-BIT INS]
    1243                            .dwcfi  cfa_offset, 0
    1244                            .dwcfi  restore_reg, 9
    1245                            .dwcfi  restore_reg, 8
    1246                            .dwcfi  restore_reg, 7
    1247                            .dwcfi  restore_reg, 6
    1248                            .dwcfi  restore_reg, 5
    1249                            .dwcfi  restore_reg, 4
    1250                            .dwcfi  restore_reg, 3
    1251                            .dwcfi  restore_reg, 2
    1252                            .dwcfi  restore_reg, 1
    1253                            ; BRANCH OCCURS                  ; [] 
    1254                            .dwattr $C$DW$85, DW_AT_TI_end_file("../Application/LaunchPad/board_led.c")
    1255                            .dwattr $C$DW$85, DW_AT_TI_end_line(0x99)
    1256                            .dwattr $C$DW$85, DW_AT_TI_end_column(0x01)
    1257                            .dwendentry
    1258                            .dwendtag $C$DW$85
    1259                    
    1260                    ;******************************************************************************
    1261                    ;* CONSTANT TABLE                                                             *
    1262                    ;******************************************************************************
    1263 00000024                   .sect   ".text:board_led_anyBlinking"
    1264                            .align  4
    1265 00000024 00000000! ||$C$CON1||:    .bits   ||$O1$$||,32
TI ARM Assembler PC v18.1.1 Wed Apr 25 09:49:08 2018

Tools Copyright (c) 1996-2017 Texas Instruments Incorporated
C:\Users\devops\AppData\Local\Temp\2\{0B978F18-9563-4BBD-B32F-32B01450AE46} PAGE   24

    1266                    ;******************************************************************************
    1267                    ;* CONSTANT TABLE                                                             *
    1268                    ;******************************************************************************
    1269 0000008e                   .sect   ".text:board_led_blinkTimeoutCB"
    1270                            .align  4
    1271 0000008e 000046C0! ||$C$CON6||:    .bits   ||$O1$$||,32
         00000092 00000000 
    1272                    ;******************************************************************************
    1273                    ;* CONSTANT TABLE                                                             *
    1274                    ;******************************************************************************
    1275 0000007c                   .sect   ".text:Board_Led_control"
    1276                            .align  4
    1277 0000007c 00000000! ||$C$CON9||:    .bits   ||$O1$$||,32
    1278                    ;******************************************************************************
    1279                    ;* CONSTANT TABLE                                                             *
    1280                    ;******************************************************************************
    1281 00000018                   .sect   ".text:Board_Led_toggle"
    1282                            .align  4
    1283 00000018 00000000! ||$C$CON10||:   .bits   ||$O1$$||,32
    1284                    ;******************************************************************************
    1285                    ;* CONSTANT TABLE                                                             *
    1286                    ;******************************************************************************
    1287 0000005e                   .sect   ".text:Board_Led_initialize"
    1288                            .align  4
    1289 0000005e 000046C0! ||$C$CON12||:   .bits   board_led_blinkTimeoutCB,32
         00000062 00000000 
    1290                            .align  4
    1291 00000062 00000000! ||$C$CON17||:   .bits   ||$O1$$||,32
         00000066 00000000 
    1292                    ;*****************************************************************************
    1293                    ;* UNDEFINED EXTERNAL REFERENCES                                             *
    1294                    ;*****************************************************************************
    1295                            .global PIN_open
    1296                            .global PIN_setOutputValue
    1297                            .global Timer_construct
    1298                            .global HwiP_disable
    1299                            .global HwiP_restore
    1300                            .global Timer_isActive
    1301                            .global Timer_start
    1302                            .global Timer_stop
    1303                    
    1304                    ;******************************************************************************
    1305                    ;* BUILD ATTRIBUTES                                                           *
    1306                    ;******************************************************************************
    1307                            .battr "aeabi", Tag_File, 1, Tag_ABI_PCS_wchar_t(2)
    1308                            .battr "aeabi", Tag_File, 1, Tag_ABI_FP_rounding(0)
    1309                            .battr "aeabi", Tag_File, 1, Tag_ABI_FP_denormal(0)
    1310                            .battr "aeabi", Tag_File, 1, Tag_ABI_FP_exceptions(0)
    1311                            .battr "aeabi", Tag_File, 1, Tag_ABI_FP_number_model(1)
    1312                            .battr "aeabi", Tag_File, 1, Tag_ABI_enum_size(1)
    1313                            .battr "aeabi", Tag_File, 1, Tag_ABI_optimization_goals(0)
    1314                            .battr "aeabi", Tag_File, 1, Tag_ABI_FP_optimization_goals(0)
    1315                            .battr "TI", Tag_File, 1, Tag_Bitfield_layout(2)
    1316                            .battr "aeabi", Tag_File, 1, Tag_ABI_VFP_args(3)
    1317                            .battr "TI", Tag_File, 1, Tag_FP_interface(1)
TI ARM Assembler PC v18.1.1 Wed Apr 25 09:49:08 2018

Tools Copyright (c) 1996-2017 Texas Instruments Incorporated
C:\Users\devops\AppData\Local\Temp\2\{0B978F18-9563-4BBD-B32F-32B01450AE46} PAGE   25

    1318                    
    1319                    ;******************************************************************************
    1320                    ;* TYPE INFORMATION                                                           *
    1321                    ;******************************************************************************
    1322                    
    1323                    $C$DW$T$139     .dwtag  DW_TAG_enumeration_type
    1324                            .dwattr $C$DW$T$139, DW_AT_byte_size(0x01)
    1325                    $C$DW$95        .dwtag  DW_TAG_enumerator
    1326                            .dwattr $C$DW$95, DW_AT_name("board_led_state_OFF")
    1327                            .dwattr $C$DW$95, DW_AT_const_value(0x00)
    1328                            .dwattr $C$DW$95, DW_AT_decl_file("..\Application\LaunchPad\board_led.h")
    1329                            .dwattr $C$DW$95, DW_AT_decl_line(0x5d)
    1330                            .dwattr $C$DW$95, DW_AT_decl_column(0x05)
    1331                    
    1332                    $C$DW$96        .dwtag  DW_TAG_enumerator
    1333                            .dwattr $C$DW$96, DW_AT_name("board_led_state_ON")
    1334                            .dwattr $C$DW$96, DW_AT_const_value(0x01)
    1335                            .dwattr $C$DW$96, DW_AT_decl_file("..\Application\LaunchPad\board_led.h")
    1336                            .dwattr $C$DW$96, DW_AT_decl_line(0x5e)
    1337                            .dwattr $C$DW$96, DW_AT_decl_column(0x05)
    1338                    
    1339                    $C$DW$97        .dwtag  DW_TAG_enumerator
    1340                            .dwattr $C$DW$97, DW_AT_name("board_led_state_BLINK")
    1341                            .dwattr $C$DW$97, DW_AT_const_value(0x02)
    1342                            .dwattr $C$DW$97, DW_AT_decl_file("..\Application\LaunchPad\board_led.h")
    1343                            .dwattr $C$DW$97, DW_AT_decl_line(0x5f)
    1344                            .dwattr $C$DW$97, DW_AT_decl_column(0x05)
    1345                    
    1346                    $C$DW$98        .dwtag  DW_TAG_enumerator
    1347                            .dwattr $C$DW$98, DW_AT_name("board_led_state_BLINKING")
    1348                            .dwattr $C$DW$98, DW_AT_const_value(0x03)
    1349                            .dwattr $C$DW$98, DW_AT_decl_file("..\Application\LaunchPad\board_led.h")
    1350                            .dwattr $C$DW$98, DW_AT_decl_line(0x60)
    1351                            .dwattr $C$DW$98, DW_AT_decl_column(0x05)
    1352                    
    1353                            .dwattr $C$DW$T$139, DW_AT_decl_file("..\Application\LaunchPad\board_led.h")
    1354                            .dwattr $C$DW$T$139, DW_AT_decl_line(0x5c)
    1355                            .dwattr $C$DW$T$139, DW_AT_decl_column(0x01)
    1356                            .dwendtag $C$DW$T$139
    1357                    
    1358                    $C$DW$T$140     .dwtag  DW_TAG_typedef
    1359                            .dwattr $C$DW$T$140, DW_AT_name("board_led_state")
    1360                            .dwattr $C$DW$T$140, DW_AT_type(*$C$DW$T$139)
    1361                            .dwattr $C$DW$T$140, DW_AT_language(DW_LANG_C)
    1362                            .dwattr $C$DW$T$140, DW_AT_decl_file("..\Application\LaunchPad\board_led.h")
    1363                            .dwattr $C$DW$T$140, DW_AT_decl_line(0x61)
    1364                            .dwattr $C$DW$T$140, DW_AT_decl_column(0x03)
    1365                    
    1366                    $C$DW$T$691     .dwtag  DW_TAG_const_type
    1367                            .dwattr $C$DW$T$691, DW_AT_type(*$C$DW$T$140)
    1368                    
    1369                    
    1370                    $C$DW$T$141     .dwtag  DW_TAG_enumeration_type
    1371                            .dwattr $C$DW$T$141, DW_AT_byte_size(0x01)
    1372                    $C$DW$99        .dwtag  DW_TAG_enumerator
TI ARM Assembler PC v18.1.1 Wed Apr 25 09:49:08 2018

Tools Copyright (c) 1996-2017 Texas Instruments Incorporated
C:\Users\devops\AppData\Local\Temp\2\{0B978F18-9563-4BBD-B32F-32B01450AE46} PAGE   26

    1373                            .dwattr $C$DW$99, DW_AT_name("BLINKING_STATUS_ON")
    1374                            .dwattr $C$DW$99, DW_AT_const_value(0x00)
    1375                            .dwattr $C$DW$99, DW_AT_decl_file("../Application/LaunchPad/board_led.c")
    1376                            .dwattr $C$DW$99, DW_AT_decl_line(0x47)
    1377                            .dwattr $C$DW$99, DW_AT_decl_column(0x05)
    1378                    
    1379                    $C$DW$100       .dwtag  DW_TAG_enumerator
    1380                            .dwattr $C$DW$100, DW_AT_name("BLINKING_STATUS_OFF")
    1381                            .dwattr $C$DW$100, DW_AT_const_value(0x01)
    1382                            .dwattr $C$DW$100, DW_AT_decl_file("../Application/LaunchPad/board_led.c")
    1383                            .dwattr $C$DW$100, DW_AT_decl_line(0x48)
    1384                            .dwattr $C$DW$100, DW_AT_decl_column(0x05)
    1385                    
    1386                    $C$DW$101       .dwtag  DW_TAG_enumerator
    1387                            .dwattr $C$DW$101, DW_AT_name("BLINKING_STATUS_DONE")
    1388                            .dwattr $C$DW$101, DW_AT_const_value(0x02)
    1389                            .dwattr $C$DW$101, DW_AT_decl_file("../Application/LaunchPad/board_led.c")
    1390                            .dwattr $C$DW$101, DW_AT_decl_line(0x49)
    1391                            .dwattr $C$DW$101, DW_AT_decl_column(0x05)
    1392                    
    1393                            .dwattr $C$DW$T$141, DW_AT_decl_file("../Application/LaunchPad/board_led.c")
    1394                            .dwattr $C$DW$T$141, DW_AT_decl_line(0x46)
    1395                            .dwattr $C$DW$T$141, DW_AT_decl_column(0x01)
    1396                            .dwendtag $C$DW$T$141
    1397                    
    1398                    $C$DW$T$142     .dwtag  DW_TAG_typedef
    1399                            .dwattr $C$DW$T$142, DW_AT_name("blinkStatus")
    1400                            .dwattr $C$DW$T$142, DW_AT_type(*$C$DW$T$141)
    1401                            .dwattr $C$DW$T$142, DW_AT_language(DW_LANG_C)
    1402                            .dwattr $C$DW$T$142, DW_AT_decl_file("../Application/LaunchPad/board_led.c")
    1403                            .dwattr $C$DW$T$142, DW_AT_decl_line(0x4a)
    1404                            .dwattr $C$DW$T$142, DW_AT_decl_column(0x03)
    1405                    
    1406                    
    1407                    $C$DW$T$196     .dwtag  DW_TAG_enumeration_type
    1408                            .dwattr $C$DW$T$196, DW_AT_byte_size(0x01)
    1409                    $C$DW$102       .dwtag  DW_TAG_enumerator
    1410                            .dwattr $C$DW$102, DW_AT_name("ApiMac_addrType_none")
    1411                            .dwattr $C$DW$102, DW_AT_const_value(0x00)
    1412                            .dwattr $C$DW$102, DW_AT_decl_file("C:/ti/workspace1/sensor_cc1350lp/Application/api_mac.h")
    1413                            .dwattr $C$DW$102, DW_AT_decl_line(0x1a9)
    1414                            .dwattr $C$DW$102, DW_AT_decl_column(0x05)
    1415                    
    1416                    $C$DW$103       .dwtag  DW_TAG_enumerator
    1417                            .dwattr $C$DW$103, DW_AT_name("ApiMac_addrType_short")
    1418                            .dwattr $C$DW$103, DW_AT_const_value(0x02)
    1419                            .dwattr $C$DW$103, DW_AT_decl_file("C:/ti/workspace1/sensor_cc1350lp/Application/api_mac.h")
    1420                            .dwattr $C$DW$103, DW_AT_decl_line(0x1ab)
    1421                            .dwattr $C$DW$103, DW_AT_decl_column(0x05)
    1422                    
    1423                    $C$DW$104       .dwtag  DW_TAG_enumerator
    1424                            .dwattr $C$DW$104, DW_AT_name("ApiMac_addrType_extended")
    1425                            .dwattr $C$DW$104, DW_AT_const_value(0x03)
    1426                            .dwattr $C$DW$104, DW_AT_decl_file("C:/ti/workspace1/sensor_cc1350lp/Application/api_mac.h")
    1427                            .dwattr $C$DW$104, DW_AT_decl_line(0x1ad)
TI ARM Assembler PC v18.1.1 Wed Apr 25 09:49:08 2018

Tools Copyright (c) 1996-2017 Texas Instruments Incorporated
C:\Users\devops\AppData\Local\Temp\2\{0B978F18-9563-4BBD-B32F-32B01450AE46} PAGE   27

    1428                            .dwattr $C$DW$104, DW_AT_decl_column(0x05)
    1429                    
    1430                            .dwattr $C$DW$T$196, DW_AT_decl_file("C:/ti/workspace1/sensor_cc1350lp/Application/api_mac.h")
    1431                            .dwattr $C$DW$T$196, DW_AT_decl_line(0x1a7)
    1432                            .dwattr $C$DW$T$196, DW_AT_decl_column(0x01)
    1433                            .dwendtag $C$DW$T$196
    1434                    
    1435                    $C$DW$T$197     .dwtag  DW_TAG_typedef
    1436                            .dwattr $C$DW$T$197, DW_AT_name("ApiMac_addrType_t")
    1437                            .dwattr $C$DW$T$197, DW_AT_type(*$C$DW$T$196)
    1438                            .dwattr $C$DW$T$197, DW_AT_language(DW_LANG_C)
    1439                            .dwattr $C$DW$T$197, DW_AT_decl_file("C:/ti/workspace1/sensor_cc1350lp/Application/api_mac.h")
    1440                            .dwattr $C$DW$T$197, DW_AT_decl_line(0x1ae)
    1441                            .dwattr $C$DW$T$197, DW_AT_decl_column(0x03)
    1442                    
    1443                    
    1444                    $C$DW$T$200     .dwtag  DW_TAG_enumeration_type
    1445                            .dwattr $C$DW$T$200, DW_AT_byte_size(0x01)
    1446                    $C$DW$105       .dwtag  DW_TAG_enumerator
    1447                            .dwattr $C$DW$105, DW_AT_name("ApiMac_beaconType_normal")
    1448                            .dwattr $C$DW$105, DW_AT_const_value(0x00)
    1449                            .dwattr $C$DW$105, DW_AT_decl_file("C:/ti/workspace1/sensor_cc1350lp/Application/api_mac.h")
    1450                            .dwattr $C$DW$105, DW_AT_decl_line(0x1b4)
    1451                            .dwattr $C$DW$105, DW_AT_decl_column(0x05)
    1452                    
    1453                    $C$DW$106       .dwtag  DW_TAG_enumerator
    1454                            .dwattr $C$DW$106, DW_AT_name("ApiMac_beaconType_enhanced")
    1455                            .dwattr $C$DW$106, DW_AT_const_value(0x01)
    1456                            .dwattr $C$DW$106, DW_AT_decl_file("C:/ti/workspace1/sensor_cc1350lp/Application/api_mac.h")
    1457                            .dwattr $C$DW$106, DW_AT_decl_line(0x1b6)
    1458                            .dwattr $C$DW$106, DW_AT_decl_column(0x05)
    1459                    
    1460                            .dwattr $C$DW$T$200, DW_AT_decl_file("C:/ti/workspace1/sensor_cc1350lp/Application/api_mac.h")
    1461                            .dwattr $C$DW$T$200, DW_AT_decl_line(0x1b2)
    1462                            .dwattr $C$DW$T$200, DW_AT_decl_column(0x01)
    1463                            .dwendtag $C$DW$T$200
    1464                    
    1465                    $C$DW$T$201     .dwtag  DW_TAG_typedef
    1466                            .dwattr $C$DW$T$201, DW_AT_name("ApiMac_beaconType_t")
    1467                            .dwattr $C$DW$T$201, DW_AT_type(*$C$DW$T$200)
    1468                            .dwattr $C$DW$T$201, DW_AT_language(DW_LANG_C)
    1469                            .dwattr $C$DW$T$201, DW_AT_decl_file("C:/ti/workspace1/sensor_cc1350lp/Application/api_mac.h")
    1470                            .dwattr $C$DW$T$201, DW_AT_decl_line(0x1b7)
    1471                            .dwattr $C$DW$T$201, DW_AT_decl_column(0x03)
    1472                    
    1473                    
    1474                    $C$DW$T$349     .dwtag  DW_TAG_enumeration_type
    1475                            .dwattr $C$DW$T$349, DW_AT_byte_size(0x01)
    1476                    $C$DW$107       .dwtag  DW_TAG_enumerator
    1477                            .dwattr $C$DW$107, DW_AT_name("ApiMac_status_success")
    1478                            .dwattr $C$DW$107, DW_AT_const_value(0x00)
    1479                            .dwattr $C$DW$107, DW_AT_decl_file("C:/ti/workspace1/sensor_cc1350lp/Application/api_mac.h")
    1480                            .dwattr $C$DW$107, DW_AT_decl_line(0x1d7)
    1481                            .dwattr $C$DW$107, DW_AT_decl_column(0x05)
    1482                    
TI ARM Assembler PC v18.1.1 Wed Apr 25 09:49:08 2018

Tools Copyright (c) 1996-2017 Texas Instruments Incorporated
C:\Users\devops\AppData\Local\Temp\2\{0B978F18-9563-4BBD-B32F-32B01450AE46} PAGE   28

    1483                    $C$DW$108       .dwtag  DW_TAG_enumerator
    1484                            .dwattr $C$DW$108, DW_AT_name("ApiMac_status_subSystemError")
    1485                            .dwattr $C$DW$108, DW_AT_const_value(0x25)
    1486                            .dwattr $C$DW$108, DW_AT_decl_file("C:/ti/workspace1/sensor_cc1350lp/Application/api_mac.h")
    1487                            .dwattr $C$DW$108, DW_AT_decl_line(0x1d9)
    1488                            .dwattr $C$DW$108, DW_AT_decl_column(0x05)
    1489                    
    1490                    $C$DW$109       .dwtag  DW_TAG_enumerator
    1491                            .dwattr $C$DW$109, DW_AT_name("ApiMac_status_commandIDError")
    1492                            .dwattr $C$DW$109, DW_AT_const_value(0x26)
    1493                            .dwattr $C$DW$109, DW_AT_decl_file("C:/ti/workspace1/sensor_cc1350lp/Application/api_mac.h")
    1494                            .dwattr $C$DW$109, DW_AT_decl_line(0x1db)
    1495                            .dwattr $C$DW$109, DW_AT_decl_column(0x05)
    1496                    
    1497                    $C$DW$110       .dwtag  DW_TAG_enumerator
    1498                            .dwattr $C$DW$110, DW_AT_name("ApiMac_status_lengthError")
    1499                            .dwattr $C$DW$110, DW_AT_const_value(0x27)
    1500                            .dwattr $C$DW$110, DW_AT_decl_file("C:/ti/workspace1/sensor_cc1350lp/Application/api_mac.h")
    1501                            .dwattr $C$DW$110, DW_AT_decl_line(0x1dd)
    1502                            .dwattr $C$DW$110, DW_AT_decl_column(0x05)
    1503                    
    1504                    $C$DW$111       .dwtag  DW_TAG_enumerator
    1505                            .dwattr $C$DW$111, DW_AT_name("ApiMac_status_unsupportedType")
    1506                            .dwattr $C$DW$111, DW_AT_const_value(0x28)
    1507                            .dwattr $C$DW$111, DW_AT_decl_file("C:/ti/workspace1/sensor_cc1350lp/Application/api_mac.h")
    1508                            .dwattr $C$DW$111, DW_AT_decl_line(0x1df)
    1509                            .dwattr $C$DW$111, DW_AT_decl_column(0x05)
    1510                    
    1511                    $C$DW$112       .dwtag  DW_TAG_enumerator
    1512                            .dwattr $C$DW$112, DW_AT_name("ApiMac_status_autoAckPendingAllOn")
    1513                            .dwattr $C$DW$112, DW_AT_const_value(0xfe)
    1514                            .dwattr $C$DW$112, DW_AT_decl_file("C:/ti/workspace1/sensor_cc1350lp/Application/api_mac.h")
    1515                            .dwattr $C$DW$112, DW_AT_decl_line(0x1e1)
    1516                            .dwattr $C$DW$112, DW_AT_decl_column(0x05)
    1517                    
    1518                    $C$DW$113       .dwtag  DW_TAG_enumerator
    1519                            .dwattr $C$DW$113, DW_AT_name("ApiMac_status_autoAckPendingAllOff")
    1520                            .dwattr $C$DW$113, DW_AT_const_value(0xff)
    1521                            .dwattr $C$DW$113, DW_AT_decl_file("C:/ti/workspace1/sensor_cc1350lp/Application/api_mac.h")
    1522                            .dwattr $C$DW$113, DW_AT_decl_line(0x1e3)
    1523                            .dwattr $C$DW$113, DW_AT_decl_column(0x05)
    1524                    
    1525                    $C$DW$114       .dwtag  DW_TAG_enumerator
    1526                            .dwattr $C$DW$114, DW_AT_name("ApiMac_status_beaconLoss")
    1527                            .dwattr $C$DW$114, DW_AT_const_value(0xe0)
    1528                            .dwattr $C$DW$114, DW_AT_decl_file("C:/ti/workspace1/sensor_cc1350lp/Application/api_mac.h")
    1529                            .dwattr $C$DW$114, DW_AT_decl_line(0x1e5)
    1530                            .dwattr $C$DW$114, DW_AT_decl_column(0x05)
    1531                    
    1532                    $C$DW$115       .dwtag  DW_TAG_enumerator
    1533                            .dwattr $C$DW$115, DW_AT_name("ApiMac_status_channelAccessFailure")
    1534                            .dwattr $C$DW$115, DW_AT_const_value(0xe1)
    1535                            .dwattr $C$DW$115, DW_AT_decl_file("C:/ti/workspace1/sensor_cc1350lp/Application/api_mac.h")
    1536                            .dwattr $C$DW$115, DW_AT_decl_line(0x1e9)
    1537                            .dwattr $C$DW$115, DW_AT_decl_column(0x05)
TI ARM Assembler PC v18.1.1 Wed Apr 25 09:49:08 2018

Tools Copyright (c) 1996-2017 Texas Instruments Incorporated
C:\Users\devops\AppData\Local\Temp\2\{0B978F18-9563-4BBD-B32F-32B01450AE46} PAGE   29

    1538                    
    1539                    $C$DW$116       .dwtag  DW_TAG_enumerator
    1540                            .dwattr $C$DW$116, DW_AT_name("ApiMac_status_counterError")
    1541                            .dwattr $C$DW$116, DW_AT_const_value(0xdb)
    1542                            .dwattr $C$DW$116, DW_AT_decl_file("C:/ti/workspace1/sensor_cc1350lp/Application/api_mac.h")
    1543                            .dwattr $C$DW$116, DW_AT_decl_line(0x1ee)
    1544                            .dwattr $C$DW$116, DW_AT_decl_column(0x05)
    1545                    
    1546                    $C$DW$117       .dwtag  DW_TAG_enumerator
    1547                            .dwattr $C$DW$117, DW_AT_name("ApiMac_status_denied")
    1548                            .dwattr $C$DW$117, DW_AT_const_value(0xe2)
    1549                            .dwattr $C$DW$117, DW_AT_decl_file("C:/ti/workspace1/sensor_cc1350lp/Application/api_mac.h")
    1550                            .dwattr $C$DW$117, DW_AT_decl_line(0x1f0)
    1551                            .dwattr $C$DW$117, DW_AT_decl_column(0x05)
    1552                    
    1553                    $C$DW$118       .dwtag  DW_TAG_enumerator
    1554                            .dwattr $C$DW$118, DW_AT_name("ApiMac_status_disabledTrxFailure")
    1555                            .dwattr $C$DW$118, DW_AT_const_value(0xe3)
    1556                            .dwattr $C$DW$118, DW_AT_decl_file("C:/ti/workspace1/sensor_cc1350lp/Application/api_mac.h")
    1557                            .dwattr $C$DW$118, DW_AT_decl_line(0x1f2)
    1558                            .dwattr $C$DW$118, DW_AT_decl_column(0x05)
    1559                    
    1560                    $C$DW$119       .dwtag  DW_TAG_enumerator
    1561                            .dwattr $C$DW$119, DW_AT_name("ApiMac_status_frameTooLong")
    1562                            .dwattr $C$DW$119, DW_AT_const_value(0xe5)
    1563                            .dwattr $C$DW$119, DW_AT_decl_file("C:/ti/workspace1/sensor_cc1350lp/Application/api_mac.h")
    1564                            .dwattr $C$DW$119, DW_AT_decl_line(0x1f7)
    1565                            .dwattr $C$DW$119, DW_AT_decl_column(0x05)
    1566                    
    1567                    $C$DW$120       .dwtag  DW_TAG_enumerator
    1568                            .dwattr $C$DW$120, DW_AT_name("ApiMac_status_improperKeyType")
    1569                            .dwattr $C$DW$120, DW_AT_const_value(0xdc)
    1570                            .dwattr $C$DW$120, DW_AT_decl_file("C:/ti/workspace1/sensor_cc1350lp/Application/api_mac.h")
    1571                            .dwattr $C$DW$120, DW_AT_decl_line(0x1fc)
    1572                            .dwattr $C$DW$120, DW_AT_decl_column(0x05)
    1573                    
    1574                    $C$DW$121       .dwtag  DW_TAG_enumerator
    1575                            .dwattr $C$DW$121, DW_AT_name("ApiMac_status_improperSecurityLevel")
    1576                            .dwattr $C$DW$121, DW_AT_const_value(0xdd)
    1577                            .dwattr $C$DW$121, DW_AT_decl_file("C:/ti/workspace1/sensor_cc1350lp/Application/api_mac.h")
    1578                            .dwattr $C$DW$121, DW_AT_decl_line(0x201)
    1579                            .dwattr $C$DW$121, DW_AT_decl_column(0x05)
    1580                    
    1581                    $C$DW$122       .dwtag  DW_TAG_enumerator
    1582                            .dwattr $C$DW$122, DW_AT_name("ApiMac_status_invalidAddress")
    1583                            .dwattr $C$DW$122, DW_AT_const_value(0xf5)
    1584                            .dwattr $C$DW$122, DW_AT_decl_file("C:/ti/workspace1/sensor_cc1350lp/Application/api_mac.h")
    1585                            .dwattr $C$DW$122, DW_AT_decl_line(0x206)
    1586                            .dwattr $C$DW$122, DW_AT_decl_column(0x05)
    1587                    
    1588                    $C$DW$123       .dwtag  DW_TAG_enumerator
    1589                            .dwattr $C$DW$123, DW_AT_name("ApiMac_status_invalidGts")
    1590                            .dwattr $C$DW$123, DW_AT_const_value(0xe6)
    1591                            .dwattr $C$DW$123, DW_AT_decl_file("C:/ti/workspace1/sensor_cc1350lp/Application/api_mac.h")
    1592                            .dwattr $C$DW$123, DW_AT_decl_line(0x208)
TI ARM Assembler PC v18.1.1 Wed Apr 25 09:49:08 2018

Tools Copyright (c) 1996-2017 Texas Instruments Incorporated
C:\Users\devops\AppData\Local\Temp\2\{0B978F18-9563-4BBD-B32F-32B01450AE46} PAGE   30

    1593                            .dwattr $C$DW$123, DW_AT_decl_column(0x05)
    1594                    
    1595                    $C$DW$124       .dwtag  DW_TAG_enumerator
    1596                            .dwattr $C$DW$124, DW_AT_name("ApiMac_status_invalidHandle")
    1597                            .dwattr $C$DW$124, DW_AT_const_value(0xe7)
    1598                            .dwattr $C$DW$124, DW_AT_decl_file("C:/ti/workspace1/sensor_cc1350lp/Application/api_mac.h")
    1599                            .dwattr $C$DW$124, DW_AT_decl_line(0x20a)
    1600                            .dwattr $C$DW$124, DW_AT_decl_column(0x05)
    1601                    
    1602                    $C$DW$125       .dwtag  DW_TAG_enumerator
    1603                            .dwattr $C$DW$125, DW_AT_name("ApiMac_status_invalidIndex")
    1604                            .dwattr $C$DW$125, DW_AT_const_value(0xf9)
    1605                            .dwattr $C$DW$125, DW_AT_decl_file("C:/ti/workspace1/sensor_cc1350lp/Application/api_mac.h")
    1606                            .dwattr $C$DW$125, DW_AT_decl_line(0x20c)
    1607                            .dwattr $C$DW$125, DW_AT_decl_column(0x05)
    1608                    
    1609                    $C$DW$126       .dwtag  DW_TAG_enumerator
    1610                            .dwattr $C$DW$126, DW_AT_name("ApiMac_status_invalidParameter")
    1611                            .dwattr $C$DW$126, DW_AT_const_value(0xe8)
    1612                            .dwattr $C$DW$126, DW_AT_decl_file("C:/ti/workspace1/sensor_cc1350lp/Application/api_mac.h")
    1613                            .dwattr $C$DW$126, DW_AT_decl_line(0x20e)
    1614                            .dwattr $C$DW$126, DW_AT_decl_column(0x05)
    1615                    
    1616                    $C$DW$127       .dwtag  DW_TAG_enumerator
    1617                            .dwattr $C$DW$127, DW_AT_name("ApiMac_status_limitReached")
    1618                            .dwattr $C$DW$127, DW_AT_const_value(0xfa)
    1619                            .dwattr $C$DW$127, DW_AT_decl_file("C:/ti/workspace1/sensor_cc1350lp/Application/api_mac.h")
    1620                            .dwattr $C$DW$127, DW_AT_decl_line(0x213)
    1621                            .dwattr $C$DW$127, DW_AT_decl_column(0x05)
    1622                    
    1623                    $C$DW$128       .dwtag  DW_TAG_enumerator
    1624                            .dwattr $C$DW$128, DW_AT_name("ApiMac_status_noAck")
    1625                            .dwattr $C$DW$128, DW_AT_const_value(0xe9)
    1626                            .dwattr $C$DW$128, DW_AT_decl_file("C:/ti/workspace1/sensor_cc1350lp/Application/api_mac.h")
    1627                            .dwattr $C$DW$128, DW_AT_decl_line(0x218)
    1628                            .dwattr $C$DW$128, DW_AT_decl_column(0x05)
    1629                    
    1630                    $C$DW$129       .dwtag  DW_TAG_enumerator
    1631                            .dwattr $C$DW$129, DW_AT_name("ApiMac_status_noBeacon")
    1632                            .dwattr $C$DW$129, DW_AT_const_value(0xea)
    1633                            .dwattr $C$DW$129, DW_AT_decl_file("C:/ti/workspace1/sensor_cc1350lp/Application/api_mac.h")
    1634                            .dwattr $C$DW$129, DW_AT_decl_line(0x21d)
    1635                            .dwattr $C$DW$129, DW_AT_decl_column(0x05)
    1636                    
    1637                    $C$DW$130       .dwtag  DW_TAG_enumerator
    1638                            .dwattr $C$DW$130, DW_AT_name("ApiMac_status_noData")
    1639                            .dwattr $C$DW$130, DW_AT_const_value(0xeb)
    1640                            .dwattr $C$DW$130, DW_AT_decl_file("C:/ti/workspace1/sensor_cc1350lp/Application/api_mac.h")
    1641                            .dwattr $C$DW$130, DW_AT_decl_line(0x222)
    1642                            .dwattr $C$DW$130, DW_AT_decl_column(0x05)
    1643                    
    1644                    $C$DW$131       .dwtag  DW_TAG_enumerator
    1645                            .dwattr $C$DW$131, DW_AT_name("ApiMac_status_noShortAddress")
    1646                            .dwattr $C$DW$131, DW_AT_const_value(0xec)
    1647                            .dwattr $C$DW$131, DW_AT_decl_file("C:/ti/workspace1/sensor_cc1350lp/Application/api_mac.h")
TI ARM Assembler PC v18.1.1 Wed Apr 25 09:49:08 2018

Tools Copyright (c) 1996-2017 Texas Instruments Incorporated
C:\Users\devops\AppData\Local\Temp\2\{0B978F18-9563-4BBD-B32F-32B01450AE46} PAGE   31

    1648                            .dwattr $C$DW$131, DW_AT_decl_line(0x224)
    1649                            .dwattr $C$DW$131, DW_AT_decl_column(0x05)
    1650                    
    1651                    $C$DW$132       .dwtag  DW_TAG_enumerator
    1652                            .dwattr $C$DW$132, DW_AT_name("ApiMac_status_onTimeTooLong")
    1653                            .dwattr $C$DW$132, DW_AT_const_value(0xf6)
    1654                            .dwattr $C$DW$132, DW_AT_decl_file("C:/ti/workspace1/sensor_cc1350lp/Application/api_mac.h")
    1655                            .dwattr $C$DW$132, DW_AT_decl_line(0x226)
    1656                            .dwattr $C$DW$132, DW_AT_decl_column(0x05)
    1657                    
    1658                    $C$DW$133       .dwtag  DW_TAG_enumerator
    1659                            .dwattr $C$DW$133, DW_AT_name("ApiMac_status_outOfCap")
    1660                            .dwattr $C$DW$133, DW_AT_const_value(0xed)
    1661                            .dwattr $C$DW$133, DW_AT_decl_file("C:/ti/workspace1/sensor_cc1350lp/Application/api_mac.h")
    1662                            .dwattr $C$DW$133, DW_AT_decl_line(0x228)
    1663                            .dwattr $C$DW$133, DW_AT_decl_column(0x05)
    1664                    
    1665                    $C$DW$134       .dwtag  DW_TAG_enumerator
    1666                            .dwattr $C$DW$134, DW_AT_name("ApiMac_status_panIdConflict")
    1667                            .dwattr $C$DW$134, DW_AT_const_value(0xee)
    1668                            .dwattr $C$DW$134, DW_AT_decl_file("C:/ti/workspace1/sensor_cc1350lp/Application/api_mac.h")
    1669                            .dwattr $C$DW$134, DW_AT_decl_line(0x22d)
    1670                            .dwattr $C$DW$134, DW_AT_decl_column(0x05)
    1671                    
    1672                    $C$DW$135       .dwtag  DW_TAG_enumerator
    1673                            .dwattr $C$DW$135, DW_AT_name("ApiMac_status_pastTime")
    1674                            .dwattr $C$DW$135, DW_AT_const_value(0xf7)
    1675                            .dwattr $C$DW$135, DW_AT_decl_file("C:/ti/workspace1/sensor_cc1350lp/Application/api_mac.h")
    1676                            .dwattr $C$DW$135, DW_AT_decl_line(0x22f)
    1677                            .dwattr $C$DW$135, DW_AT_decl_column(0x05)
    1678                    
    1679                    $C$DW$136       .dwtag  DW_TAG_enumerator
    1680                            .dwattr $C$DW$136, DW_AT_name("ApiMac_status_readOnly")
    1681                            .dwattr $C$DW$136, DW_AT_const_value(0xfb)
    1682                            .dwattr $C$DW$136, DW_AT_decl_file("C:/ti/workspace1/sensor_cc1350lp/Application/api_mac.h")
    1683                            .dwattr $C$DW$136, DW_AT_decl_line(0x231)
    1684                            .dwattr $C$DW$136, DW_AT_decl_column(0x05)
    1685                    
    1686                    $C$DW$137       .dwtag  DW_TAG_enumerator
    1687                            .dwattr $C$DW$137, DW_AT_name("ApiMac_status_realignment")
    1688                            .dwattr $C$DW$137, DW_AT_const_value(0xef)
    1689                            .dwattr $C$DW$137, DW_AT_decl_file("C:/ti/workspace1/sensor_cc1350lp/Application/api_mac.h")
    1690                            .dwattr $C$DW$137, DW_AT_decl_line(0x233)
    1691                            .dwattr $C$DW$137, DW_AT_decl_column(0x05)
    1692                    
    1693                    $C$DW$138       .dwtag  DW_TAG_enumerator
    1694                            .dwattr $C$DW$138, DW_AT_name("ApiMac_status_scanInProgress")
    1695                            .dwattr $C$DW$138, DW_AT_const_value(0xfc)
    1696                            .dwattr $C$DW$138, DW_AT_decl_file("C:/ti/workspace1/sensor_cc1350lp/Application/api_mac.h")
    1697                            .dwattr $C$DW$138, DW_AT_decl_line(0x235)
    1698                            .dwattr $C$DW$138, DW_AT_decl_column(0x05)
    1699                    
    1700                    $C$DW$139       .dwtag  DW_TAG_enumerator
    1701                            .dwattr $C$DW$139, DW_AT_name("ApiMac_status_securityError")
    1702                            .dwattr $C$DW$139, DW_AT_const_value(0xe4)
TI ARM Assembler PC v18.1.1 Wed Apr 25 09:49:08 2018

Tools Copyright (c) 1996-2017 Texas Instruments Incorporated
C:\Users\devops\AppData\Local\Temp\2\{0B978F18-9563-4BBD-B32F-32B01450AE46} PAGE   32

    1703                            .dwattr $C$DW$139, DW_AT_decl_file("C:/ti/workspace1/sensor_cc1350lp/Application/api_mac.h")
    1704                            .dwattr $C$DW$139, DW_AT_decl_line(0x237)
    1705                            .dwattr $C$DW$139, DW_AT_decl_column(0x05)
    1706                    
    1707                    $C$DW$140       .dwtag  DW_TAG_enumerator
    1708                            .dwattr $C$DW$140, DW_AT_name("ApiMac_status_superframeOverlap")
    1709                            .dwattr $C$DW$140, DW_AT_const_value(0xfd)
    1710                            .dwattr $C$DW$140, DW_AT_decl_file("C:/ti/workspace1/sensor_cc1350lp/Application/api_mac.h")
    1711                            .dwattr $C$DW$140, DW_AT_decl_line(0x239)
    1712                            .dwattr $C$DW$140, DW_AT_decl_column(0x05)
    1713                    
    1714                    $C$DW$141       .dwtag  DW_TAG_enumerator
    1715                            .dwattr $C$DW$141, DW_AT_name("ApiMac_status_trackingOff")
    1716                            .dwattr $C$DW$141, DW_AT_const_value(0xf8)
    1717                            .dwattr $C$DW$141, DW_AT_decl_file("C:/ti/workspace1/sensor_cc1350lp/Application/api_mac.h")
    1718                            .dwattr $C$DW$141, DW_AT_decl_line(0x23e)
    1719                            .dwattr $C$DW$141, DW_AT_decl_column(0x05)
    1720                    
    1721                    $C$DW$142       .dwtag  DW_TAG_enumerator
    1722                            .dwattr $C$DW$142, DW_AT_name("ApiMac_status_transactionExpired")
    1723                            .dwattr $C$DW$142, DW_AT_const_value(0xf0)
    1724                            .dwattr $C$DW$142, DW_AT_decl_file("C:/ti/workspace1/sensor_cc1350lp/Application/api_mac.h")
    1725                            .dwattr $C$DW$142, DW_AT_decl_line(0x244)
    1726                            .dwattr $C$DW$142, DW_AT_decl_column(0x05)
    1727                    
    1728                    $C$DW$143       .dwtag  DW_TAG_enumerator
    1729                            .dwattr $C$DW$143, DW_AT_name("ApiMac_status_transactionOverflow")
    1730                            .dwattr $C$DW$143, DW_AT_const_value(0xf1)
    1731                            .dwattr $C$DW$143, DW_AT_decl_file("C:/ti/workspace1/sensor_cc1350lp/Application/api_mac.h")
    1732                            .dwattr $C$DW$143, DW_AT_decl_line(0x246)
    1733                            .dwattr $C$DW$143, DW_AT_decl_column(0x05)
    1734                    
    1735                    $C$DW$144       .dwtag  DW_TAG_enumerator
    1736                            .dwattr $C$DW$144, DW_AT_name("ApiMac_status_txActive")
    1737                            .dwattr $C$DW$144, DW_AT_const_value(0xf2)
    1738                            .dwattr $C$DW$144, DW_AT_decl_file("C:/ti/workspace1/sensor_cc1350lp/Application/api_mac.h")
    1739                            .dwattr $C$DW$144, DW_AT_decl_line(0x248)
    1740                            .dwattr $C$DW$144, DW_AT_decl_column(0x05)
    1741                    
    1742                    $C$DW$145       .dwtag  DW_TAG_enumerator
    1743                            .dwattr $C$DW$145, DW_AT_name("ApiMac_status_unavailableKey")
    1744                            .dwattr $C$DW$145, DW_AT_const_value(0xf3)
    1745                            .dwattr $C$DW$145, DW_AT_decl_file("C:/ti/workspace1/sensor_cc1350lp/Application/api_mac.h")
    1746                            .dwattr $C$DW$145, DW_AT_decl_line(0x24d)
    1747                            .dwattr $C$DW$145, DW_AT_decl_column(0x05)
    1748                    
    1749                    $C$DW$146       .dwtag  DW_TAG_enumerator
    1750                            .dwattr $C$DW$146, DW_AT_name("ApiMac_status_unsupportedAttribute")
    1751                            .dwattr $C$DW$146, DW_AT_const_value(0xf4)
    1752                            .dwattr $C$DW$146, DW_AT_decl_file("C:/ti/workspace1/sensor_cc1350lp/Application/api_mac.h")
    1753                            .dwattr $C$DW$146, DW_AT_decl_line(0x24f)
    1754                            .dwattr $C$DW$146, DW_AT_decl_column(0x05)
    1755                    
    1756                    $C$DW$147       .dwtag  DW_TAG_enumerator
    1757                            .dwattr $C$DW$147, DW_AT_name("ApiMac_status_unsupportedLegacy")
TI ARM Assembler PC v18.1.1 Wed Apr 25 09:49:08 2018

Tools Copyright (c) 1996-2017 Texas Instruments Incorporated
C:\Users\devops\AppData\Local\Temp\2\{0B978F18-9563-4BBD-B32F-32B01450AE46} PAGE   33

    1758                            .dwattr $C$DW$147, DW_AT_const_value(0xde)
    1759                            .dwattr $C$DW$147, DW_AT_decl_file("C:/ti/workspace1/sensor_cc1350lp/Application/api_mac.h")
    1760                            .dwattr $C$DW$147, DW_AT_decl_line(0x254)
    1761                            .dwattr $C$DW$147, DW_AT_decl_column(0x05)
    1762                    
    1763                    $C$DW$148       .dwtag  DW_TAG_enumerator
    1764                            .dwattr $C$DW$148, DW_AT_name("ApiMac_status_unsupportedSecurity")
    1765                            .dwattr $C$DW$148, DW_AT_const_value(0xdf)
    1766                            .dwattr $C$DW$148, DW_AT_decl_file("C:/ti/workspace1/sensor_cc1350lp/Application/api_mac.h")
    1767                            .dwattr $C$DW$148, DW_AT_decl_line(0x256)
    1768                            .dwattr $C$DW$148, DW_AT_decl_column(0x05)
    1769                    
    1770                    $C$DW$149       .dwtag  DW_TAG_enumerator
    1771                            .dwattr $C$DW$149, DW_AT_name("ApiMac_status_unsupported")
    1772                            .dwattr $C$DW$149, DW_AT_const_value(0x18)
    1773                            .dwattr $C$DW$149, DW_AT_decl_file("C:/ti/workspace1/sensor_cc1350lp/Application/api_mac.h")
    1774                            .dwattr $C$DW$149, DW_AT_decl_line(0x258)
    1775                            .dwattr $C$DW$149, DW_AT_decl_column(0x05)
    1776                    
    1777                    $C$DW$150       .dwtag  DW_TAG_enumerator
    1778                            .dwattr $C$DW$150, DW_AT_name("ApiMac_status_badState")
    1779                            .dwattr $C$DW$150, DW_AT_const_value(0x19)
    1780                            .dwattr $C$DW$150, DW_AT_decl_file("C:/ti/workspace1/sensor_cc1350lp/Application/api_mac.h")
    1781                            .dwattr $C$DW$150, DW_AT_decl_line(0x25a)
    1782                            .dwattr $C$DW$150, DW_AT_decl_column(0x05)
    1783                    
    1784                    $C$DW$151       .dwtag  DW_TAG_enumerator
    1785                            .dwattr $C$DW$151, DW_AT_name("ApiMac_status_noResources")
    1786                            .dwattr $C$DW$151, DW_AT_const_value(0x1a)
    1787                            .dwattr $C$DW$151, DW_AT_decl_file("C:/ti/workspace1/sensor_cc1350lp/Application/api_mac.h")
    1788                            .dwattr $C$DW$151, DW_AT_decl_line(0x25f)
    1789                            .dwattr $C$DW$151, DW_AT_decl_column(0x05)
    1790                    
    1791                    $C$DW$152       .dwtag  DW_TAG_enumerator
    1792                            .dwattr $C$DW$152, DW_AT_name("ApiMac_status_ackPending")
    1793                            .dwattr $C$DW$152, DW_AT_const_value(0x1b)
    1794                            .dwattr $C$DW$152, DW_AT_decl_file("C:/ti/workspace1/sensor_cc1350lp/Application/api_mac.h")
    1795                            .dwattr $C$DW$152, DW_AT_decl_line(0x261)
    1796                            .dwattr $C$DW$152, DW_AT_decl_column(0x05)
    1797                    
    1798                    $C$DW$153       .dwtag  DW_TAG_enumerator
    1799                            .dwattr $C$DW$153, DW_AT_name("ApiMac_status_noTime")
    1800                            .dwattr $C$DW$153, DW_AT_const_value(0x1c)
    1801                            .dwattr $C$DW$153, DW_AT_decl_file("C:/ti/workspace1/sensor_cc1350lp/Application/api_mac.h")
    1802                            .dwattr $C$DW$153, DW_AT_decl_line(0x263)
    1803                            .dwattr $C$DW$153, DW_AT_decl_column(0x05)
    1804                    
    1805                    $C$DW$154       .dwtag  DW_TAG_enumerator
    1806                            .dwattr $C$DW$154, DW_AT_name("ApiMac_status_txAborted")
    1807                            .dwattr $C$DW$154, DW_AT_const_value(0x1d)
    1808                            .dwattr $C$DW$154, DW_AT_decl_file("C:/ti/workspace1/sensor_cc1350lp/Application/api_mac.h")
    1809                            .dwattr $C$DW$154, DW_AT_decl_line(0x265)
    1810                            .dwattr $C$DW$154, DW_AT_decl_column(0x05)
    1811                    
    1812                    $C$DW$155       .dwtag  DW_TAG_enumerator
TI ARM Assembler PC v18.1.1 Wed Apr 25 09:49:08 2018

Tools Copyright (c) 1996-2017 Texas Instruments Incorporated
C:\Users\devops\AppData\Local\Temp\2\{0B978F18-9563-4BBD-B32F-32B01450AE46} PAGE   34

    1813                            .dwattr $C$DW$155, DW_AT_name("ApiMac_status_duplicateEntry")
    1814                            .dwattr $C$DW$155, DW_AT_const_value(0x1e)
    1815                            .dwattr $C$DW$155, DW_AT_decl_file("C:/ti/workspace1/sensor_cc1350lp/Application/api_mac.h")
    1816                            .dwattr $C$DW$155, DW_AT_decl_line(0x26a)
    1817                            .dwattr $C$DW$155, DW_AT_decl_column(0x05)
    1818                    
    1819                    $C$DW$156       .dwtag  DW_TAG_enumerator
    1820                            .dwattr $C$DW$156, DW_AT_name("ApiMac_status_fhError")
    1821                            .dwattr $C$DW$156, DW_AT_const_value(0x61)
    1822                            .dwattr $C$DW$156, DW_AT_decl_file("C:/ti/workspace1/sensor_cc1350lp/Application/api_mac.h")
    1823                            .dwattr $C$DW$156, DW_AT_decl_line(0x26c)
    1824                            .dwattr $C$DW$156, DW_AT_decl_column(0x05)
    1825                    
    1826                    $C$DW$157       .dwtag  DW_TAG_enumerator
    1827                            .dwattr $C$DW$157, DW_AT_name("ApiMac_status_fhIeNotSupported")
    1828                            .dwattr $C$DW$157, DW_AT_const_value(0x62)
    1829                            .dwattr $C$DW$157, DW_AT_decl_file("C:/ti/workspace1/sensor_cc1350lp/Application/api_mac.h")
    1830                            .dwattr $C$DW$157, DW_AT_decl_line(0x26e)
    1831                            .dwattr $C$DW$157, DW_AT_decl_column(0x05)
    1832                    
    1833                    $C$DW$158       .dwtag  DW_TAG_enumerator
    1834                            .dwattr $C$DW$158, DW_AT_name("ApiMac_status_fhNotInAsync")
    1835                            .dwattr $C$DW$158, DW_AT_const_value(0x63)
    1836                            .dwattr $C$DW$158, DW_AT_decl_file("C:/ti/workspace1/sensor_cc1350lp/Application/api_mac.h")
    1837                            .dwattr $C$DW$158, DW_AT_decl_line(0x270)
    1838                            .dwattr $C$DW$158, DW_AT_decl_column(0x05)
    1839                    
    1840                    $C$DW$159       .dwtag  DW_TAG_enumerator
    1841                            .dwattr $C$DW$159, DW_AT_name("ApiMac_status_fhNotInNeighborTable")
    1842                            .dwattr $C$DW$159, DW_AT_const_value(0x64)
    1843                            .dwattr $C$DW$159, DW_AT_decl_file("C:/ti/workspace1/sensor_cc1350lp/Application/api_mac.h")
    1844                            .dwattr $C$DW$159, DW_AT_decl_line(0x272)
    1845                            .dwattr $C$DW$159, DW_AT_decl_column(0x05)
    1846                    
    1847                    $C$DW$160       .dwtag  DW_TAG_enumerator
    1848                            .dwattr $C$DW$160, DW_AT_name("ApiMac_status_fhOutSlot")
    1849                            .dwattr $C$DW$160, DW_AT_const_value(0x65)
    1850                            .dwattr $C$DW$160, DW_AT_decl_file("C:/ti/workspace1/sensor_cc1350lp/Application/api_mac.h")
    1851                            .dwattr $C$DW$160, DW_AT_decl_line(0x274)
    1852                            .dwattr $C$DW$160, DW_AT_decl_column(0x05)
    1853                    
    1854                    $C$DW$161       .dwtag  DW_TAG_enumerator
    1855                            .dwattr $C$DW$161, DW_AT_name("ApiMac_status_fhInvalidAddress")
    1856                            .dwattr $C$DW$161, DW_AT_const_value(0x66)
    1857                            .dwattr $C$DW$161, DW_AT_decl_file("C:/ti/workspace1/sensor_cc1350lp/Application/api_mac.h")
    1858                            .dwattr $C$DW$161, DW_AT_decl_line(0x276)
    1859                            .dwattr $C$DW$161, DW_AT_decl_column(0x05)
    1860                    
    1861                    $C$DW$162       .dwtag  DW_TAG_enumerator
    1862                            .dwattr $C$DW$162, DW_AT_name("ApiMac_status_fhIeFormatInvalid")
    1863                            .dwattr $C$DW$162, DW_AT_const_value(0x67)
    1864                            .dwattr $C$DW$162, DW_AT_decl_file("C:/ti/workspace1/sensor_cc1350lp/Application/api_mac.h")
    1865                            .dwattr $C$DW$162, DW_AT_decl_line(0x278)
    1866                            .dwattr $C$DW$162, DW_AT_decl_column(0x05)
    1867                    
TI ARM Assembler PC v18.1.1 Wed Apr 25 09:49:08 2018

Tools Copyright (c) 1996-2017 Texas Instruments Incorporated
C:\Users\devops\AppData\Local\Temp\2\{0B978F18-9563-4BBD-B32F-32B01450AE46} PAGE   35

    1868                    $C$DW$163       .dwtag  DW_TAG_enumerator
    1869                            .dwattr $C$DW$163, DW_AT_name("ApiMac_status_fhPibNotSupported")
    1870                            .dwattr $C$DW$163, DW_AT_const_value(0x68)
    1871                            .dwattr $C$DW$163, DW_AT_decl_file("C:/ti/workspace1/sensor_cc1350lp/Application/api_mac.h")
    1872                            .dwattr $C$DW$163, DW_AT_decl_line(0x27a)
    1873                            .dwattr $C$DW$163, DW_AT_decl_column(0x05)
    1874                    
    1875                    $C$DW$164       .dwtag  DW_TAG_enumerator
    1876                            .dwattr $C$DW$164, DW_AT_name("ApiMac_status_fhPibReadOnly")
    1877                            .dwattr $C$DW$164, DW_AT_const_value(0x69)
    1878                            .dwattr $C$DW$164, DW_AT_decl_file("C:/ti/workspace1/sensor_cc1350lp/Application/api_mac.h")
    1879                            .dwattr $C$DW$164, DW_AT_decl_line(0x27c)
    1880                            .dwattr $C$DW$164, DW_AT_decl_column(0x05)
    1881                    
    1882                    $C$DW$165       .dwtag  DW_TAG_enumerator
    1883                            .dwattr $C$DW$165, DW_AT_name("ApiMac_status_fhPibInvalidParameter")
    1884                            .dwattr $C$DW$165, DW_AT_const_value(0x6a)
    1885                            .dwattr $C$DW$165, DW_AT_decl_file("C:/ti/workspace1/sensor_cc1350lp/Application/api_mac.h")
    1886                            .dwattr $C$DW$165, DW_AT_decl_line(0x27e)
    1887                            .dwattr $C$DW$165, DW_AT_decl_column(0x05)
    1888                    
    1889                    $C$DW$166       .dwtag  DW_TAG_enumerator
    1890                            .dwattr $C$DW$166, DW_AT_name("ApiMac_status_fhInvalidFrameType")
    1891                            .dwattr $C$DW$166, DW_AT_const_value(0x6b)
    1892                            .dwattr $C$DW$166, DW_AT_decl_file("C:/ti/workspace1/sensor_cc1350lp/Application/api_mac.h")
    1893                            .dwattr $C$DW$166, DW_AT_decl_line(0x280)
    1894                            .dwattr $C$DW$166, DW_AT_decl_column(0x05)
    1895                    
    1896                    $C$DW$167       .dwtag  DW_TAG_enumerator
    1897                            .dwattr $C$DW$167, DW_AT_name("ApiMac_status_fhExpiredNode")
    1898                            .dwattr $C$DW$167, DW_AT_const_value(0x6c)
    1899                            .dwattr $C$DW$167, DW_AT_decl_file("C:/ti/workspace1/sensor_cc1350lp/Application/api_mac.h")
    1900                            .dwattr $C$DW$167, DW_AT_decl_line(0x282)
    1901                            .dwattr $C$DW$167, DW_AT_decl_column(0x05)
    1902                    
    1903                    $C$DW$168       .dwtag  DW_TAG_enumerator
    1904                            .dwattr $C$DW$168, DW_AT_name("ApiMac_status_fhNoPatch")
    1905                            .dwattr $C$DW$168, DW_AT_const_value(0x6d)
    1906                            .dwattr $C$DW$168, DW_AT_decl_file("C:/ti/workspace1/sensor_cc1350lp/Application/api_mac.h")
    1907                            .dwattr $C$DW$168, DW_AT_decl_line(0x284)
    1908                            .dwattr $C$DW$168, DW_AT_decl_column(0x05)
    1909                    
    1910                            .dwattr $C$DW$T$349, DW_AT_decl_file("C:/ti/workspace1/sensor_cc1350lp/Application/api_mac.h")
    1911                            .dwattr $C$DW$T$349, DW_AT_decl_line(0x1d5)
    1912                            .dwattr $C$DW$T$349, DW_AT_decl_column(0x01)
    1913                            .dwendtag $C$DW$T$349
    1914                    
    1915                    $C$DW$T$350     .dwtag  DW_TAG_typedef
    1916                            .dwattr $C$DW$T$350, DW_AT_name("ApiMac_status_t")
    1917                            .dwattr $C$DW$T$350, DW_AT_type(*$C$DW$T$349)
    1918                            .dwattr $C$DW$T$350, DW_AT_language(DW_LANG_C)
    1919                            .dwattr $C$DW$T$350, DW_AT_decl_file("C:/ti/workspace1/sensor_cc1350lp/Application/api_mac.h")
    1920                            .dwattr $C$DW$T$350, DW_AT_decl_line(0x285)
    1921                            .dwattr $C$DW$T$350, DW_AT_decl_column(0x03)
    1922                    
TI ARM Assembler PC v18.1.1 Wed Apr 25 09:49:08 2018

Tools Copyright (c) 1996-2017 Texas Instruments Incorporated
C:\Users\devops\AppData\Local\Temp\2\{0B978F18-9563-4BBD-B32F-32B01450AE46} PAGE   36

    1923                    
    1924                    $C$DW$T$354     .dwtag  DW_TAG_enumeration_type
    1925                            .dwattr $C$DW$T$354, DW_AT_byte_size(0x01)
    1926                    $C$DW$169       .dwtag  DW_TAG_enumerator
    1927                            .dwattr $C$DW$169, DW_AT_name("ApiMac_fhFrameType_panAdvert")
    1928                            .dwattr $C$DW$169, DW_AT_const_value(0x00)
    1929                            .dwattr $C$DW$169, DW_AT_decl_file("C:/ti/workspace1/sensor_cc1350lp/Application/api_mac.h")
    1930                            .dwattr $C$DW$169, DW_AT_decl_line(0x44a)
    1931                            .dwattr $C$DW$169, DW_AT_decl_column(0x05)
    1932                    
    1933                    $C$DW$170       .dwtag  DW_TAG_enumerator
    1934                            .dwattr $C$DW$170, DW_AT_name("ApiMac_fhFrameType_panAdvertSolicit")
    1935                            .dwattr $C$DW$170, DW_AT_const_value(0x01)
    1936                            .dwattr $C$DW$170, DW_AT_decl_file("C:/ti/workspace1/sensor_cc1350lp/Application/api_mac.h")
    1937                            .dwattr $C$DW$170, DW_AT_decl_line(0x44c)
    1938                            .dwattr $C$DW$170, DW_AT_decl_column(0x05)
    1939                    
    1940                    $C$DW$171       .dwtag  DW_TAG_enumerator
    1941                            .dwattr $C$DW$171, DW_AT_name("ApiMac_fhFrameType_config")
    1942                            .dwattr $C$DW$171, DW_AT_const_value(0x02)
    1943                            .dwattr $C$DW$171, DW_AT_decl_file("C:/ti/workspace1/sensor_cc1350lp/Application/api_mac.h")
    1944                            .dwattr $C$DW$171, DW_AT_decl_line(0x44e)
    1945                            .dwattr $C$DW$171, DW_AT_decl_column(0x05)
    1946                    
    1947                    $C$DW$172       .dwtag  DW_TAG_enumerator
    1948                            .dwattr $C$DW$172, DW_AT_name("ApiMac_fhFrameType_configSolicit")
    1949                            .dwattr $C$DW$172, DW_AT_const_value(0x03)
    1950                            .dwattr $C$DW$172, DW_AT_decl_file("C:/ti/workspace1/sensor_cc1350lp/Application/api_mac.h")
    1951                            .dwattr $C$DW$172, DW_AT_decl_line(0x450)
    1952                            .dwattr $C$DW$172, DW_AT_decl_column(0x05)
    1953                    
    1954                    $C$DW$173       .dwtag  DW_TAG_enumerator
    1955                            .dwattr $C$DW$173, DW_AT_name("ApiMac_fhFrameType_data")
    1956                            .dwattr $C$DW$173, DW_AT_const_value(0x04)
    1957                            .dwattr $C$DW$173, DW_AT_decl_file("C:/ti/workspace1/sensor_cc1350lp/Application/api_mac.h")
    1958                            .dwattr $C$DW$173, DW_AT_decl_line(0x452)
    1959                            .dwattr $C$DW$173, DW_AT_decl_column(0x05)
    1960                    
    1961                    $C$DW$174       .dwtag  DW_TAG_enumerator
    1962                            .dwattr $C$DW$174, DW_AT_name("ApiMac_fhFrameType_ack")
    1963                            .dwattr $C$DW$174, DW_AT_const_value(0x05)
    1964                            .dwattr $C$DW$174, DW_AT_decl_file("C:/ti/workspace1/sensor_cc1350lp/Application/api_mac.h")
    1965                            .dwattr $C$DW$174, DW_AT_decl_line(0x454)
    1966                            .dwattr $C$DW$174, DW_AT_decl_column(0x05)
    1967                    
    1968                    $C$DW$175       .dwtag  DW_TAG_enumerator
    1969                            .dwattr $C$DW$175, DW_AT_name("ApiMac_fhFrameType_eapol")
    1970                            .dwattr $C$DW$175, DW_AT_const_value(0x06)
    1971                            .dwattr $C$DW$175, DW_AT_decl_file("C:/ti/workspace1/sensor_cc1350lp/Application/api_mac.h")
    1972                            .dwattr $C$DW$175, DW_AT_decl_line(0x456)
    1973                            .dwattr $C$DW$175, DW_AT_decl_column(0x05)
    1974                    
    1975                    $C$DW$176       .dwtag  DW_TAG_enumerator
    1976                            .dwattr $C$DW$176, DW_AT_name("ApiMac_fhFrameType_invalid")
    1977                            .dwattr $C$DW$176, DW_AT_const_value(0xff)
TI ARM Assembler PC v18.1.1 Wed Apr 25 09:49:08 2018

Tools Copyright (c) 1996-2017 Texas Instruments Incorporated
C:\Users\devops\AppData\Local\Temp\2\{0B978F18-9563-4BBD-B32F-32B01450AE46} PAGE   37

    1978                            .dwattr $C$DW$176, DW_AT_decl_file("C:/ti/workspace1/sensor_cc1350lp/Application/api_mac.h")
    1979                            .dwattr $C$DW$176, DW_AT_decl_line(0x458)
    1980                            .dwattr $C$DW$176, DW_AT_decl_column(0x05)
    1981                    
    1982                            .dwattr $C$DW$T$354, DW_AT_decl_file("C:/ti/workspace1/sensor_cc1350lp/Application/api_mac.h")
    1983                            .dwattr $C$DW$T$354, DW_AT_decl_line(0x448)
    1984                            .dwattr $C$DW$T$354, DW_AT_decl_column(0x01)
    1985                            .dwendtag $C$DW$T$354
    1986                    
    1987                    $C$DW$T$355     .dwtag  DW_TAG_typedef
    1988                            .dwattr $C$DW$T$355, DW_AT_name("ApiMac_fhFrameType_t")
    1989                            .dwattr $C$DW$T$355, DW_AT_type(*$C$DW$T$354)
    1990                            .dwattr $C$DW$T$355, DW_AT_language(DW_LANG_C)
    1991                            .dwattr $C$DW$T$355, DW_AT_decl_file("C:/ti/workspace1/sensor_cc1350lp/Application/api_mac.h")
    1992                            .dwattr $C$DW$T$355, DW_AT_decl_line(0x459)
    1993                            .dwattr $C$DW$T$355, DW_AT_decl_column(0x03)
    1994                    
    1995                    
    1996                    $C$DW$T$356     .dwtag  DW_TAG_enumeration_type
    1997                            .dwattr $C$DW$T$356, DW_AT_byte_size(0x01)
    1998                    $C$DW$177       .dwtag  DW_TAG_enumerator
    1999                            .dwattr $C$DW$177, DW_AT_name("ApiMac_fhDispatchType_none")
    2000                            .dwattr $C$DW$177, DW_AT_const_value(0x00)
    2001                            .dwattr $C$DW$177, DW_AT_decl_file("C:/ti/workspace1/sensor_cc1350lp/Application/api_mac.h")
    2002                            .dwattr $C$DW$177, DW_AT_decl_line(0x4c0)
    2003                            .dwattr $C$DW$177, DW_AT_decl_column(0x05)
    2004                    
    2005                    $C$DW$178       .dwtag  DW_TAG_enumerator
    2006                            .dwattr $C$DW$178, DW_AT_name("ApiMac_fhDispatchType_MHD_PDU")
    2007                            .dwattr $C$DW$178, DW_AT_const_value(0x01)
    2008                            .dwattr $C$DW$178, DW_AT_decl_file("C:/ti/workspace1/sensor_cc1350lp/Application/api_mac.h")
    2009                            .dwattr $C$DW$178, DW_AT_decl_line(0x4c2)
    2010                            .dwattr $C$DW$178, DW_AT_decl_column(0x05)
    2011                    
    2012                    $C$DW$179       .dwtag  DW_TAG_enumerator
    2013                            .dwattr $C$DW$179, DW_AT_name("ApiMac_fhDispatchType_6LowPAN")
    2014                            .dwattr $C$DW$179, DW_AT_const_value(0x02)
    2015                            .dwattr $C$DW$179, DW_AT_decl_file("C:/ti/workspace1/sensor_cc1350lp/Application/api_mac.h")
    2016                            .dwattr $C$DW$179, DW_AT_decl_line(0x4c4)
    2017                            .dwattr $C$DW$179, DW_AT_decl_column(0x05)
    2018                    
    2019                            .dwattr $C$DW$T$356, DW_AT_decl_file("C:/ti/workspace1/sensor_cc1350lp/Application/api_mac.h")
    2020                            .dwattr $C$DW$T$356, DW_AT_decl_line(0x4be)
    2021                            .dwattr $C$DW$T$356, DW_AT_decl_column(0x01)
    2022                            .dwendtag $C$DW$T$356
    2023                    
    2024                    $C$DW$T$357     .dwtag  DW_TAG_typedef
    2025                            .dwattr $C$DW$T$357, DW_AT_name("ApiMac_fhDispatchType_t")
    2026                            .dwattr $C$DW$T$357, DW_AT_type(*$C$DW$T$356)
    2027                            .dwattr $C$DW$T$357, DW_AT_language(DW_LANG_C)
    2028                            .dwattr $C$DW$T$357, DW_AT_decl_file("C:/ti/workspace1/sensor_cc1350lp/Application/api_mac.h")
    2029                            .dwattr $C$DW$T$357, DW_AT_decl_line(0x4c5)
    2030                            .dwattr $C$DW$T$357, DW_AT_decl_column(0x03)
    2031                    
    2032                    
TI ARM Assembler PC v18.1.1 Wed Apr 25 09:49:08 2018

Tools Copyright (c) 1996-2017 Texas Instruments Incorporated
C:\Users\devops\AppData\Local\Temp\2\{0B978F18-9563-4BBD-B32F-32B01450AE46} PAGE   38

    2033                    $C$DW$T$363     .dwtag  DW_TAG_enumeration_type
    2034                            .dwattr $C$DW$T$363, DW_AT_byte_size(0x01)
    2035                    $C$DW$180       .dwtag  DW_TAG_enumerator
    2036                            .dwattr $C$DW$180, DW_AT_name("ApiMac_assocStatus_success")
    2037                            .dwattr $C$DW$180, DW_AT_const_value(0x00)
    2038                            .dwattr $C$DW$180, DW_AT_decl_file("C:/ti/workspace1/sensor_cc1350lp/Application/api_mac.h")
    2039                            .dwattr $C$DW$180, DW_AT_decl_line(0x19c)
    2040                            .dwattr $C$DW$180, DW_AT_decl_column(0x05)
    2041                    
    2042                    $C$DW$181       .dwtag  DW_TAG_enumerator
    2043                            .dwattr $C$DW$181, DW_AT_name("ApiMac_assocStatus_panAtCapacity")
    2044                            .dwattr $C$DW$181, DW_AT_const_value(0x01)
    2045                            .dwattr $C$DW$181, DW_AT_decl_file("C:/ti/workspace1/sensor_cc1350lp/Application/api_mac.h")
    2046                            .dwattr $C$DW$181, DW_AT_decl_line(0x19e)
    2047                            .dwattr $C$DW$181, DW_AT_decl_column(0x05)
    2048                    
    2049                    $C$DW$182       .dwtag  DW_TAG_enumerator
    2050                            .dwattr $C$DW$182, DW_AT_name("ApiMac_assocStatus_panAccessDenied")
    2051                            .dwattr $C$DW$182, DW_AT_const_value(0x02)
    2052                            .dwattr $C$DW$182, DW_AT_decl_file("C:/ti/workspace1/sensor_cc1350lp/Application/api_mac.h")
    2053                            .dwattr $C$DW$182, DW_AT_decl_line(0x1a0)
    2054                            .dwattr $C$DW$182, DW_AT_decl_column(0x05)
    2055                    
    2056                            .dwattr $C$DW$T$363, DW_AT_decl_file("C:/ti/workspace1/sensor_cc1350lp/Application/api_mac.h")
    2057                            .dwattr $C$DW$T$363, DW_AT_decl_line(0x19a)
    2058                            .dwattr $C$DW$T$363, DW_AT_decl_column(0x01)
    2059                            .dwendtag $C$DW$T$363
    2060                    
    2061                    $C$DW$T$364     .dwtag  DW_TAG_typedef
    2062                            .dwattr $C$DW$T$364, DW_AT_name("ApiMac_assocStatus_t")
    2063                            .dwattr $C$DW$T$364, DW_AT_type(*$C$DW$T$363)
    2064                            .dwattr $C$DW$T$364, DW_AT_language(DW_LANG_C)
    2065                            .dwattr $C$DW$T$364, DW_AT_decl_file("C:/ti/workspace1/sensor_cc1350lp/Application/api_mac.h")
    2066                            .dwattr $C$DW$T$364, DW_AT_decl_line(0x1a1)
    2067                            .dwattr $C$DW$T$364, DW_AT_decl_column(0x03)
    2068                    
    2069                    
    2070                    $C$DW$T$368     .dwtag  DW_TAG_enumeration_type
    2071                            .dwattr $C$DW$T$368, DW_AT_byte_size(0x01)
    2072                    $C$DW$183       .dwtag  DW_TAG_enumerator
    2073                            .dwattr $C$DW$183, DW_AT_name("ApiMac_commStatusReason_assocRsp")
    2074                            .dwattr $C$DW$183, DW_AT_const_value(0x00)
    2075                            .dwattr $C$DW$183, DW_AT_decl_file("C:/ti/workspace1/sensor_cc1350lp/Application/api_mac.h")
    2076                            .dwattr $C$DW$183, DW_AT_decl_line(0x1c8)
    2077                            .dwattr $C$DW$183, DW_AT_decl_column(0x05)
    2078                    
    2079                    $C$DW$184       .dwtag  DW_TAG_enumerator
    2080                            .dwattr $C$DW$184, DW_AT_name("ApiMac_commStatusReason_orphanRsp")
    2081                            .dwattr $C$DW$184, DW_AT_const_value(0x01)
    2082                            .dwattr $C$DW$184, DW_AT_decl_file("C:/ti/workspace1/sensor_cc1350lp/Application/api_mac.h")
    2083                            .dwattr $C$DW$184, DW_AT_decl_line(0x1cc)
    2084                            .dwattr $C$DW$184, DW_AT_decl_column(0x05)
    2085                    
    2086                    $C$DW$185       .dwtag  DW_TAG_enumerator
    2087                            .dwattr $C$DW$185, DW_AT_name("ApiMac_commStatusReason_rxSecure")
TI ARM Assembler PC v18.1.1 Wed Apr 25 09:49:08 2018

Tools Copyright (c) 1996-2017 Texas Instruments Incorporated
C:\Users\devops\AppData\Local\Temp\2\{0B978F18-9563-4BBD-B32F-32B01450AE46} PAGE   39

    2088                            .dwattr $C$DW$185, DW_AT_const_value(0x02)
    2089                            .dwattr $C$DW$185, DW_AT_decl_file("C:/ti/workspace1/sensor_cc1350lp/Application/api_mac.h")
    2090                            .dwattr $C$DW$185, DW_AT_decl_line(0x1d0)
    2091                            .dwattr $C$DW$185, DW_AT_decl_column(0x05)
    2092                    
    2093                            .dwattr $C$DW$T$368, DW_AT_decl_file("C:/ti/workspace1/sensor_cc1350lp/Application/api_mac.h")
    2094                            .dwattr $C$DW$T$368, DW_AT_decl_line(0x1c4)
    2095                            .dwattr $C$DW$T$368, DW_AT_decl_column(0x01)
    2096                            .dwendtag $C$DW$T$368
    2097                    
    2098                    $C$DW$T$369     .dwtag  DW_TAG_typedef
    2099                            .dwattr $C$DW$T$369, DW_AT_name("ApiMac_commStatusReason_t")
    2100                            .dwattr $C$DW$T$369, DW_AT_type(*$C$DW$T$368)
    2101                            .dwattr $C$DW$T$369, DW_AT_language(DW_LANG_C)
    2102                            .dwattr $C$DW$T$369, DW_AT_decl_file("C:/ti/workspace1/sensor_cc1350lp/Application/api_mac.h")
    2103                            .dwattr $C$DW$T$369, DW_AT_decl_line(0x1d1)
    2104                            .dwattr $C$DW$T$369, DW_AT_decl_column(0x03)
    2105                    
    2106                    
    2107                    $C$DW$T$372     .dwtag  DW_TAG_enumeration_type
    2108                            .dwattr $C$DW$T$372, DW_AT_byte_size(0x01)
    2109                    $C$DW$186       .dwtag  DW_TAG_enumerator
    2110                            .dwattr $C$DW$186, DW_AT_name("ApiMac_disassocateReason_coord")
    2111                            .dwattr $C$DW$186, DW_AT_const_value(0x01)
    2112                            .dwattr $C$DW$186, DW_AT_decl_file("C:/ti/workspace1/sensor_cc1350lp/Application/api_mac.h")
    2113                            .dwattr $C$DW$186, DW_AT_decl_line(0x1bd)
    2114                            .dwattr $C$DW$186, DW_AT_decl_column(0x05)
    2115                    
    2116                    $C$DW$187       .dwtag  DW_TAG_enumerator
    2117                            .dwattr $C$DW$187, DW_AT_name("ApiMac_disassocateReason_device")
    2118                            .dwattr $C$DW$187, DW_AT_const_value(0x02)
    2119                            .dwattr $C$DW$187, DW_AT_decl_file("C:/ti/workspace1/sensor_cc1350lp/Application/api_mac.h")
    2120                            .dwattr $C$DW$187, DW_AT_decl_line(0x1bf)
    2121                            .dwattr $C$DW$187, DW_AT_decl_column(0x05)
    2122                    
    2123                            .dwattr $C$DW$T$372, DW_AT_decl_file("C:/ti/workspace1/sensor_cc1350lp/Application/api_mac.h")
    2124                            .dwattr $C$DW$T$372, DW_AT_decl_line(0x1bb)
    2125                            .dwattr $C$DW$T$372, DW_AT_decl_column(0x01)
    2126                            .dwendtag $C$DW$T$372
    2127                    
    2128                    $C$DW$T$373     .dwtag  DW_TAG_typedef
    2129                            .dwattr $C$DW$T$373, DW_AT_name("ApiMac_disassocateReason_t")
    2130                            .dwattr $C$DW$T$373, DW_AT_type(*$C$DW$T$372)
    2131                            .dwattr $C$DW$T$373, DW_AT_language(DW_LANG_C)
    2132                            .dwattr $C$DW$T$373, DW_AT_decl_file("C:/ti/workspace1/sensor_cc1350lp/Application/api_mac.h")
    2133                            .dwattr $C$DW$T$373, DW_AT_decl_line(0x1c0)
    2134                            .dwattr $C$DW$T$373, DW_AT_decl_column(0x03)
    2135                    
    2136                    
    2137                    $C$DW$T$381     .dwtag  DW_TAG_enumeration_type
    2138                            .dwattr $C$DW$T$381, DW_AT_byte_size(0x01)
    2139                    $C$DW$188       .dwtag  DW_TAG_enumerator
    2140                            .dwattr $C$DW$188, DW_AT_name("ApiMac_scantype_energyDetect")
    2141                            .dwattr $C$DW$188, DW_AT_const_value(0x00)
    2142                            .dwattr $C$DW$188, DW_AT_decl_file("C:/ti/workspace1/sensor_cc1350lp/Application/api_mac.h")
TI ARM Assembler PC v18.1.1 Wed Apr 25 09:49:08 2018

Tools Copyright (c) 1996-2017 Texas Instruments Incorporated
C:\Users\devops\AppData\Local\Temp\2\{0B978F18-9563-4BBD-B32F-32B01450AE46} PAGE   40

    2143                            .dwattr $C$DW$188, DW_AT_decl_line(0x48c)
    2144                            .dwattr $C$DW$188, DW_AT_decl_column(0x05)
    2145                    
    2146                    $C$DW$189       .dwtag  DW_TAG_enumerator
    2147                            .dwattr $C$DW$189, DW_AT_name("ApiMac_scantype_active")
    2148                            .dwattr $C$DW$189, DW_AT_const_value(0x01)
    2149                            .dwattr $C$DW$189, DW_AT_decl_file("C:/ti/workspace1/sensor_cc1350lp/Application/api_mac.h")
    2150                            .dwattr $C$DW$189, DW_AT_decl_line(0x492)
    2151                            .dwattr $C$DW$189, DW_AT_decl_column(0x05)
    2152                    
    2153                    $C$DW$190       .dwtag  DW_TAG_enumerator
    2154                            .dwattr $C$DW$190, DW_AT_name("ApiMac_scantype_passive")
    2155                            .dwattr $C$DW$190, DW_AT_const_value(0x02)
    2156                            .dwattr $C$DW$190, DW_AT_decl_file("C:/ti/workspace1/sensor_cc1350lp/Application/api_mac.h")
    2157                            .dwattr $C$DW$190, DW_AT_decl_line(0x497)
    2158                            .dwattr $C$DW$190, DW_AT_decl_column(0x05)
    2159                    
    2160                    $C$DW$191       .dwtag  DW_TAG_enumerator
    2161                            .dwattr $C$DW$191, DW_AT_name("ApiMac_scantype_orphan")
    2162                            .dwattr $C$DW$191, DW_AT_const_value(0x03)
    2163                            .dwattr $C$DW$191, DW_AT_decl_file("C:/ti/workspace1/sensor_cc1350lp/Application/api_mac.h")
    2164                            .dwattr $C$DW$191, DW_AT_decl_line(0x49d)
    2165                            .dwattr $C$DW$191, DW_AT_decl_column(0x05)
    2166                    
    2167                    $C$DW$192       .dwtag  DW_TAG_enumerator
    2168                            .dwattr $C$DW$192, DW_AT_name("ApiMac_scantype_activeEnhanced")
    2169                            .dwattr $C$DW$192, DW_AT_const_value(0x05)
    2170                            .dwattr $C$DW$192, DW_AT_decl_file("C:/ti/workspace1/sensor_cc1350lp/Application/api_mac.h")
    2171                            .dwattr $C$DW$192, DW_AT_decl_line(0x4a3)
    2172                            .dwattr $C$DW$192, DW_AT_decl_column(0x05)
    2173                    
    2174                            .dwattr $C$DW$T$381, DW_AT_decl_file("C:/ti/workspace1/sensor_cc1350lp/Application/api_mac.h")
    2175                            .dwattr $C$DW$T$381, DW_AT_decl_line(0x486)
    2176                            .dwattr $C$DW$T$381, DW_AT_decl_column(0x01)
    2177                            .dwendtag $C$DW$T$381
    2178                    
    2179                    $C$DW$T$382     .dwtag  DW_TAG_typedef
    2180                            .dwattr $C$DW$T$382, DW_AT_name("ApiMac_scantype_t")
    2181                            .dwattr $C$DW$T$382, DW_AT_type(*$C$DW$T$381)
    2182                            .dwattr $C$DW$T$382, DW_AT_language(DW_LANG_C)
    2183                            .dwattr $C$DW$T$382, DW_AT_decl_file("C:/ti/workspace1/sensor_cc1350lp/Application/api_mac.h")
    2184                            .dwattr $C$DW$T$382, DW_AT_decl_line(0x4a4)
    2185                            .dwattr $C$DW$T$382, DW_AT_decl_column(0x03)
    2186                    
    2187                    
    2188                    $C$DW$T$392     .dwtag  DW_TAG_enumeration_type
    2189                            .dwattr $C$DW$T$392, DW_AT_byte_size(0x01)
    2190                    $C$DW$193       .dwtag  DW_TAG_enumerator
    2191                            .dwattr $C$DW$193, DW_AT_name("ApiMac_wisunAsycnOperation_start")
    2192                            .dwattr $C$DW$193, DW_AT_const_value(0x00)
    2193                            .dwattr $C$DW$193, DW_AT_decl_file("C:/ti/workspace1/sensor_cc1350lp/Application/api_mac.h")
    2194                            .dwattr $C$DW$193, DW_AT_decl_line(0x4aa)
    2195                            .dwattr $C$DW$193, DW_AT_decl_column(0x05)
    2196                    
    2197                    $C$DW$194       .dwtag  DW_TAG_enumerator
TI ARM Assembler PC v18.1.1 Wed Apr 25 09:49:08 2018

Tools Copyright (c) 1996-2017 Texas Instruments Incorporated
C:\Users\devops\AppData\Local\Temp\2\{0B978F18-9563-4BBD-B32F-32B01450AE46} PAGE   41

    2198                            .dwattr $C$DW$194, DW_AT_name("ApiMac_wisunAsycnOperation_stop")
    2199                            .dwattr $C$DW$194, DW_AT_const_value(0x01)
    2200                            .dwattr $C$DW$194, DW_AT_decl_file("C:/ti/workspace1/sensor_cc1350lp/Application/api_mac.h")
    2201                            .dwattr $C$DW$194, DW_AT_decl_line(0x4ac)
    2202                            .dwattr $C$DW$194, DW_AT_decl_column(0x05)
    2203                    
    2204                            .dwattr $C$DW$T$392, DW_AT_decl_file("C:/ti/workspace1/sensor_cc1350lp/Application/api_mac.h")
    2205                            .dwattr $C$DW$T$392, DW_AT_decl_line(0x4a8)
    2206                            .dwattr $C$DW$T$392, DW_AT_decl_column(0x01)
    2207                            .dwendtag $C$DW$T$392
    2208                    
    2209                    $C$DW$T$393     .dwtag  DW_TAG_typedef
    2210                            .dwattr $C$DW$T$393, DW_AT_name("ApiMac_wisunAsycnOperation_t")
    2211                            .dwattr $C$DW$T$393, DW_AT_type(*$C$DW$T$392)
    2212                            .dwattr $C$DW$T$393, DW_AT_language(DW_LANG_C)
    2213                            .dwattr $C$DW$T$393, DW_AT_decl_file("C:/ti/workspace1/sensor_cc1350lp/Application/api_mac.h")
    2214                            .dwattr $C$DW$T$393, DW_AT_decl_line(0x4ad)
    2215                            .dwattr $C$DW$T$393, DW_AT_decl_column(0x03)
    2216                    
    2217                    
    2218                    $C$DW$T$394     .dwtag  DW_TAG_enumeration_type
    2219                            .dwattr $C$DW$T$394, DW_AT_byte_size(0x01)
    2220                    $C$DW$195       .dwtag  DW_TAG_enumerator
    2221                            .dwattr $C$DW$195, DW_AT_name("ApiMac_wisunAsyncFrame_advertisement")
    2222                            .dwattr $C$DW$195, DW_AT_const_value(0x00)
    2223                            .dwattr $C$DW$195, DW_AT_decl_file("C:/ti/workspace1/sensor_cc1350lp/Application/api_mac.h")
    2224                            .dwattr $C$DW$195, DW_AT_decl_line(0x4b3)
    2225                            .dwattr $C$DW$195, DW_AT_decl_column(0x05)
    2226                    
    2227                    $C$DW$196       .dwtag  DW_TAG_enumerator
    2228                            .dwattr $C$DW$196, DW_AT_name("ApiMac_wisunAsyncFrame_advertisementSolicit")
    2229                            .dwattr $C$DW$196, DW_AT_const_value(0x01)
    2230                            .dwattr $C$DW$196, DW_AT_decl_file("C:/ti/workspace1/sensor_cc1350lp/Application/api_mac.h")
    2231                            .dwattr $C$DW$196, DW_AT_decl_line(0x4b5)
    2232                            .dwattr $C$DW$196, DW_AT_decl_column(0x05)
    2233                    
    2234                    $C$DW$197       .dwtag  DW_TAG_enumerator
    2235                            .dwattr $C$DW$197, DW_AT_name("ApiMac_wisunAsyncFrame_config")
    2236                            .dwattr $C$DW$197, DW_AT_const_value(0x02)
    2237                            .dwattr $C$DW$197, DW_AT_decl_file("C:/ti/workspace1/sensor_cc1350lp/Application/api_mac.h")
    2238                            .dwattr $C$DW$197, DW_AT_decl_line(0x4b7)
    2239                            .dwattr $C$DW$197, DW_AT_decl_column(0x05)
    2240                    
    2241                    $C$DW$198       .dwtag  DW_TAG_enumerator
    2242                            .dwattr $C$DW$198, DW_AT_name("ApiMac_wisunAsyncFrame_configSolicit")
    2243                            .dwattr $C$DW$198, DW_AT_const_value(0x03)
    2244                            .dwattr $C$DW$198, DW_AT_decl_file("C:/ti/workspace1/sensor_cc1350lp/Application/api_mac.h")
    2245                            .dwattr $C$DW$198, DW_AT_decl_line(0x4b9)
    2246                            .dwattr $C$DW$198, DW_AT_decl_column(0x05)
    2247                    
    2248                            .dwattr $C$DW$T$394, DW_AT_decl_file("C:/ti/workspace1/sensor_cc1350lp/Application/api_mac.h")
    2249                            .dwattr $C$DW$T$394, DW_AT_decl_line(0x4b1)
    2250                            .dwattr $C$DW$T$394, DW_AT_decl_column(0x01)
    2251                            .dwendtag $C$DW$T$394
    2252                    
TI ARM Assembler PC v18.1.1 Wed Apr 25 09:49:08 2018

Tools Copyright (c) 1996-2017 Texas Instruments Incorporated
C:\Users\devops\AppData\Local\Temp\2\{0B978F18-9563-4BBD-B32F-32B01450AE46} PAGE   42

    2253                    $C$DW$T$395     .dwtag  DW_TAG_typedef
    2254                            .dwattr $C$DW$T$395, DW_AT_name("ApiMac_wisunAsyncFrame_t")
    2255                            .dwattr $C$DW$T$395, DW_AT_type(*$C$DW$T$394)
    2256                            .dwattr $C$DW$T$395, DW_AT_language(DW_LANG_C)
    2257                            .dwattr $C$DW$T$395, DW_AT_decl_file("C:/ti/workspace1/sensor_cc1350lp/Application/api_mac.h")
    2258                            .dwattr $C$DW$T$395, DW_AT_decl_line(0x4ba)
    2259                            .dwattr $C$DW$T$395, DW_AT_decl_column(0x03)
    2260                    
    2261                    
    2262                    $C$DW$T$692     .dwtag  DW_TAG_enumeration_type
    2263                            .dwattr $C$DW$T$692, DW_AT_byte_size(0x01)
    2264                    $C$DW$199       .dwtag  DW_TAG_enumerator
    2265                            .dwattr $C$DW$199, DW_AT_name("PIN_SUCCESS")
    2266                            .dwattr $C$DW$199, DW_AT_const_value(0x00)
    2267                            .dwattr $C$DW$199, DW_AT_decl_file("C:/ti/simplelink_cc13x0_sdk_2_10_00_36/source/ti/drivers/P
    2268                            .dwattr $C$DW$199, DW_AT_decl_line(0x2cd)
    2269                            .dwattr $C$DW$199, DW_AT_decl_column(0x05)
    2270                    
    2271                    $C$DW$200       .dwtag  DW_TAG_enumerator
    2272                            .dwattr $C$DW$200, DW_AT_name("PIN_ALREADY_ALLOCATED")
    2273                            .dwattr $C$DW$200, DW_AT_const_value(0x01)
    2274                            .dwattr $C$DW$200, DW_AT_decl_file("C:/ti/simplelink_cc13x0_sdk_2_10_00_36/source/ti/drivers/P
    2275                            .dwattr $C$DW$200, DW_AT_decl_line(0x2ce)
    2276                            .dwattr $C$DW$200, DW_AT_decl_column(0x05)
    2277                    
    2278                    $C$DW$201       .dwtag  DW_TAG_enumerator
    2279                            .dwattr $C$DW$201, DW_AT_name("PIN_NO_ACCESS")
    2280                            .dwattr $C$DW$201, DW_AT_const_value(0x02)
    2281                            .dwattr $C$DW$201, DW_AT_decl_file("C:/ti/simplelink_cc13x0_sdk_2_10_00_36/source/ti/drivers/P
    2282                            .dwattr $C$DW$201, DW_AT_decl_line(0x2cf)
    2283                            .dwattr $C$DW$201, DW_AT_decl_column(0x05)
    2284                    
    2285                    $C$DW$202       .dwtag  DW_TAG_enumerator
    2286                            .dwattr $C$DW$202, DW_AT_name("PIN_UNSUPPORTED")
    2287                            .dwattr $C$DW$202, DW_AT_const_value(0x03)
    2288                            .dwattr $C$DW$202, DW_AT_decl_file("C:/ti/simplelink_cc13x0_sdk_2_10_00_36/source/ti/drivers/P
    2289                            .dwattr $C$DW$202, DW_AT_decl_line(0x2d0)
    2290                            .dwattr $C$DW$202, DW_AT_decl_column(0x05)
    2291                    
    2292                            .dwattr $C$DW$T$692, DW_AT_decl_file("C:/ti/simplelink_cc13x0_sdk_2_10_00_36/source/ti/drivers
    2293                            .dwattr $C$DW$T$692, DW_AT_decl_line(0x2cc)
    2294                            .dwattr $C$DW$T$692, DW_AT_decl_column(0x0e)
    2295                            .dwendtag $C$DW$T$692
    2296                    
    2297                    $C$DW$T$693     .dwtag  DW_TAG_typedef
    2298                            .dwattr $C$DW$T$693, DW_AT_name("PIN_Status")
    2299                            .dwattr $C$DW$T$693, DW_AT_type(*$C$DW$T$692)
    2300                            .dwattr $C$DW$T$693, DW_AT_language(DW_LANG_C)
    2301                            .dwattr $C$DW$T$693, DW_AT_decl_file("C:/ti/simplelink_cc13x0_sdk_2_10_00_36/source/ti/drivers
    2302                            .dwattr $C$DW$T$693, DW_AT_decl_line(0x2d1)
    2303                            .dwattr $C$DW$T$693, DW_AT_decl_column(0x03)
    2304                    
    2305                    
    2306                    $C$DW$T$697     .dwtag  DW_TAG_enumeration_type
    2307                            .dwattr $C$DW$T$697, DW_AT_byte_size(0x01)
TI ARM Assembler PC v18.1.1 Wed Apr 25 09:49:08 2018

Tools Copyright (c) 1996-2017 Texas Instruments Incorporated
C:\Users\devops\AppData\Local\Temp\2\{0B978F18-9563-4BBD-B32F-32B01450AE46} PAGE   43

    2308                    $C$DW$203       .dwtag  DW_TAG_enumerator
    2309                            .dwattr $C$DW$203, DW_AT_name("board_led_type_LED1")
    2310                            .dwattr $C$DW$203, DW_AT_const_value(0x00)
    2311                            .dwattr $C$DW$203, DW_AT_decl_file("..\Application\LaunchPad\board_led.h")
    2312                            .dwattr $C$DW$203, DW_AT_decl_line(0x50)
    2313                            .dwattr $C$DW$203, DW_AT_decl_column(0x05)
    2314                    
    2315                    $C$DW$204       .dwtag  DW_TAG_enumerator
    2316                            .dwattr $C$DW$204, DW_AT_name("board_led_type_LED2")
    2317                            .dwattr $C$DW$204, DW_AT_const_value(0x01)
    2318                            .dwattr $C$DW$204, DW_AT_decl_file("..\Application\LaunchPad\board_led.h")
    2319                            .dwattr $C$DW$204, DW_AT_decl_line(0x51)
    2320                            .dwattr $C$DW$204, DW_AT_decl_column(0x05)
    2321                    
    2322                    $C$DW$205       .dwtag  DW_TAG_enumerator
    2323                            .dwattr $C$DW$205, DW_AT_name("NO_OF_LEDS")
    2324                            .dwattr $C$DW$205, DW_AT_const_value(0x02)
    2325                            .dwattr $C$DW$205, DW_AT_decl_file("..\Application\LaunchPad\board_led.h")
    2326                            .dwattr $C$DW$205, DW_AT_decl_line(0x57)
    2327                            .dwattr $C$DW$205, DW_AT_decl_column(0x05)
    2328                    
    2329                            .dwattr $C$DW$T$697, DW_AT_decl_file("..\Application\LaunchPad\board_led.h")
    2330                            .dwattr $C$DW$T$697, DW_AT_decl_line(0x4f)
    2331                            .dwattr $C$DW$T$697, DW_AT_decl_column(0x01)
    2332                            .dwendtag $C$DW$T$697
    2333                    
    2334                    $C$DW$T$698     .dwtag  DW_TAG_typedef
    2335                            .dwattr $C$DW$T$698, DW_AT_name("board_led_type")
    2336                            .dwattr $C$DW$T$698, DW_AT_type(*$C$DW$T$697)
    2337                            .dwattr $C$DW$T$698, DW_AT_language(DW_LANG_C)
    2338                            .dwattr $C$DW$T$698, DW_AT_decl_file("..\Application\LaunchPad\board_led.h")
    2339                            .dwattr $C$DW$T$698, DW_AT_decl_line(0x58)
    2340                            .dwattr $C$DW$T$698, DW_AT_decl_column(0x03)
    2341                    
    2342                    $C$DW$T$699     .dwtag  DW_TAG_const_type
    2343                            .dwattr $C$DW$T$699, DW_AT_type(*$C$DW$T$698)
    2344                    
    2345                    $C$DW$T$700     .dwtag  DW_TAG_const_type
    2346                            .dwattr $C$DW$T$700, DW_AT_type(*$C$DW$T$698)
    2347                    
    2348                    $C$DW$T$701     .dwtag  DW_TAG_const_type
    2349                            .dwattr $C$DW$T$701, DW_AT_type(*$C$DW$T$698)
    2350                    
    2351                    
    2352                    $C$DW$T$702     .dwtag  DW_TAG_enumeration_type
    2353                            .dwattr $C$DW$T$702, DW_AT_byte_size(0x01)
    2354                    $C$DW$206       .dwtag  DW_TAG_enumerator
    2355                            .dwattr $C$DW$206, DW_AT_name("ApiMac_secLevel_none")
    2356                            .dwattr $C$DW$206, DW_AT_const_value(0x00)
    2357                            .dwattr $C$DW$206, DW_AT_decl_file("C:/ti/workspace1/sensor_cc1350lp/Application/api_mac.h")
    2358                            .dwattr $C$DW$206, DW_AT_decl_line(0x28b)
    2359                            .dwattr $C$DW$206, DW_AT_decl_column(0x05)
    2360                    
    2361                    $C$DW$207       .dwtag  DW_TAG_enumerator
    2362                            .dwattr $C$DW$207, DW_AT_name("ApiMac_secLevel_mic32")
TI ARM Assembler PC v18.1.1 Wed Apr 25 09:49:08 2018

Tools Copyright (c) 1996-2017 Texas Instruments Incorporated
C:\Users\devops\AppData\Local\Temp\2\{0B978F18-9563-4BBD-B32F-32B01450AE46} PAGE   44

    2363                            .dwattr $C$DW$207, DW_AT_const_value(0x01)
    2364                            .dwattr $C$DW$207, DW_AT_decl_file("C:/ti/workspace1/sensor_cc1350lp/Application/api_mac.h")
    2365                            .dwattr $C$DW$207, DW_AT_decl_line(0x28d)
    2366                            .dwattr $C$DW$207, DW_AT_decl_column(0x05)
    2367                    
    2368                    $C$DW$208       .dwtag  DW_TAG_enumerator
    2369                            .dwattr $C$DW$208, DW_AT_name("ApiMac_secLevel_mic64")
    2370                            .dwattr $C$DW$208, DW_AT_const_value(0x02)
    2371                            .dwattr $C$DW$208, DW_AT_decl_file("C:/ti/workspace1/sensor_cc1350lp/Application/api_mac.h")
    2372                            .dwattr $C$DW$208, DW_AT_decl_line(0x28f)
    2373                            .dwattr $C$DW$208, DW_AT_decl_column(0x05)
    2374                    
    2375                    $C$DW$209       .dwtag  DW_TAG_enumerator
    2376                            .dwattr $C$DW$209, DW_AT_name("ApiMac_secLevel_mic128")
    2377                            .dwattr $C$DW$209, DW_AT_const_value(0x03)
    2378                            .dwattr $C$DW$209, DW_AT_decl_file("C:/ti/workspace1/sensor_cc1350lp/Application/api_mac.h")
    2379                            .dwattr $C$DW$209, DW_AT_decl_line(0x291)
    2380                            .dwattr $C$DW$209, DW_AT_decl_column(0x05)
    2381                    
    2382                    $C$DW$210       .dwtag  DW_TAG_enumerator
    2383                            .dwattr $C$DW$210, DW_AT_name("ApiMac_secLevel_enc")
    2384                            .dwattr $C$DW$210, DW_AT_const_value(0x04)
    2385                            .dwattr $C$DW$210, DW_AT_decl_file("C:/ti/workspace1/sensor_cc1350lp/Application/api_mac.h")
    2386                            .dwattr $C$DW$210, DW_AT_decl_line(0x293)
    2387                            .dwattr $C$DW$210, DW_AT_decl_column(0x05)
    2388                    
    2389                    $C$DW$211       .dwtag  DW_TAG_enumerator
    2390                            .dwattr $C$DW$211, DW_AT_name("ApiMac_secLevel_encMic32")
    2391                            .dwattr $C$DW$211, DW_AT_const_value(0x05)
    2392                            .dwattr $C$DW$211, DW_AT_decl_file("C:/ti/workspace1/sensor_cc1350lp/Application/api_mac.h")
    2393                            .dwattr $C$DW$211, DW_AT_decl_line(0x295)
    2394                            .dwattr $C$DW$211, DW_AT_decl_column(0x05)
    2395                    
    2396                    $C$DW$212       .dwtag  DW_TAG_enumerator
    2397                            .dwattr $C$DW$212, DW_AT_name("ApiMac_secLevel_encMic64")
    2398                            .dwattr $C$DW$212, DW_AT_const_value(0x06)
    2399                            .dwattr $C$DW$212, DW_AT_decl_file("C:/ti/workspace1/sensor_cc1350lp/Application/api_mac.h")
    2400                            .dwattr $C$DW$212, DW_AT_decl_line(0x297)
    2401                            .dwattr $C$DW$212, DW_AT_decl_column(0x05)
    2402                    
    2403                    $C$DW$213       .dwtag  DW_TAG_enumerator
    2404                            .dwattr $C$DW$213, DW_AT_name("ApiMac_secLevel_encMic128")
    2405                            .dwattr $C$DW$213, DW_AT_const_value(0x07)
    2406                            .dwattr $C$DW$213, DW_AT_decl_file("C:/ti/workspace1/sensor_cc1350lp/Application/api_mac.h")
    2407                            .dwattr $C$DW$213, DW_AT_decl_line(0x299)
    2408                            .dwattr $C$DW$213, DW_AT_decl_column(0x05)
    2409                    
    2410                            .dwattr $C$DW$T$702, DW_AT_decl_file("C:/ti/workspace1/sensor_cc1350lp/Application/api_mac.h")
    2411                            .dwattr $C$DW$T$702, DW_AT_decl_line(0x289)
    2412                            .dwattr $C$DW$T$702, DW_AT_decl_column(0x01)
    2413                            .dwendtag $C$DW$T$702
    2414                    
    2415                    $C$DW$T$703     .dwtag  DW_TAG_typedef
    2416                            .dwattr $C$DW$T$703, DW_AT_name("ApiMac_secLevel_t")
    2417                            .dwattr $C$DW$T$703, DW_AT_type(*$C$DW$T$702)
TI ARM Assembler PC v18.1.1 Wed Apr 25 09:49:08 2018

Tools Copyright (c) 1996-2017 Texas Instruments Incorporated
C:\Users\devops\AppData\Local\Temp\2\{0B978F18-9563-4BBD-B32F-32B01450AE46} PAGE   45

    2418                            .dwattr $C$DW$T$703, DW_AT_language(DW_LANG_C)
    2419                            .dwattr $C$DW$T$703, DW_AT_decl_file("C:/ti/workspace1/sensor_cc1350lp/Application/api_mac.h")
    2420                            .dwattr $C$DW$T$703, DW_AT_decl_line(0x29a)
    2421                            .dwattr $C$DW$T$703, DW_AT_decl_column(0x03)
    2422                    
    2423                    
    2424                    $C$DW$T$704     .dwtag  DW_TAG_enumeration_type
    2425                            .dwattr $C$DW$T$704, DW_AT_byte_size(0x01)
    2426                    $C$DW$214       .dwtag  DW_TAG_enumerator
    2427                            .dwattr $C$DW$214, DW_AT_name("ApiMac_keyIdMode_implicit")
    2428                            .dwattr $C$DW$214, DW_AT_const_value(0x00)
    2429                            .dwattr $C$DW$214, DW_AT_decl_file("C:/ti/workspace1/sensor_cc1350lp/Application/api_mac.h")
    2430                            .dwattr $C$DW$214, DW_AT_decl_line(0x2a0)
    2431                            .dwattr $C$DW$214, DW_AT_decl_column(0x05)
    2432                    
    2433                    $C$DW$215       .dwtag  DW_TAG_enumerator
    2434                            .dwattr $C$DW$215, DW_AT_name("ApiMac_keyIdMode_1")
    2435                            .dwattr $C$DW$215, DW_AT_const_value(0x01)
    2436                            .dwattr $C$DW$215, DW_AT_decl_file("C:/ti/workspace1/sensor_cc1350lp/Application/api_mac.h")
    2437                            .dwattr $C$DW$215, DW_AT_decl_line(0x2a2)
    2438                            .dwattr $C$DW$215, DW_AT_decl_column(0x05)
    2439                    
    2440                    $C$DW$216       .dwtag  DW_TAG_enumerator
    2441                            .dwattr $C$DW$216, DW_AT_name("ApiMac_keyIdMode_4")
    2442                            .dwattr $C$DW$216, DW_AT_const_value(0x02)
    2443                            .dwattr $C$DW$216, DW_AT_decl_file("C:/ti/workspace1/sensor_cc1350lp/Application/api_mac.h")
    2444                            .dwattr $C$DW$216, DW_AT_decl_line(0x2a4)
    2445                            .dwattr $C$DW$216, DW_AT_decl_column(0x05)
    2446                    
    2447                    $C$DW$217       .dwtag  DW_TAG_enumerator
    2448                            .dwattr $C$DW$217, DW_AT_name("ApiMac_keyIdMode_8")
    2449                            .dwattr $C$DW$217, DW_AT_const_value(0x03)
    2450                            .dwattr $C$DW$217, DW_AT_decl_file("C:/ti/workspace1/sensor_cc1350lp/Application/api_mac.h")
    2451                            .dwattr $C$DW$217, DW_AT_decl_line(0x2a6)
    2452                            .dwattr $C$DW$217, DW_AT_decl_column(0x05)
    2453                    
    2454                            .dwattr $C$DW$T$704, DW_AT_decl_file("C:/ti/workspace1/sensor_cc1350lp/Application/api_mac.h")
    2455                            .dwattr $C$DW$T$704, DW_AT_decl_line(0x29e)
    2456                            .dwattr $C$DW$T$704, DW_AT_decl_column(0x01)
    2457                            .dwendtag $C$DW$T$704
    2458                    
    2459                    $C$DW$T$705     .dwtag  DW_TAG_typedef
    2460                            .dwattr $C$DW$T$705, DW_AT_name("ApiMac_keyIdMode_t")
    2461                            .dwattr $C$DW$T$705, DW_AT_type(*$C$DW$T$704)
    2462                            .dwattr $C$DW$T$705, DW_AT_language(DW_LANG_C)
    2463                            .dwattr $C$DW$T$705, DW_AT_decl_file("C:/ti/workspace1/sensor_cc1350lp/Application/api_mac.h")
    2464                            .dwattr $C$DW$T$705, DW_AT_decl_line(0x2a7)
    2465                            .dwattr $C$DW$T$705, DW_AT_decl_column(0x03)
    2466                    
    2467                    
    2468                    $C$DW$T$706     .dwtag  DW_TAG_enumeration_type
    2469                            .dwattr $C$DW$T$706, DW_AT_byte_size(0x01)
    2470                    $C$DW$218       .dwtag  DW_TAG_enumerator
    2471                            .dwattr $C$DW$218, DW_AT_name("ApiMac_attribute_associatePermit")
    2472                            .dwattr $C$DW$218, DW_AT_const_value(0x41)
TI ARM Assembler PC v18.1.1 Wed Apr 25 09:49:08 2018

Tools Copyright (c) 1996-2017 Texas Instruments Incorporated
C:\Users\devops\AppData\Local\Temp\2\{0B978F18-9563-4BBD-B32F-32B01450AE46} PAGE   46

    2473                            .dwattr $C$DW$218, DW_AT_decl_file("C:/ti/workspace1/sensor_cc1350lp/Application/api_mac.h")
    2474                            .dwattr $C$DW$218, DW_AT_decl_line(0x2ad)
    2475                            .dwattr $C$DW$218, DW_AT_decl_column(0x05)
    2476                    
    2477                    $C$DW$219       .dwtag  DW_TAG_enumerator
    2478                            .dwattr $C$DW$219, DW_AT_name("ApiMac_attribute_autoRequest")
    2479                            .dwattr $C$DW$219, DW_AT_const_value(0x42)
    2480                            .dwattr $C$DW$219, DW_AT_decl_file("C:/ti/workspace1/sensor_cc1350lp/Application/api_mac.h")
    2481                            .dwattr $C$DW$219, DW_AT_decl_line(0x2b2)
    2482                            .dwattr $C$DW$219, DW_AT_decl_column(0x05)
    2483                    
    2484                    $C$DW$220       .dwtag  DW_TAG_enumerator
    2485                            .dwattr $C$DW$220, DW_AT_name("ApiMac_attribute_battLifeExt")
    2486                            .dwattr $C$DW$220, DW_AT_const_value(0x43)
    2487                            .dwattr $C$DW$220, DW_AT_decl_file("C:/ti/workspace1/sensor_cc1350lp/Application/api_mac.h")
    2488                            .dwattr $C$DW$220, DW_AT_decl_line(0x2b4)
    2489                            .dwattr $C$DW$220, DW_AT_decl_column(0x05)
    2490                    
    2491                    $C$DW$221       .dwtag  DW_TAG_enumerator
    2492                            .dwattr $C$DW$221, DW_AT_name("ApiMac_attribute_gtsPermit")
    2493                            .dwattr $C$DW$221, DW_AT_const_value(0x4d)
    2494                            .dwattr $C$DW$221, DW_AT_decl_file("C:/ti/workspace1/sensor_cc1350lp/Application/api_mac.h")
    2495                            .dwattr $C$DW$221, DW_AT_decl_line(0x2b6)
    2496                            .dwattr $C$DW$221, DW_AT_decl_column(0x05)
    2497                    
    2498                    $C$DW$222       .dwtag  DW_TAG_enumerator
    2499                            .dwattr $C$DW$222, DW_AT_name("ApiMac_attribute_promiscuousMode")
    2500                            .dwattr $C$DW$222, DW_AT_const_value(0x51)
    2501                            .dwattr $C$DW$222, DW_AT_decl_file("C:/ti/workspace1/sensor_cc1350lp/Application/api_mac.h")
    2502                            .dwattr $C$DW$222, DW_AT_decl_line(0x2b8)
    2503                            .dwattr $C$DW$222, DW_AT_decl_column(0x05)
    2504                    
    2505                    $C$DW$223       .dwtag  DW_TAG_enumerator
    2506                            .dwattr $C$DW$223, DW_AT_name("ApiMac_attribute_RxOnWhenIdle")
    2507                            .dwattr $C$DW$223, DW_AT_const_value(0x52)
    2508                            .dwattr $C$DW$223, DW_AT_decl_file("C:/ti/workspace1/sensor_cc1350lp/Application/api_mac.h")
    2509                            .dwattr $C$DW$223, DW_AT_decl_line(0x2ba)
    2510                            .dwattr $C$DW$223, DW_AT_decl_column(0x05)
    2511                    
    2512                    $C$DW$224       .dwtag  DW_TAG_enumerator
    2513                            .dwattr $C$DW$224, DW_AT_name("ApiMac_attribute_associatedPanCoord")
    2514                            .dwattr $C$DW$224, DW_AT_const_value(0x56)
    2515                            .dwattr $C$DW$224, DW_AT_decl_file("C:/ti/workspace1/sensor_cc1350lp/Application/api_mac.h")
    2516                            .dwattr $C$DW$224, DW_AT_decl_line(0x2bc)
    2517                            .dwattr $C$DW$224, DW_AT_decl_column(0x05)
    2518                    
    2519                    $C$DW$225       .dwtag  DW_TAG_enumerator
    2520                            .dwattr $C$DW$225, DW_AT_name("ApiMac_attribute_timestampSupported")
    2521                            .dwattr $C$DW$225, DW_AT_const_value(0x5c)
    2522                            .dwattr $C$DW$225, DW_AT_decl_file("C:/ti/workspace1/sensor_cc1350lp/Application/api_mac.h")
    2523                            .dwattr $C$DW$225, DW_AT_decl_line(0x2be)
    2524                            .dwattr $C$DW$225, DW_AT_decl_column(0x05)
    2525                    
    2526                    $C$DW$226       .dwtag  DW_TAG_enumerator
    2527                            .dwattr $C$DW$226, DW_AT_name("ApiMac_attribute_securityEnabled")
TI ARM Assembler PC v18.1.1 Wed Apr 25 09:49:08 2018

Tools Copyright (c) 1996-2017 Texas Instruments Incorporated
C:\Users\devops\AppData\Local\Temp\2\{0B978F18-9563-4BBD-B32F-32B01450AE46} PAGE   47

    2528                            .dwattr $C$DW$226, DW_AT_const_value(0x5d)
    2529                            .dwattr $C$DW$226, DW_AT_decl_file("C:/ti/workspace1/sensor_cc1350lp/Application/api_mac.h")
    2530                            .dwattr $C$DW$226, DW_AT_decl_line(0x2c0)
    2531                            .dwattr $C$DW$226, DW_AT_decl_column(0x05)
    2532                    
    2533                    $C$DW$227       .dwtag  DW_TAG_enumerator
    2534                            .dwattr $C$DW$227, DW_AT_name("ApiMac_attribute_includeMPMIE")
    2535                            .dwattr $C$DW$227, DW_AT_const_value(0x62)
    2536                            .dwattr $C$DW$227, DW_AT_decl_file("C:/ti/workspace1/sensor_cc1350lp/Application/api_mac.h")
    2537                            .dwattr $C$DW$227, DW_AT_decl_line(0x2c2)
    2538                            .dwattr $C$DW$227, DW_AT_decl_column(0x05)
    2539                    
    2540                    $C$DW$228       .dwtag  DW_TAG_enumerator
    2541                            .dwattr $C$DW$228, DW_AT_name("ApiMac_attribute_fcsType")
    2542                            .dwattr $C$DW$228, DW_AT_const_value(0xe9)
    2543                            .dwattr $C$DW$228, DW_AT_decl_file("C:/ti/workspace1/sensor_cc1350lp/Application/api_mac.h")
    2544                            .dwattr $C$DW$228, DW_AT_decl_line(0x2c4)
    2545                            .dwattr $C$DW$228, DW_AT_decl_column(0x05)
    2546                    
    2547                            .dwattr $C$DW$T$706, DW_AT_decl_file("C:/ti/workspace1/sensor_cc1350lp/Application/api_mac.h")
    2548                            .dwattr $C$DW$T$706, DW_AT_decl_line(0x2ab)
    2549                            .dwattr $C$DW$T$706, DW_AT_decl_column(0x01)
    2550                            .dwendtag $C$DW$T$706
    2551                    
    2552                    $C$DW$T$707     .dwtag  DW_TAG_typedef
    2553                            .dwattr $C$DW$T$707, DW_AT_name("ApiMac_attribute_bool_t")
    2554                            .dwattr $C$DW$T$707, DW_AT_type(*$C$DW$T$706)
    2555                            .dwattr $C$DW$T$707, DW_AT_language(DW_LANG_C)
    2556                            .dwattr $C$DW$T$707, DW_AT_decl_file("C:/ti/workspace1/sensor_cc1350lp/Application/api_mac.h")
    2557                            .dwattr $C$DW$T$707, DW_AT_decl_line(0x2c5)
    2558                            .dwattr $C$DW$T$707, DW_AT_decl_column(0x03)
    2559                    
    2560                    
    2561                    $C$DW$T$708     .dwtag  DW_TAG_enumeration_type
    2562                            .dwattr $C$DW$T$708, DW_AT_byte_size(0x01)
    2563                    $C$DW$229       .dwtag  DW_TAG_enumerator
    2564                            .dwattr $C$DW$229, DW_AT_name("ApiMac_attribute_ackWaitDuration")
    2565                            .dwattr $C$DW$229, DW_AT_const_value(0x40)
    2566                            .dwattr $C$DW$229, DW_AT_decl_file("C:/ti/workspace1/sensor_cc1350lp/Application/api_mac.h")
    2567                            .dwattr $C$DW$229, DW_AT_decl_line(0x2cb)
    2568                            .dwattr $C$DW$229, DW_AT_decl_column(0x05)
    2569                    
    2570                    $C$DW$230       .dwtag  DW_TAG_enumerator
    2571                            .dwattr $C$DW$230, DW_AT_name("ApiMac_attribute_battLifeExtPeriods")
    2572                            .dwattr $C$DW$230, DW_AT_const_value(0x44)
    2573                            .dwattr $C$DW$230, DW_AT_decl_file("C:/ti/workspace1/sensor_cc1350lp/Application/api_mac.h")
    2574                            .dwattr $C$DW$230, DW_AT_decl_line(0x2d0)
    2575                            .dwattr $C$DW$230, DW_AT_decl_column(0x05)
    2576                    
    2577                    $C$DW$231       .dwtag  DW_TAG_enumerator
    2578                            .dwattr $C$DW$231, DW_AT_name("ApiMac_attribute_beaconPayloadLength")
    2579                            .dwattr $C$DW$231, DW_AT_const_value(0x46)
    2580                            .dwattr $C$DW$231, DW_AT_decl_file("C:/ti/workspace1/sensor_cc1350lp/Application/api_mac.h")
    2581                            .dwattr $C$DW$231, DW_AT_decl_line(0x2d5)
    2582                            .dwattr $C$DW$231, DW_AT_decl_column(0x05)
TI ARM Assembler PC v18.1.1 Wed Apr 25 09:49:08 2018

Tools Copyright (c) 1996-2017 Texas Instruments Incorporated
C:\Users\devops\AppData\Local\Temp\2\{0B978F18-9563-4BBD-B32F-32B01450AE46} PAGE   48

    2583                    
    2584                    $C$DW$232       .dwtag  DW_TAG_enumerator
    2585                            .dwattr $C$DW$232, DW_AT_name("ApiMac_attribute_beaconOrder")
    2586                            .dwattr $C$DW$232, DW_AT_const_value(0x47)
    2587                            .dwattr $C$DW$232, DW_AT_decl_file("C:/ti/workspace1/sensor_cc1350lp/Application/api_mac.h")
    2588                            .dwattr $C$DW$232, DW_AT_decl_line(0x2d7)
    2589                            .dwattr $C$DW$232, DW_AT_decl_column(0x05)
    2590                    
    2591                    $C$DW$233       .dwtag  DW_TAG_enumerator
    2592                            .dwattr $C$DW$233, DW_AT_name("ApiMac_attribute_bsn")
    2593                            .dwattr $C$DW$233, DW_AT_const_value(0x49)
    2594                            .dwattr $C$DW$233, DW_AT_decl_file("C:/ti/workspace1/sensor_cc1350lp/Application/api_mac.h")
    2595                            .dwattr $C$DW$233, DW_AT_decl_line(0x2d9)
    2596                            .dwattr $C$DW$233, DW_AT_decl_column(0x05)
    2597                    
    2598                    $C$DW$234       .dwtag  DW_TAG_enumerator
    2599                            .dwattr $C$DW$234, DW_AT_name("ApiMac_attribute_dsn")
    2600                            .dwattr $C$DW$234, DW_AT_const_value(0x4c)
    2601                            .dwattr $C$DW$234, DW_AT_decl_file("C:/ti/workspace1/sensor_cc1350lp/Application/api_mac.h")
    2602                            .dwattr $C$DW$234, DW_AT_decl_line(0x2db)
    2603                            .dwattr $C$DW$234, DW_AT_decl_column(0x05)
    2604                    
    2605                    $C$DW$235       .dwtag  DW_TAG_enumerator
    2606                            .dwattr $C$DW$235, DW_AT_name("ApiMac_attribute_maxCsmaBackoffs")
    2607                            .dwattr $C$DW$235, DW_AT_const_value(0x4e)
    2608                            .dwattr $C$DW$235, DW_AT_decl_file("C:/ti/workspace1/sensor_cc1350lp/Application/api_mac.h")
    2609                            .dwattr $C$DW$235, DW_AT_decl_line(0x2e0)
    2610                            .dwattr $C$DW$235, DW_AT_decl_column(0x05)
    2611                    
    2612                    $C$DW$236       .dwtag  DW_TAG_enumerator
    2613                            .dwattr $C$DW$236, DW_AT_name("ApiMac_attribute_backoffExponent")
    2614                            .dwattr $C$DW$236, DW_AT_const_value(0x4f)
    2615                            .dwattr $C$DW$236, DW_AT_decl_file("C:/ti/workspace1/sensor_cc1350lp/Application/api_mac.h")
    2616                            .dwattr $C$DW$236, DW_AT_decl_line(0x2e8)
    2617                            .dwattr $C$DW$236, DW_AT_decl_column(0x05)
    2618                    
    2619                    $C$DW$237       .dwtag  DW_TAG_enumerator
    2620                            .dwattr $C$DW$237, DW_AT_name("ApiMac_attribute_superframeOrder")
    2621                            .dwattr $C$DW$237, DW_AT_const_value(0x54)
    2622                            .dwattr $C$DW$237, DW_AT_decl_file("C:/ti/workspace1/sensor_cc1350lp/Application/api_mac.h")
    2623                            .dwattr $C$DW$237, DW_AT_decl_line(0x2ea)
    2624                            .dwattr $C$DW$237, DW_AT_decl_column(0x05)
    2625                    
    2626                    $C$DW$238       .dwtag  DW_TAG_enumerator
    2627                            .dwattr $C$DW$238, DW_AT_name("ApiMac_attribute_maxBackoffExponent")
    2628                            .dwattr $C$DW$238, DW_AT_const_value(0x57)
    2629                            .dwattr $C$DW$238, DW_AT_decl_file("C:/ti/workspace1/sensor_cc1350lp/Application/api_mac.h")
    2630                            .dwattr $C$DW$238, DW_AT_decl_line(0x2ec)
    2631                            .dwattr $C$DW$238, DW_AT_decl_column(0x05)
    2632                    
    2633                    $C$DW$239       .dwtag  DW_TAG_enumerator
    2634                            .dwattr $C$DW$239, DW_AT_name("ApiMac_attribute_maxFrameRetries")
    2635                            .dwattr $C$DW$239, DW_AT_const_value(0x59)
    2636                            .dwattr $C$DW$239, DW_AT_decl_file("C:/ti/workspace1/sensor_cc1350lp/Application/api_mac.h")
    2637                            .dwattr $C$DW$239, DW_AT_decl_line(0x2ee)
TI ARM Assembler PC v18.1.1 Wed Apr 25 09:49:08 2018

Tools Copyright (c) 1996-2017 Texas Instruments Incorporated
C:\Users\devops\AppData\Local\Temp\2\{0B978F18-9563-4BBD-B32F-32B01450AE46} PAGE   49

    2638                            .dwattr $C$DW$239, DW_AT_decl_column(0x05)
    2639                    
    2640                    $C$DW$240       .dwtag  DW_TAG_enumerator
    2641                            .dwattr $C$DW$240, DW_AT_name("ApiMac_attribute_responseWaitTime")
    2642                            .dwattr $C$DW$240, DW_AT_const_value(0x5a)
    2643                            .dwattr $C$DW$240, DW_AT_decl_file("C:/ti/workspace1/sensor_cc1350lp/Application/api_mac.h")
    2644                            .dwattr $C$DW$240, DW_AT_decl_line(0x2f4)
    2645                            .dwattr $C$DW$240, DW_AT_decl_column(0x05)
    2646                    
    2647                    $C$DW$241       .dwtag  DW_TAG_enumerator
    2648                            .dwattr $C$DW$241, DW_AT_name("ApiMac_attribute_syncSymbolOffset")
    2649                            .dwattr $C$DW$241, DW_AT_const_value(0x5b)
    2650                            .dwattr $C$DW$241, DW_AT_decl_file("C:/ti/workspace1/sensor_cc1350lp/Application/api_mac.h")
    2651                            .dwattr $C$DW$241, DW_AT_decl_line(0x2f6)
    2652                            .dwattr $C$DW$241, DW_AT_decl_column(0x05)
    2653                    
    2654                    $C$DW$242       .dwtag  DW_TAG_enumerator
    2655                            .dwattr $C$DW$242, DW_AT_name("ApiMac_attribute_eBeaconSequenceNumber")
    2656                            .dwattr $C$DW$242, DW_AT_const_value(0x5e)
    2657                            .dwattr $C$DW$242, DW_AT_decl_file("C:/ti/workspace1/sensor_cc1350lp/Application/api_mac.h")
    2658                            .dwattr $C$DW$242, DW_AT_decl_line(0x2f8)
    2659                            .dwattr $C$DW$242, DW_AT_decl_column(0x05)
    2660                    
    2661                    $C$DW$243       .dwtag  DW_TAG_enumerator
    2662                            .dwattr $C$DW$243, DW_AT_name("ApiMac_attribute_eBeaconOrder")
    2663                            .dwattr $C$DW$243, DW_AT_const_value(0x5f)
    2664                            .dwattr $C$DW$243, DW_AT_decl_file("C:/ti/workspace1/sensor_cc1350lp/Application/api_mac.h")
    2665                            .dwattr $C$DW$243, DW_AT_decl_line(0x2fa)
    2666                            .dwattr $C$DW$243, DW_AT_decl_column(0x05)
    2667                    
    2668                    $C$DW$244       .dwtag  DW_TAG_enumerator
    2669                            .dwattr $C$DW$244, DW_AT_name("ApiMac_attribute_offsetTimeslot")
    2670                            .dwattr $C$DW$244, DW_AT_const_value(0x61)
    2671                            .dwattr $C$DW$244, DW_AT_decl_file("C:/ti/workspace1/sensor_cc1350lp/Application/api_mac.h")
    2672                            .dwattr $C$DW$244, DW_AT_decl_line(0x2fc)
    2673                            .dwattr $C$DW$244, DW_AT_decl_column(0x05)
    2674                    
    2675                    $C$DW$245       .dwtag  DW_TAG_enumerator
    2676                            .dwattr $C$DW$245, DW_AT_name("ApiMac_attribute_phyTransmitPowerSigned")
    2677                            .dwattr $C$DW$245, DW_AT_const_value(0xe0)
    2678                            .dwattr $C$DW$245, DW_AT_decl_file("C:/ti/workspace1/sensor_cc1350lp/Application/api_mac.h")
    2679                            .dwattr $C$DW$245, DW_AT_decl_line(0x301)
    2680                            .dwattr $C$DW$245, DW_AT_decl_column(0x05)
    2681                    
    2682                    $C$DW$246       .dwtag  DW_TAG_enumerator
    2683                            .dwattr $C$DW$246, DW_AT_name("ApiMac_attribute_logicalChannel")
    2684                            .dwattr $C$DW$246, DW_AT_const_value(0xe1)
    2685                            .dwattr $C$DW$246, DW_AT_decl_file("C:/ti/workspace1/sensor_cc1350lp/Application/api_mac.h")
    2686                            .dwattr $C$DW$246, DW_AT_decl_line(0x303)
    2687                            .dwattr $C$DW$246, DW_AT_decl_column(0x05)
    2688                    
    2689                    $C$DW$247       .dwtag  DW_TAG_enumerator
    2690                            .dwattr $C$DW$247, DW_AT_name("ApiMac_attribute_altBackoffExponent")
    2691                            .dwattr $C$DW$247, DW_AT_const_value(0xe3)
    2692                            .dwattr $C$DW$247, DW_AT_decl_file("C:/ti/workspace1/sensor_cc1350lp/Application/api_mac.h")
TI ARM Assembler PC v18.1.1 Wed Apr 25 09:49:08 2018

Tools Copyright (c) 1996-2017 Texas Instruments Incorporated
C:\Users\devops\AppData\Local\Temp\2\{0B978F18-9563-4BBD-B32F-32B01450AE46} PAGE   50

    2693                            .dwattr $C$DW$247, DW_AT_decl_line(0x305)
    2694                            .dwattr $C$DW$247, DW_AT_decl_column(0x05)
    2695                    
    2696                    $C$DW$248       .dwtag  DW_TAG_enumerator
    2697                            .dwattr $C$DW$248, DW_AT_name("ApiMac_attribute_deviceBeaconOrder")
    2698                            .dwattr $C$DW$248, DW_AT_const_value(0xe4)
    2699                            .dwattr $C$DW$248, DW_AT_decl_file("C:/ti/workspace1/sensor_cc1350lp/Application/api_mac.h")
    2700                            .dwattr $C$DW$248, DW_AT_decl_line(0x307)
    2701                            .dwattr $C$DW$248, DW_AT_decl_column(0x05)
    2702                    
    2703                    $C$DW$249       .dwtag  DW_TAG_enumerator
    2704                            .dwattr $C$DW$249, DW_AT_name("ApiMac_attribute_rf4cePowerSavings")
    2705                            .dwattr $C$DW$249, DW_AT_const_value(0xe5)
    2706                            .dwattr $C$DW$249, DW_AT_decl_file("C:/ti/workspace1/sensor_cc1350lp/Application/api_mac.h")
    2707                            .dwattr $C$DW$249, DW_AT_decl_line(0x309)
    2708                            .dwattr $C$DW$249, DW_AT_decl_column(0x05)
    2709                    
    2710                    $C$DW$250       .dwtag  DW_TAG_enumerator
    2711                            .dwattr $C$DW$250, DW_AT_name("ApiMac_attribute_frameVersionSupport")
    2712                            .dwattr $C$DW$250, DW_AT_const_value(0xe6)
    2713                            .dwattr $C$DW$250, DW_AT_decl_file("C:/ti/workspace1/sensor_cc1350lp/Application/api_mac.h")
    2714                            .dwattr $C$DW$250, DW_AT_decl_line(0x310)
    2715                            .dwattr $C$DW$250, DW_AT_decl_column(0x05)
    2716                    
    2717                    $C$DW$251       .dwtag  DW_TAG_enumerator
    2718                            .dwattr $C$DW$251, DW_AT_name("ApiMac_attribute_channelPage")
    2719                            .dwattr $C$DW$251, DW_AT_const_value(0xe7)
    2720                            .dwattr $C$DW$251, DW_AT_decl_file("C:/ti/workspace1/sensor_cc1350lp/Application/api_mac.h")
    2721                            .dwattr $C$DW$251, DW_AT_decl_line(0x312)
    2722                            .dwattr $C$DW$251, DW_AT_decl_column(0x05)
    2723                    
    2724                    $C$DW$252       .dwtag  DW_TAG_enumerator
    2725                            .dwattr $C$DW$252, DW_AT_name("ApiMac_attribute_phyCurrentDescriptorId")
    2726                            .dwattr $C$DW$252, DW_AT_const_value(0xe8)
    2727                            .dwattr $C$DW$252, DW_AT_decl_file("C:/ti/workspace1/sensor_cc1350lp/Application/api_mac.h")
    2728                            .dwattr $C$DW$252, DW_AT_decl_line(0x317)
    2729                            .dwattr $C$DW$252, DW_AT_decl_column(0x05)
    2730                    
    2731                    $C$DW$253       .dwtag  DW_TAG_enumerator
    2732                            .dwattr $C$DW$253, DW_AT_name("ApiMac_attribute_rssiThreshold")
    2733                            .dwattr $C$DW$253, DW_AT_const_value(0xf4)
    2734                            .dwattr $C$DW$253, DW_AT_decl_file("C:/ti/workspace1/sensor_cc1350lp/Application/api_mac.h")
    2735                            .dwattr $C$DW$253, DW_AT_decl_line(0x31b)
    2736                            .dwattr $C$DW$253, DW_AT_decl_column(0x05)
    2737                    
    2738                    $C$DW$254       .dwtag  DW_TAG_enumerator
    2739                            .dwattr $C$DW$254, DW_AT_name("ApiMac_attribute_rangeExtender")
    2740                            .dwattr $C$DW$254, DW_AT_const_value(0xf5)
    2741                            .dwattr $C$DW$254, DW_AT_decl_file("C:/ti/workspace1/sensor_cc1350lp/Application/api_mac.h")
    2742                            .dwattr $C$DW$254, DW_AT_decl_line(0x31f)
    2743                            .dwattr $C$DW$254, DW_AT_decl_column(0x05)
    2744                    
    2745                    $C$DW$255       .dwtag  DW_TAG_enumerator
    2746                            .dwattr $C$DW$255, DW_AT_name("ApiMac_attribute_enDataAckPending")
    2747                            .dwattr $C$DW$255, DW_AT_const_value(0xf6)
TI ARM Assembler PC v18.1.1 Wed Apr 25 09:49:08 2018

Tools Copyright (c) 1996-2017 Texas Instruments Incorporated
C:\Users\devops\AppData\Local\Temp\2\{0B978F18-9563-4BBD-B32F-32B01450AE46} PAGE   51

    2748                            .dwattr $C$DW$255, DW_AT_decl_file("C:/ti/workspace1/sensor_cc1350lp/Application/api_mac.h")
    2749                            .dwattr $C$DW$255, DW_AT_decl_line(0x323)
    2750                            .dwattr $C$DW$255, DW_AT_decl_column(0x05)
    2751                    
    2752                    $C$DW$256       .dwtag  DW_TAG_enumerator
    2753                            .dwattr $C$DW$256, DW_AT_name("ApiMac_attribute_rfFreq")
    2754                            .dwattr $C$DW$256, DW_AT_const_value(0xf7)
    2755                            .dwattr $C$DW$256, DW_AT_decl_file("C:/ti/workspace1/sensor_cc1350lp/Application/api_mac.h")
    2756                            .dwattr $C$DW$256, DW_AT_decl_line(0x327)
    2757                            .dwattr $C$DW$256, DW_AT_decl_column(0x05)
    2758                    
    2759                    $C$DW$257       .dwtag  DW_TAG_enumerator
    2760                            .dwattr $C$DW$257, DW_AT_name("ApiMac_attribute_paType")
    2761                            .dwattr $C$DW$257, DW_AT_const_value(0xf8)
    2762                            .dwattr $C$DW$257, DW_AT_decl_file("C:/ti/workspace1/sensor_cc1350lp/Application/api_mac.h")
    2763                            .dwattr $C$DW$257, DW_AT_decl_line(0x32b)
    2764                            .dwattr $C$DW$257, DW_AT_decl_column(0x05)
    2765                    
    2766                            .dwattr $C$DW$T$708, DW_AT_decl_file("C:/ti/workspace1/sensor_cc1350lp/Application/api_mac.h")
    2767                            .dwattr $C$DW$T$708, DW_AT_decl_line(0x2c9)
    2768                            .dwattr $C$DW$T$708, DW_AT_decl_column(0x01)
    2769                            .dwendtag $C$DW$T$708
    2770                    
    2771                    $C$DW$T$709     .dwtag  DW_TAG_typedef
    2772                            .dwattr $C$DW$T$709, DW_AT_name("ApiMac_attribute_uint8_t")
    2773                            .dwattr $C$DW$T$709, DW_AT_type(*$C$DW$T$708)
    2774                            .dwattr $C$DW$T$709, DW_AT_language(DW_LANG_C)
    2775                            .dwattr $C$DW$T$709, DW_AT_decl_file("C:/ti/workspace1/sensor_cc1350lp/Application/api_mac.h")
    2776                            .dwattr $C$DW$T$709, DW_AT_decl_line(0x32c)
    2777                            .dwattr $C$DW$T$709, DW_AT_decl_column(0x03)
    2778                    
    2779                    
    2780                    $C$DW$T$710     .dwtag  DW_TAG_enumeration_type
    2781                            .dwattr $C$DW$T$710, DW_AT_byte_size(0x01)
    2782                    $C$DW$258       .dwtag  DW_TAG_enumerator
    2783                            .dwattr $C$DW$258, DW_AT_name("ApiMac_attribute_coordShortAddress")
    2784                            .dwattr $C$DW$258, DW_AT_const_value(0x4b)
    2785                            .dwattr $C$DW$258, DW_AT_decl_file("C:/ti/workspace1/sensor_cc1350lp/Application/api_mac.h")
    2786                            .dwattr $C$DW$258, DW_AT_decl_line(0x336)
    2787                            .dwattr $C$DW$258, DW_AT_decl_column(0x05)
    2788                    
    2789                    $C$DW$259       .dwtag  DW_TAG_enumerator
    2790                            .dwattr $C$DW$259, DW_AT_name("ApiMac_attribute_panId")
    2791                            .dwattr $C$DW$259, DW_AT_const_value(0x50)
    2792                            .dwattr $C$DW$259, DW_AT_decl_file("C:/ti/workspace1/sensor_cc1350lp/Application/api_mac.h")
    2793                            .dwattr $C$DW$259, DW_AT_decl_line(0x33b)
    2794                            .dwattr $C$DW$259, DW_AT_decl_column(0x05)
    2795                    
    2796                    $C$DW$260       .dwtag  DW_TAG_enumerator
    2797                            .dwattr $C$DW$260, DW_AT_name("ApiMac_attribute_shortAddress")
    2798                            .dwattr $C$DW$260, DW_AT_const_value(0x53)
    2799                            .dwattr $C$DW$260, DW_AT_decl_file("C:/ti/workspace1/sensor_cc1350lp/Application/api_mac.h")
    2800                            .dwattr $C$DW$260, DW_AT_decl_line(0x343)
    2801                            .dwattr $C$DW$260, DW_AT_decl_column(0x05)
    2802                    
TI ARM Assembler PC v18.1.1 Wed Apr 25 09:49:08 2018

Tools Copyright (c) 1996-2017 Texas Instruments Incorporated
C:\Users\devops\AppData\Local\Temp\2\{0B978F18-9563-4BBD-B32F-32B01450AE46} PAGE   52

    2803                    $C$DW$261       .dwtag  DW_TAG_enumerator
    2804                            .dwattr $C$DW$261, DW_AT_name("ApiMac_attribute_transactionPersistenceTime")
    2805                            .dwattr $C$DW$261, DW_AT_const_value(0x55)
    2806                            .dwattr $C$DW$261, DW_AT_decl_file("C:/ti/workspace1/sensor_cc1350lp/Application/api_mac.h")
    2807                            .dwattr $C$DW$261, DW_AT_decl_line(0x348)
    2808                            .dwattr $C$DW$261, DW_AT_decl_column(0x05)
    2809                    
    2810                    $C$DW$262       .dwtag  DW_TAG_enumerator
    2811                            .dwattr $C$DW$262, DW_AT_name("ApiMac_attribute_maxFrameTotalWaitTime")
    2812                            .dwattr $C$DW$262, DW_AT_const_value(0x58)
    2813                            .dwattr $C$DW$262, DW_AT_decl_file("C:/ti/workspace1/sensor_cc1350lp/Application/api_mac.h")
    2814                            .dwattr $C$DW$262, DW_AT_decl_line(0x34e)
    2815                            .dwattr $C$DW$262, DW_AT_decl_column(0x05)
    2816                    
    2817                    $C$DW$263       .dwtag  DW_TAG_enumerator
    2818                            .dwattr $C$DW$263, DW_AT_name("ApiMac_attribute_eBeaconOrderNBPAN")
    2819                            .dwattr $C$DW$263, DW_AT_const_value(0x60)
    2820                            .dwattr $C$DW$263, DW_AT_decl_file("C:/ti/workspace1/sensor_cc1350lp/Application/api_mac.h")
    2821                            .dwattr $C$DW$263, DW_AT_decl_line(0x350)
    2822                            .dwattr $C$DW$263, DW_AT_decl_column(0x05)
    2823                    
    2824                            .dwattr $C$DW$T$710, DW_AT_decl_file("C:/ti/workspace1/sensor_cc1350lp/Application/api_mac.h")
    2825                            .dwattr $C$DW$T$710, DW_AT_decl_line(0x330)
    2826                            .dwattr $C$DW$T$710, DW_AT_decl_column(0x01)
    2827                            .dwendtag $C$DW$T$710
    2828                    
    2829                    $C$DW$T$711     .dwtag  DW_TAG_typedef
    2830                            .dwattr $C$DW$T$711, DW_AT_name("ApiMac_attribute_uint16_t")
    2831                            .dwattr $C$DW$T$711, DW_AT_type(*$C$DW$T$710)
    2832                            .dwattr $C$DW$T$711, DW_AT_language(DW_LANG_C)
    2833                            .dwattr $C$DW$T$711, DW_AT_decl_file("C:/ti/workspace1/sensor_cc1350lp/Application/api_mac.h")
    2834                            .dwattr $C$DW$T$711, DW_AT_decl_line(0x351)
    2835                            .dwattr $C$DW$T$711, DW_AT_decl_column(0x03)
    2836                    
    2837                    
    2838                    $C$DW$T$712     .dwtag  DW_TAG_enumeration_type
    2839                            .dwattr $C$DW$T$712, DW_AT_byte_size(0x01)
    2840                    $C$DW$264       .dwtag  DW_TAG_enumerator
    2841                            .dwattr $C$DW$264, DW_AT_name("ApiMac_attribute_beaconTxTime")
    2842                            .dwattr $C$DW$264, DW_AT_const_value(0x48)
    2843                            .dwattr $C$DW$264, DW_AT_decl_file("C:/ti/workspace1/sensor_cc1350lp/Application/api_mac.h")
    2844                            .dwattr $C$DW$264, DW_AT_decl_line(0x35b)
    2845                            .dwattr $C$DW$264, DW_AT_decl_column(0x05)
    2846                    
    2847                    $C$DW$265       .dwtag  DW_TAG_enumerator
    2848                            .dwattr $C$DW$265, DW_AT_name("ApiMac_attribute_diagRxCrcPass")
    2849                            .dwattr $C$DW$265, DW_AT_const_value(0xea)
    2850                            .dwattr $C$DW$265, DW_AT_decl_file("C:/ti/workspace1/sensor_cc1350lp/Application/api_mac.h")
    2851                            .dwattr $C$DW$265, DW_AT_decl_line(0x35d)
    2852                            .dwattr $C$DW$265, DW_AT_decl_column(0x05)
    2853                    
    2854                    $C$DW$266       .dwtag  DW_TAG_enumerator
    2855                            .dwattr $C$DW$266, DW_AT_name("ApiMac_attribute_diagRxCrcFail")
    2856                            .dwattr $C$DW$266, DW_AT_const_value(0xeb)
    2857                            .dwattr $C$DW$266, DW_AT_decl_file("C:/ti/workspace1/sensor_cc1350lp/Application/api_mac.h")
TI ARM Assembler PC v18.1.1 Wed Apr 25 09:49:08 2018

Tools Copyright (c) 1996-2017 Texas Instruments Incorporated
C:\Users\devops\AppData\Local\Temp\2\{0B978F18-9563-4BBD-B32F-32B01450AE46} PAGE   53

    2858                            .dwattr $C$DW$266, DW_AT_decl_line(0x35f)
    2859                            .dwattr $C$DW$266, DW_AT_decl_column(0x05)
    2860                    
    2861                    $C$DW$267       .dwtag  DW_TAG_enumerator
    2862                            .dwattr $C$DW$267, DW_AT_name("ApiMac_attribute_diagRxBroadcast")
    2863                            .dwattr $C$DW$267, DW_AT_const_value(0xec)
    2864                            .dwattr $C$DW$267, DW_AT_decl_file("C:/ti/workspace1/sensor_cc1350lp/Application/api_mac.h")
    2865                            .dwattr $C$DW$267, DW_AT_decl_line(0x361)
    2866                            .dwattr $C$DW$267, DW_AT_decl_column(0x05)
    2867                    
    2868                    $C$DW$268       .dwtag  DW_TAG_enumerator
    2869                            .dwattr $C$DW$268, DW_AT_name("ApiMac_attribute_diagTxBroadcast")
    2870                            .dwattr $C$DW$268, DW_AT_const_value(0xed)
    2871                            .dwattr $C$DW$268, DW_AT_decl_file("C:/ti/workspace1/sensor_cc1350lp/Application/api_mac.h")
    2872                            .dwattr $C$DW$268, DW_AT_decl_line(0x363)
    2873                            .dwattr $C$DW$268, DW_AT_decl_column(0x05)
    2874                    
    2875                    $C$DW$269       .dwtag  DW_TAG_enumerator
    2876                            .dwattr $C$DW$269, DW_AT_name("ApiMac_attribute_diagRxUnicast")
    2877                            .dwattr $C$DW$269, DW_AT_const_value(0xee)
    2878                            .dwattr $C$DW$269, DW_AT_decl_file("C:/ti/workspace1/sensor_cc1350lp/Application/api_mac.h")
    2879                            .dwattr $C$DW$269, DW_AT_decl_line(0x365)
    2880                            .dwattr $C$DW$269, DW_AT_decl_column(0x05)
    2881                    
    2882                    $C$DW$270       .dwtag  DW_TAG_enumerator
    2883                            .dwattr $C$DW$270, DW_AT_name("ApiMac_attribute_diagTxUnicast")
    2884                            .dwattr $C$DW$270, DW_AT_const_value(0xef)
    2885                            .dwattr $C$DW$270, DW_AT_decl_file("C:/ti/workspace1/sensor_cc1350lp/Application/api_mac.h")
    2886                            .dwattr $C$DW$270, DW_AT_decl_line(0x367)
    2887                            .dwattr $C$DW$270, DW_AT_decl_column(0x05)
    2888                    
    2889                    $C$DW$271       .dwtag  DW_TAG_enumerator
    2890                            .dwattr $C$DW$271, DW_AT_name("ApiMac_attribute_diagTxUnicastRetry")
    2891                            .dwattr $C$DW$271, DW_AT_const_value(0xf0)
    2892                            .dwattr $C$DW$271, DW_AT_decl_file("C:/ti/workspace1/sensor_cc1350lp/Application/api_mac.h")
    2893                            .dwattr $C$DW$271, DW_AT_decl_line(0x369)
    2894                            .dwattr $C$DW$271, DW_AT_decl_column(0x05)
    2895                    
    2896                    $C$DW$272       .dwtag  DW_TAG_enumerator
    2897                            .dwattr $C$DW$272, DW_AT_name("ApiMac_attribute_diagTxUnicastFail")
    2898                            .dwattr $C$DW$272, DW_AT_const_value(0xf1)
    2899                            .dwattr $C$DW$272, DW_AT_decl_file("C:/ti/workspace1/sensor_cc1350lp/Application/api_mac.h")
    2900                            .dwattr $C$DW$272, DW_AT_decl_line(0x36b)
    2901                            .dwattr $C$DW$272, DW_AT_decl_column(0x05)
    2902                    
    2903                    $C$DW$273       .dwtag  DW_TAG_enumerator
    2904                            .dwattr $C$DW$273, DW_AT_name("ApiMac_attribute_diagRxSecureFail")
    2905                            .dwattr $C$DW$273, DW_AT_const_value(0xf2)
    2906                            .dwattr $C$DW$273, DW_AT_decl_file("C:/ti/workspace1/sensor_cc1350lp/Application/api_mac.h")
    2907                            .dwattr $C$DW$273, DW_AT_decl_line(0x36d)
    2908                            .dwattr $C$DW$273, DW_AT_decl_column(0x05)
    2909                    
    2910                    $C$DW$274       .dwtag  DW_TAG_enumerator
    2911                            .dwattr $C$DW$274, DW_AT_name("ApiMac_attribute_diagTxSecureFail")
    2912                            .dwattr $C$DW$274, DW_AT_const_value(0xf3)
TI ARM Assembler PC v18.1.1 Wed Apr 25 09:49:08 2018

Tools Copyright (c) 1996-2017 Texas Instruments Incorporated
C:\Users\devops\AppData\Local\Temp\2\{0B978F18-9563-4BBD-B32F-32B01450AE46} PAGE   54

    2913                            .dwattr $C$DW$274, DW_AT_decl_file("C:/ti/workspace1/sensor_cc1350lp/Application/api_mac.h")
    2914                            .dwattr $C$DW$274, DW_AT_decl_line(0x36f)
    2915                            .dwattr $C$DW$274, DW_AT_decl_column(0x05)
    2916                    
    2917                            .dwattr $C$DW$T$712, DW_AT_decl_file("C:/ti/workspace1/sensor_cc1350lp/Application/api_mac.h")
    2918                            .dwattr $C$DW$T$712, DW_AT_decl_line(0x356)
    2919                            .dwattr $C$DW$T$712, DW_AT_decl_column(0x01)
    2920                            .dwendtag $C$DW$T$712
    2921                    
    2922                    $C$DW$T$713     .dwtag  DW_TAG_typedef
    2923                            .dwattr $C$DW$T$713, DW_AT_name("ApiMac_attribute_uint32_t")
    2924                            .dwattr $C$DW$T$713, DW_AT_type(*$C$DW$T$712)
    2925                            .dwattr $C$DW$T$713, DW_AT_language(DW_LANG_C)
    2926                            .dwattr $C$DW$T$713, DW_AT_decl_file("C:/ti/workspace1/sensor_cc1350lp/Application/api_mac.h")
    2927                            .dwattr $C$DW$T$713, DW_AT_decl_line(0x370)
    2928                            .dwattr $C$DW$T$713, DW_AT_decl_column(0x03)
    2929                    
    2930                    
    2931                    $C$DW$T$714     .dwtag  DW_TAG_enumeration_type
    2932                            .dwattr $C$DW$T$714, DW_AT_byte_size(0x01)
    2933                    $C$DW$275       .dwtag  DW_TAG_enumerator
    2934                            .dwattr $C$DW$275, DW_AT_name("ApiMac_attribute_beaconPayload")
    2935                            .dwattr $C$DW$275, DW_AT_const_value(0x45)
    2936                            .dwattr $C$DW$275, DW_AT_decl_file("C:/ti/workspace1/sensor_cc1350lp/Application/api_mac.h")
    2937                            .dwattr $C$DW$275, DW_AT_decl_line(0x376)
    2938                            .dwattr $C$DW$275, DW_AT_decl_column(0x05)
    2939                    
    2940                    $C$DW$276       .dwtag  DW_TAG_enumerator
    2941                            .dwattr $C$DW$276, DW_AT_name("ApiMac_attribute_coordExtendedAddress")
    2942                            .dwattr $C$DW$276, DW_AT_const_value(0x4a)
    2943                            .dwattr $C$DW$276, DW_AT_decl_file("C:/ti/workspace1/sensor_cc1350lp/Application/api_mac.h")
    2944                            .dwattr $C$DW$276, DW_AT_decl_line(0x37b)
    2945                            .dwattr $C$DW$276, DW_AT_decl_column(0x05)
    2946                    
    2947                    $C$DW$277       .dwtag  DW_TAG_enumerator
    2948                            .dwattr $C$DW$277, DW_AT_name("ApiMac_attribute_extendedAddress")
    2949                            .dwattr $C$DW$277, DW_AT_const_value(0xe2)
    2950                            .dwattr $C$DW$277, DW_AT_decl_file("C:/ti/workspace1/sensor_cc1350lp/Application/api_mac.h")
    2951                            .dwattr $C$DW$277, DW_AT_decl_line(0x37d)
    2952                            .dwattr $C$DW$277, DW_AT_decl_column(0x05)
    2953                    
    2954                            .dwattr $C$DW$T$714, DW_AT_decl_file("C:/ti/workspace1/sensor_cc1350lp/Application/api_mac.h")
    2955                            .dwattr $C$DW$T$714, DW_AT_decl_line(0x374)
    2956                            .dwattr $C$DW$T$714, DW_AT_decl_column(0x01)
    2957                            .dwendtag $C$DW$T$714
    2958                    
    2959                    $C$DW$T$715     .dwtag  DW_TAG_typedef
    2960                            .dwattr $C$DW$T$715, DW_AT_name("ApiMac_attribute_array_t")
    2961                            .dwattr $C$DW$T$715, DW_AT_type(*$C$DW$T$714)
    2962                            .dwattr $C$DW$T$715, DW_AT_language(DW_LANG_C)
    2963                            .dwattr $C$DW$T$715, DW_AT_decl_file("C:/ti/workspace1/sensor_cc1350lp/Application/api_mac.h")
    2964                            .dwattr $C$DW$T$715, DW_AT_decl_line(0x37e)
    2965                            .dwattr $C$DW$T$715, DW_AT_decl_column(0x03)
    2966                    
    2967                    
TI ARM Assembler PC v18.1.1 Wed Apr 25 09:49:08 2018

Tools Copyright (c) 1996-2017 Texas Instruments Incorporated
C:\Users\devops\AppData\Local\Temp\2\{0B978F18-9563-4BBD-B32F-32B01450AE46} PAGE   55

    2968                    $C$DW$T$716     .dwtag  DW_TAG_enumeration_type
    2969                            .dwattr $C$DW$T$716, DW_AT_byte_size(0x01)
    2970                    $C$DW$278       .dwtag  DW_TAG_enumerator
    2971                            .dwattr $C$DW$278, DW_AT_name("ApiMac_securityAttribute_securityLevelTableEntries")
    2972                            .dwattr $C$DW$278, DW_AT_const_value(0x83)
    2973                            .dwattr $C$DW$278, DW_AT_decl_file("C:/ti/workspace1/sensor_cc1350lp/Application/api_mac.h")
    2974                            .dwattr $C$DW$278, DW_AT_decl_line(0x384)
    2975                            .dwattr $C$DW$278, DW_AT_decl_column(0x05)
    2976                    
    2977                    $C$DW$279       .dwtag  DW_TAG_enumerator
    2978                            .dwattr $C$DW$279, DW_AT_name("ApiMac_securityAttribute_autoRequestSecurityLevel")
    2979                            .dwattr $C$DW$279, DW_AT_const_value(0x85)
    2980                            .dwattr $C$DW$279, DW_AT_decl_file("C:/ti/workspace1/sensor_cc1350lp/Application/api_mac.h")
    2981                            .dwattr $C$DW$279, DW_AT_decl_line(0x386)
    2982                            .dwattr $C$DW$279, DW_AT_decl_column(0x05)
    2983                    
    2984                    $C$DW$280       .dwtag  DW_TAG_enumerator
    2985                            .dwattr $C$DW$280, DW_AT_name("ApiMac_securityAttribute_autoRequestKeyIdMode")
    2986                            .dwattr $C$DW$280, DW_AT_const_value(0x86)
    2987                            .dwattr $C$DW$280, DW_AT_decl_file("C:/ti/workspace1/sensor_cc1350lp/Application/api_mac.h")
    2988                            .dwattr $C$DW$280, DW_AT_decl_line(0x388)
    2989                            .dwattr $C$DW$280, DW_AT_decl_column(0x05)
    2990                    
    2991                    $C$DW$281       .dwtag  DW_TAG_enumerator
    2992                            .dwattr $C$DW$281, DW_AT_name("ApiMac_securityAttribute_autoRequestKeyIndex")
    2993                            .dwattr $C$DW$281, DW_AT_const_value(0x88)
    2994                            .dwattr $C$DW$281, DW_AT_decl_file("C:/ti/workspace1/sensor_cc1350lp/Application/api_mac.h")
    2995                            .dwattr $C$DW$281, DW_AT_decl_line(0x38a)
    2996                            .dwattr $C$DW$281, DW_AT_decl_column(0x05)
    2997                    
    2998                            .dwattr $C$DW$T$716, DW_AT_decl_file("C:/ti/workspace1/sensor_cc1350lp/Application/api_mac.h")
    2999                            .dwattr $C$DW$T$716, DW_AT_decl_line(0x382)
    3000                            .dwattr $C$DW$T$716, DW_AT_decl_column(0x01)
    3001                            .dwendtag $C$DW$T$716
    3002                    
    3003                    $C$DW$T$717     .dwtag  DW_TAG_typedef
    3004                            .dwattr $C$DW$T$717, DW_AT_name("ApiMac_securityAttribute_uint8_t")
    3005                            .dwattr $C$DW$T$717, DW_AT_type(*$C$DW$T$716)
