TI ARM Assembler PC v18.1.1 Wed Apr 25 09:49:07 2018

Tools Copyright (c) 1996-2017 Texas Instruments Incorporated
C:\Users\devops\AppData\Local\Temp\2\{3ABEE735-5D89-419B-B04E-A704033696CA} PAGE    1

       1                    ;******************************************************************************
       2                    ;* TI ARM C/C++ Codegen                                        PC v18.1.1.LTS *
       3                    ;* Date/Time created: Wed Apr 25 09:49:07 2018                                *
       4                    ;******************************************************************************
       5                            .compiler_opts --abi=eabi --arm_vmrs_si_workaround=off --code_state=16 --diag_wrap=off --embed
       6 00000000                   .thumb
       7                    
       8                    $C$DW$CU        .dwtag  DW_TAG_compile_unit
       9                            .dwattr $C$DW$CU, DW_AT_name("../Application/LaunchPad/board_lcd.c")
      10                            .dwattr $C$DW$CU, DW_AT_producer("TI TI ARM C/C++ Codegen PC v18.1.1.LTS Copyright (c) 1996-20
      11                            .dwattr $C$DW$CU, DW_AT_TI_version(0x01)
      12                            .dwattr $C$DW$CU, DW_AT_comp_dir("C:\ti\workspace1\sensor_cc1350lp\sensor_cc1350lp")
      13 00000000           lcdBuf: .usect  ".bss:lcdBuf",40,1
      14                            .clink ".bss:lcdBuf"
      15                    $C$DW$1 .dwtag  DW_TAG_variable
      16                            .dwattr $C$DW$1, DW_AT_name("lcdBuf")
      17                            .dwattr $C$DW$1, DW_AT_TI_symbol_name("lcdBuf")
      18                            .dwattr $C$DW$1, DW_AT_type(*$C$DW$T$705)
      19                            .dwattr $C$DW$1, DW_AT_location[DW_OP_addr lcdBuf]
      20                            .dwattr $C$DW$1, DW_AT_decl_file("../Application/LaunchPad/board_lcd.c")
      21                            .dwattr $C$DW$1, DW_AT_decl_line(0x4b)
      22                            .dwattr $C$DW$1, DW_AT_decl_column(0x10)
      23                    
      24                    
      25                    $C$DW$2 .dwtag  DW_TAG_subprogram
      26                            .dwattr $C$DW$2, DW_AT_name("xdc_runtime_System_printf__E")
      27                            .dwattr $C$DW$2, DW_AT_TI_symbol_name("xdc_runtime_System_printf__E")
      28                            .dwattr $C$DW$2, DW_AT_type(*$C$DW$T$343)
      29                            .dwattr $C$DW$2, DW_AT_declaration
      30                            .dwattr $C$DW$2, DW_AT_external
      31                            .dwattr $C$DW$2, DW_AT_decl_file("C:/ti/xdctools_3_50_05_12_core/packages/xdc/runtime/System.h
      32                            .dwattr $C$DW$2, DW_AT_decl_line(0x17f)
      33                            .dwattr $C$DW$2, DW_AT_decl_column(0x12)
      34                    $C$DW$3 .dwtag  DW_TAG_formal_parameter
      35                            .dwattr $C$DW$3, DW_AT_type(*$C$DW$T$326)
      36                    
      37                    $C$DW$4 .dwtag  DW_TAG_unspecified_parameters
      38                    
      39                            .dwendtag $C$DW$2
      40                    
      41                    
      42                    $C$DW$5 .dwtag  DW_TAG_subprogram
      43                            .dwattr $C$DW$5, DW_AT_name("strlen")
      44                            .dwattr $C$DW$5, DW_AT_TI_symbol_name("strlen")
      45                            .dwattr $C$DW$5, DW_AT_type(*$C$DW$T$302)
      46                            .dwattr $C$DW$5, DW_AT_declaration
      47                            .dwattr $C$DW$5, DW_AT_external
      48                            .dwattr $C$DW$5, DW_AT_decl_file("C:/ti/ccsv8/tools/compiler/ti-cgt-arm_18.1.1.LTS/include/str
      49                            .dwattr $C$DW$5, DW_AT_decl_line(0x51)
      50                            .dwattr $C$DW$5, DW_AT_decl_column(0x14)
      51                    $C$DW$6 .dwtag  DW_TAG_formal_parameter
      52                            .dwattr $C$DW$6, DW_AT_type(*$C$DW$T$325)
      53                    
      54                            .dwendtag $C$DW$5
      55                    
TI ARM Assembler PC v18.1.1 Wed Apr 25 09:49:07 2018

Tools Copyright (c) 1996-2017 Texas Instruments Incorporated
C:\Users\devops\AppData\Local\Temp\2\{3ABEE735-5D89-419B-B04E-A704033696CA} PAGE    2

      56                    
      57                    $C$DW$7 .dwtag  DW_TAG_subprogram
      58                            .dwattr $C$DW$7, DW_AT_name("memset")
      59                            .dwattr $C$DW$7, DW_AT_TI_symbol_name("memset")
      60                            .dwattr $C$DW$7, DW_AT_type(*$C$DW$T$3)
      61                            .dwattr $C$DW$7, DW_AT_declaration
      62                            .dwattr $C$DW$7, DW_AT_external
      63                            .dwattr $C$DW$7, DW_AT_decl_file("C:/ti/ccsv8/tools/compiler/ti-cgt-arm_18.1.1.LTS/include/str
      64                            .dwattr $C$DW$7, DW_AT_decl_line(0x7a)
      65                            .dwattr $C$DW$7, DW_AT_decl_column(0x16)
      66                    $C$DW$8 .dwtag  DW_TAG_formal_parameter
      67                            .dwattr $C$DW$8, DW_AT_type(*$C$DW$T$3)
      68                    
      69                    $C$DW$9 .dwtag  DW_TAG_formal_parameter
      70                            .dwattr $C$DW$9, DW_AT_type(*$C$DW$T$10)
      71                    
      72                    $C$DW$10        .dwtag  DW_TAG_formal_parameter
      73                            .dwattr $C$DW$10, DW_AT_type(*$C$DW$T$302)
      74                    
      75                            .dwendtag $C$DW$7
      76                    
      77                    
      78                    $C$DW$11        .dwtag  DW_TAG_subprogram
      79                            .dwattr $C$DW$11, DW_AT_name("Util_itoa")
      80                            .dwattr $C$DW$11, DW_AT_TI_symbol_name("Util_itoa")
      81                            .dwattr $C$DW$11, DW_AT_declaration
      82                            .dwattr $C$DW$11, DW_AT_external
      83                            .dwattr $C$DW$11, DW_AT_decl_file("C:/ti/workspace1/sensor_cc1350lp/Application/util.h")
      84                            .dwattr $C$DW$11, DW_AT_decl_line(0x8b)
      85                            .dwattr $C$DW$11, DW_AT_decl_column(0x0d)
      86                    $C$DW$12        .dwtag  DW_TAG_formal_parameter
      87                            .dwattr $C$DW$12, DW_AT_type(*$C$DW$T$111)
      88                    
      89                    $C$DW$13        .dwtag  DW_TAG_formal_parameter
      90                            .dwattr $C$DW$13, DW_AT_type(*$C$DW$T$94)
      91                    
      92                    $C$DW$14        .dwtag  DW_TAG_formal_parameter
      93                            .dwattr $C$DW$14, DW_AT_type(*$C$DW$T$93)
      94                    
      95                            .dwendtag $C$DW$11
      96                    
      97                    ;       C:\ti\ccsv8\tools\compiler\ti-cgt-arm_18.1.1.LTS\bin\armopt.exe C:/ti/workspace1/sensor_cc1350
      98 00000000                   .sect   ".text:Board_Lcd_writeStringValue"
      99                            .clink
     100                            .thumbfunc Board_Lcd_writeStringValue
     101 00000000                   .thumb
     102                            .global Board_Lcd_writeStringValue
     103                    
     104                    $C$DW$15        .dwtag  DW_TAG_subprogram
     105                            .dwattr $C$DW$15, DW_AT_name("Board_Lcd_writeStringValue")
     106                            .dwattr $C$DW$15, DW_AT_low_pc(Board_Lcd_writeStringValue)
     107                            .dwattr $C$DW$15, DW_AT_high_pc(0x00)
     108                            .dwattr $C$DW$15, DW_AT_TI_symbol_name("Board_Lcd_writeStringValue")
     109                            .dwattr $C$DW$15, DW_AT_external
     110                            .dwattr $C$DW$15, DW_AT_TI_begin_file("../Application/LaunchPad/board_lcd.c")
TI ARM Assembler PC v18.1.1 Wed Apr 25 09:49:07 2018

Tools Copyright (c) 1996-2017 Texas Instruments Incorporated
C:\Users\devops\AppData\Local\Temp\2\{3ABEE735-5D89-419B-B04E-A704033696CA} PAGE    3

     111                            .dwattr $C$DW$15, DW_AT_TI_begin_line(0x87)
     112                            .dwattr $C$DW$15, DW_AT_TI_begin_column(0x06)
     113                            .dwattr $C$DW$15, DW_AT_decl_file("../Application/LaunchPad/board_lcd.c")
     114                            .dwattr $C$DW$15, DW_AT_decl_line(0x87)
     115                            .dwattr $C$DW$15, DW_AT_decl_column(0x06)
     116                            .dwattr $C$DW$15, DW_AT_TI_max_frame_size(0x18)
     117                            .dwpsn  file "../Application/LaunchPad/board_lcd.c",line 137,column 1,is_stmt,address Board_Lc
     118                    
     119                            .dwfde $C$DW$CIE, Board_Lcd_writeStringValue
     120                    $C$DW$16        .dwtag  DW_TAG_formal_parameter
     121                            .dwattr $C$DW$16, DW_AT_name("str")
     122                            .dwattr $C$DW$16, DW_AT_TI_symbol_name("str")
     123                            .dwattr $C$DW$16, DW_AT_type(*$C$DW$T$173)
     124                            .dwattr $C$DW$16, DW_AT_location[DW_OP_reg0]
     125                    
     126                    $C$DW$17        .dwtag  DW_TAG_formal_parameter
     127                            .dwattr $C$DW$17, DW_AT_name("value")
     128                            .dwattr $C$DW$17, DW_AT_TI_symbol_name("value")
     129                            .dwattr $C$DW$17, DW_AT_type(*$C$DW$T$111)
     130                            .dwattr $C$DW$17, DW_AT_location[DW_OP_reg1]
     131                    
     132                    $C$DW$18        .dwtag  DW_TAG_formal_parameter
     133                            .dwattr $C$DW$18, DW_AT_name("format")
     134                            .dwattr $C$DW$18, DW_AT_TI_symbol_name("format")
     135                            .dwattr $C$DW$18, DW_AT_type(*$C$DW$T$93)
     136                            .dwattr $C$DW$18, DW_AT_location[DW_OP_reg2]
     137                    
     138                    $C$DW$19        .dwtag  DW_TAG_formal_parameter
     139                            .dwattr $C$DW$19, DW_AT_name("line")
     140                            .dwattr $C$DW$19, DW_AT_TI_symbol_name("line")
     141                            .dwattr $C$DW$19, DW_AT_type(*$C$DW$T$93)
     142                            .dwattr $C$DW$19, DW_AT_location[DW_OP_reg3]
     143                    
     144                    
     145                    ;*****************************************************************************
     146                    ;* FUNCTION NAME: Board_Lcd_writeStringValue                                 *
     147                    ;*                                                                           *
     148                    ;*   Regs Modified     : A1,A2,A3,A4,V1,V2,V3,V4,V5,V9,SP,LR,SR              *
     149                    ;*   Regs Used         : A1,A2,A3,A4,V1,V2,V3,V4,V5,V9,SP,LR,SR              *
     150                    ;*   Local Frame Size  : 0 Args + 0 Auto + 24 Save = 24 byte                 *
     151                    ;*****************************************************************************
     152                    Board_Lcd_writeStringValue:
     153                    ;* --------------------------------------------------------------------------*
     154                    ;* V1    assigned to $O$C1
     155                    ;* V3    assigned to str
     156                    $C$DW$20        .dwtag  DW_TAG_variable
     157                            .dwattr $C$DW$20, DW_AT_name("str")
     158                            .dwattr $C$DW$20, DW_AT_TI_symbol_name("str")
     159                            .dwattr $C$DW$20, DW_AT_type(*$C$DW$T$959)
     160                            .dwattr $C$DW$20, DW_AT_location[DW_OP_reg6]
     161                    
     162                    ;* V2    assigned to len
     163                    $C$DW$21        .dwtag  DW_TAG_variable
     164                            .dwattr $C$DW$21, DW_AT_name("len")
     165                            .dwattr $C$DW$21, DW_AT_TI_symbol_name("len")
TI ARM Assembler PC v18.1.1 Wed Apr 25 09:49:07 2018

Tools Copyright (c) 1996-2017 Texas Instruments Incorporated
C:\Users\devops\AppData\Local\Temp\2\{3ABEE735-5D89-419B-B04E-A704033696CA} PAGE    4

     166                            .dwattr $C$DW$21, DW_AT_type(*$C$DW$T$10)
     167                            .dwattr $C$DW$21, DW_AT_location[DW_OP_reg5]
     168                    
     169                            .dwcfi  cfa_offset, 0
     170 00000000 41F0E92D          PUSH      {V1, V2, V3, V4, V5, LR} ; [DPU_V7M3_PIPE]  ; [KEEP 32-BIT INS]
     171                            .dwcfi  cfa_offset, 24
     172                            .dwcfi  save_reg_to_mem, 14, -4
     173                            .dwcfi  save_reg_to_mem, 8, -8
     174                            .dwcfi  save_reg_to_mem, 7, -12
     175                            .dwcfi  save_reg_to_mem, 6, -16
     176                            .dwcfi  save_reg_to_mem, 5, -20
     177                            .dwcfi  save_reg_to_mem, 4, -24
     178 00000004 4617              MOV       V4, A3                ; [DPU_V7M3_PIPE] |137|  ; [ORIG 16-BIT INS]
     179 00000006 4688              MOV       V5, A2                ; [DPU_V7M3_PIPE] |137|  ; [ORIG 16-BIT INS]
     180 00000008 4606              MOV       V3, A1                ; [DPU_V7M3_PIPE] |137|  ; [ORIG 16-BIT INS]
     181                            .dwpsn  file "../Application/LaunchPad/board_lcd.c",line 138,column 13,is_stmt,isa 1
     182                    $C$DW$22        .dwtag  DW_TAG_TI_branch
     183                            .dwattr $C$DW$22, DW_AT_low_pc(0x00)
     184                            .dwattr $C$DW$22, DW_AT_name("strlen")
     185                            .dwattr $C$DW$22, DW_AT_TI_call
     186                    
     187 0000000a FFFEF7FF!         BL        strlen                ; [DPU_V7M3_PIPE] |138|  ; [KEEP 32-BIT INS]
     188                            ; CALL OCCURS {strlen }          ; [] |138| 
     189                            .dwpsn  file "../Application/LaunchPad/board_lcd.c",line 139,column 5,is_stmt,isa 1
     190 0000000e 4C0D              LDR       V1, $C$CON1           ; [DPU_V7M3_PIPE] |139|  ; [ORIG 16-BIT INS]
     191                            .dwpsn  file "../Application/LaunchPad/board_lcd.c",line 138,column 13,is_stmt,isa 1
     192 00000010 4605              MOV       V2, A1                ; [DPU_V7M3_PIPE] |138|  ; [ORIG 16-BIT INS]
     193                            .dwpsn  file "../Application/LaunchPad/board_lcd.c",line 139,column 5,is_stmt,isa 1
     194 00000012 2100              MOVS      A2, #0                ; [DPU_V7M3_PIPE] |139|  ; [ORIG 16-BIT INS]
     195 00000014 2228              MOVS      A3, #40               ; [DPU_V7M3_PIPE] |139|  ; [ORIG 16-BIT INS]
     196 00000016 4620              MOV       A1, V1                ; [DPU_V7M3_PIPE] |139|  ; [ORIG 16-BIT INS]
     197                    $C$DW$23        .dwtag  DW_TAG_TI_branch
     198                            .dwattr $C$DW$23, DW_AT_low_pc(0x00)
     199                            .dwattr $C$DW$23, DW_AT_name("memset")
     200                            .dwattr $C$DW$23, DW_AT_TI_call
     201                    
     202 00000018 FFFEF7FF!         BL        memset                ; [DPU_V7M3_PIPE] |139|  ; [KEEP 32-BIT INS]
     203                            ; CALL OCCURS {memset }          ; [] |139| 
     204                            .dwpsn  file "../Application/LaunchPad/board_lcd.c",line 140,column 5,is_stmt,isa 1
     205 0000001c 4631              MOV       A2, V3                ; [DPU_V7M3_PIPE] |140|  ; [ORIG 16-BIT INS]
     206 0000001e 462A              MOV       A3, V2                ; [DPU_V7M3_PIPE] |140|  ; [ORIG 16-BIT INS]
     207 00000020 4620              MOV       A1, V1                ; [DPU_V7M3_PIPE] |140|  ; [ORIG 16-BIT INS]
     208                    $C$DW$24        .dwtag  DW_TAG_TI_branch
     209                            .dwattr $C$DW$24, DW_AT_low_pc(0x00)
     210                            .dwattr $C$DW$24, DW_AT_name("memcpy")
     211                            .dwattr $C$DW$24, DW_AT_TI_call
     212                    
     213 00000022 FFFEF7FF!         BL        memcpy                ; [DPU_V7M3_PIPE] |140|  ; [KEEP 32-BIT INS]
     214                            ; CALL OCCURS {memcpy }          ; [] |140| 
     215                            .dwpsn  file "../Application/LaunchPad/board_lcd.c",line 141,column 5,is_stmt,isa 1
     216 00000026 4640              MOV       A1, V5                ; [DPU_V7M3_PIPE] |141|  ; [ORIG 16-BIT INS]
     217 00000028 463A              MOV       A3, V4                ; [DPU_V7M3_PIPE] |141|  ; [ORIG 16-BIT INS]
     218 0000002a 1961              ADDS      A2, V1, V2            ; [DPU_V7M3_PIPE] |141|  ; [ORIG 16-BIT INS]
     219                    $C$DW$25        .dwtag  DW_TAG_TI_branch
     220                            .dwattr $C$DW$25, DW_AT_low_pc(0x00)
TI ARM Assembler PC v18.1.1 Wed Apr 25 09:49:07 2018

Tools Copyright (c) 1996-2017 Texas Instruments Incorporated
C:\Users\devops\AppData\Local\Temp\2\{3ABEE735-5D89-419B-B04E-A704033696CA} PAGE    5

     221                            .dwattr $C$DW$25, DW_AT_name("Util_itoa")
     222                            .dwattr $C$DW$25, DW_AT_TI_call
     223                    
     224 0000002c FFFEF7FF!         BL        Util_itoa             ; [DPU_V7M3_PIPE] |141|  ; [KEEP 32-BIT INS]
     225                            ; CALL OCCURS {Util_itoa }       ; [] |141| 
     226                            .dwpsn  file "../Application/LaunchPad/board_lcd.c",line 144,column 5,is_stmt,isa 1
     227 00000030 4620              MOV       A1, V1                ; [DPU_V7M3_PIPE] |144|  ; [ORIG 16-BIT INS]
     228                    $C$DW$26        .dwtag  DW_TAG_TI_branch
     229                            .dwattr $C$DW$26, DW_AT_low_pc(0x00)
     230                            .dwattr $C$DW$26, DW_AT_name("xdc_runtime_System_printf__E")
     231                            .dwattr $C$DW$26, DW_AT_TI_call
     232                    
     233 00000032 FFFEF7FF!         BL        xdc_runtime_System_printf__E ; [DPU_V7M3_PIPE] |144|  ; [KEEP 32-BIT INS]
     234                            ; CALL OCCURS {xdc_runtime_System_printf__E }  ; [] |144| 
     235                            .dwpsn  file "../Application/LaunchPad/board_lcd.c",line 145,column 5,is_stmt,isa 1
     236 00000036 A002              ADR       A1, $C$SL1            ; [DPU_V7M3_PIPE] |145|  ; [ORIG 16-BIT INS]
     237                    $C$DW$27        .dwtag  DW_TAG_TI_branch
     238                            .dwattr $C$DW$27, DW_AT_low_pc(0x00)
     239                            .dwattr $C$DW$27, DW_AT_name("xdc_runtime_System_printf__E")
     240                            .dwattr $C$DW$27, DW_AT_TI_call
     241                    
     242 00000038 FFFEF7FF!         BL        xdc_runtime_System_printf__E ; [DPU_V7M3_PIPE] |145|  ; [KEEP 32-BIT INS]
     243                            ; CALL OCCURS {xdc_runtime_System_printf__E }  ; [] |145| 
     244                    $C$DW$28        .dwtag  DW_TAG_TI_branch
     245                            .dwattr $C$DW$28, DW_AT_low_pc(0x00)
     246                            .dwattr $C$DW$28, DW_AT_TI_return
     247                    
     248 0000003c 81F0E8BD          POP       {V1, V2, V3, V4, V5, PC} ; [DPU_V7M3_PIPE]  ; [KEEP 32-BIT INS]
     249                            .dwcfi  cfa_offset, 0
     250                            .dwcfi  restore_reg, 8
     251                            .dwcfi  restore_reg, 7
     252                            .dwcfi  restore_reg, 6
     253                            .dwcfi  restore_reg, 5
     254                            .dwcfi  restore_reg, 4
     255                            ; BRANCH OCCURS                  ; [] 
     256                            .dwattr $C$DW$15, DW_AT_TI_end_file("../Application/LaunchPad/board_lcd.c")
     257                            .dwattr $C$DW$15, DW_AT_TI_end_line(0x9c)
     258                            .dwattr $C$DW$15, DW_AT_TI_end_column(0x01)
     259                            .dwendentry
     260                            .dwendtag $C$DW$15
     261                    
     262 00000000                   .sect   ".text:Board_Lcd_writeString"
     263                            .clink
     264                            .thumbfunc Board_Lcd_writeString
     265 00000000                   .thumb
     266                            .global Board_Lcd_writeString
     267                    
     268                    $C$DW$29        .dwtag  DW_TAG_subprogram
     269                            .dwattr $C$DW$29, DW_AT_name("Board_Lcd_writeString")
     270                            .dwattr $C$DW$29, DW_AT_low_pc(Board_Lcd_writeString)
     271                            .dwattr $C$DW$29, DW_AT_high_pc(0x00)
     272                            .dwattr $C$DW$29, DW_AT_TI_symbol_name("Board_Lcd_writeString")
     273                            .dwattr $C$DW$29, DW_AT_external
     274                            .dwattr $C$DW$29, DW_AT_TI_begin_file("../Application/LaunchPad/board_lcd.c")
     275                            .dwattr $C$DW$29, DW_AT_TI_begin_line(0x71)
TI ARM Assembler PC v18.1.1 Wed Apr 25 09:49:07 2018

Tools Copyright (c) 1996-2017 Texas Instruments Incorporated
C:\Users\devops\AppData\Local\Temp\2\{3ABEE735-5D89-419B-B04E-A704033696CA} PAGE    6

     276                            .dwattr $C$DW$29, DW_AT_TI_begin_column(0x06)
     277                            .dwattr $C$DW$29, DW_AT_decl_file("../Application/LaunchPad/board_lcd.c")
     278                            .dwattr $C$DW$29, DW_AT_decl_line(0x71)
     279                            .dwattr $C$DW$29, DW_AT_decl_column(0x06)
     280                            .dwattr $C$DW$29, DW_AT_TI_max_frame_size(0x08)
     281                            .dwpsn  file "../Application/LaunchPad/board_lcd.c",line 114,column 1,is_stmt,address Board_Lc
     282                    
     283                            .dwfde $C$DW$CIE, Board_Lcd_writeString
     284                    $C$DW$30        .dwtag  DW_TAG_formal_parameter
     285                            .dwattr $C$DW$30, DW_AT_name("str")
     286                            .dwattr $C$DW$30, DW_AT_TI_symbol_name("str")
     287                            .dwattr $C$DW$30, DW_AT_type(*$C$DW$T$173)
     288                            .dwattr $C$DW$30, DW_AT_location[DW_OP_reg0]
     289                    
     290                    $C$DW$31        .dwtag  DW_TAG_formal_parameter
     291                            .dwattr $C$DW$31, DW_AT_name("line")
     292                            .dwattr $C$DW$31, DW_AT_TI_symbol_name("line")
     293                            .dwattr $C$DW$31, DW_AT_type(*$C$DW$T$93)
     294                            .dwattr $C$DW$31, DW_AT_location[DW_OP_reg1]
     295                    
     296                    
     297                    ;*****************************************************************************
     298                    ;* FUNCTION NAME: Board_Lcd_writeString                                      *
     299                    ;*                                                                           *
     300                    ;*   Regs Modified     : A1,A2,A3,A4,V9,SP,LR,SR                             *
     301                    ;*   Regs Used         : A1,A2,A3,A4,V9,SP,LR,SR                             *
     302                    ;*   Local Frame Size  : 0 Args + 0 Auto + 4 Save = 4 byte                   *
     303                    ;*****************************************************************************
     304 00000000           Board_Lcd_writeString:
     305                    ;* --------------------------------------------------------------------------*
     306                            .dwcfi  cfa_offset, 0
     307 00000000 B508              PUSH      {A4, LR}              ; [DPU_V7M3_PIPE]  ; [ORIG 16-BIT INS]
     308                            .dwcfi  cfa_offset, 8
     309                            .dwcfi  save_reg_to_mem, 14, -4
     310                            .dwcfi  save_reg_to_mem, 3, -8
     311                            .dwpsn  file "../Application/LaunchPad/board_lcd.c",line 116,column 5,is_stmt,isa 1
     312                    $C$DW$32        .dwtag  DW_TAG_TI_branch
     313                            .dwattr $C$DW$32, DW_AT_low_pc(0x00)
     314                            .dwattr $C$DW$32, DW_AT_name("xdc_runtime_System_printf__E")
     315                            .dwattr $C$DW$32, DW_AT_TI_call
     316                    
     317 00000002 FFFEF7FF!         BL        xdc_runtime_System_printf__E ; [DPU_V7M3_PIPE] |116|  ; [KEEP 32-BIT INS]
     318                            ; CALL OCCURS {xdc_runtime_System_printf__E }  ; [] |116| 
     319                            .dwpsn  file "../Application/LaunchPad/board_lcd.c",line 117,column 5,is_stmt,isa 1
     320 00000006 A002              ADR       A1, $C$SL2            ; [DPU_V7M3_PIPE] |117|  ; [ORIG 16-BIT INS]
     321                    $C$DW$33        .dwtag  DW_TAG_TI_branch
     322                            .dwattr $C$DW$33, DW_AT_low_pc(0x00)
     323                            .dwattr $C$DW$33, DW_AT_name("xdc_runtime_System_printf__E")
     324                            .dwattr $C$DW$33, DW_AT_TI_call
     325                    
     326 00000008 FFFEF7FF!         BL        xdc_runtime_System_printf__E ; [DPU_V7M3_PIPE] |117|  ; [KEEP 32-BIT INS]
     327                            ; CALL OCCURS {xdc_runtime_System_printf__E }  ; [] |117| 
     328                    $C$DW$34        .dwtag  DW_TAG_TI_branch
     329                            .dwattr $C$DW$34, DW_AT_low_pc(0x00)
     330                            .dwattr $C$DW$34, DW_AT_TI_return
TI ARM Assembler PC v18.1.1 Wed Apr 25 09:49:07 2018

Tools Copyright (c) 1996-2017 Texas Instruments Incorporated
C:\Users\devops\AppData\Local\Temp\2\{3ABEE735-5D89-419B-B04E-A704033696CA} PAGE    7

     331                    
     332 0000000c BD08              POP       {A4, PC}              ; [DPU_V7M3_PIPE]  ; [ORIG 16-BIT INS]
     333                            .dwcfi  cfa_offset, 0
     334                            .dwcfi  restore_reg, 3
     335                            ; BRANCH OCCURS                  ; [] 
     336                            .dwattr $C$DW$29, DW_AT_TI_end_file("../Application/LaunchPad/board_lcd.c")
     337                            .dwattr $C$DW$29, DW_AT_TI_end_line(0x80)
     338                            .dwattr $C$DW$29, DW_AT_TI_end_column(0x01)
     339                            .dwendentry
     340                            .dwendtag $C$DW$29
     341                    
     342 00000000                   .sect   ".text:Board_LCD_open"
     343                            .clink
     344                            .thumbfunc Board_LCD_open
     345 00000000                   .thumb
     346                            .global Board_LCD_open
     347                    
     348                    $C$DW$35        .dwtag  DW_TAG_subprogram
     349                            .dwattr $C$DW$35, DW_AT_name("Board_LCD_open")
     350                            .dwattr $C$DW$35, DW_AT_low_pc(Board_LCD_open)
     351                            .dwattr $C$DW$35, DW_AT_high_pc(0x00)
     352                            .dwattr $C$DW$35, DW_AT_TI_symbol_name("Board_LCD_open")
     353                            .dwattr $C$DW$35, DW_AT_external
     354                            .dwattr $C$DW$35, DW_AT_TI_begin_file("../Application/LaunchPad/board_lcd.c")
     355                            .dwattr $C$DW$35, DW_AT_TI_begin_line(0x5f)
     356                            .dwattr $C$DW$35, DW_AT_TI_begin_column(0x06)
     357                            .dwattr $C$DW$35, DW_AT_decl_file("../Application/LaunchPad/board_lcd.c")
     358                            .dwattr $C$DW$35, DW_AT_decl_line(0x5f)
     359                            .dwattr $C$DW$35, DW_AT_decl_column(0x06)
     360                            .dwattr $C$DW$35, DW_AT_TI_max_frame_size(0x00)
     361                            .dwpsn  file "../Application/LaunchPad/board_lcd.c",line 96,column 1,is_stmt,address Board_LCD
     362                    
     363                            .dwfde $C$DW$CIE, Board_LCD_open
     364                    
     365                    ;*****************************************************************************
     366                    ;* FUNCTION NAME: Board_LCD_open                                             *
     367                    ;*                                                                           *
     368                    ;*   Regs Modified     :                                                     *
     369                    ;*   Regs Used         : LR                                                  *
     370                    ;*   Local Frame Size  : 0 Args + 0 Auto + 0 Save = 0 byte                   *
     371                    ;*****************************************************************************
     372 00000000           Board_LCD_open:
     373                    ;* --------------------------------------------------------------------------*
     374                            .dwcfi  cfa_offset, 0
     375                    $C$DW$36        .dwtag  DW_TAG_TI_branch
     376                            .dwattr $C$DW$36, DW_AT_low_pc(0x00)
     377                            .dwattr $C$DW$36, DW_AT_TI_return
     378                    
     379 00000000 4770              BX        LR                    ; [DPU_V7M3_PIPE]  ; [ORIG 16-BIT INS]
     380                            ; BRANCH OCCURS                  ; [] 
     381                            .dwattr $C$DW$35, DW_AT_TI_end_file("../Application/LaunchPad/board_lcd.c")
     382                            .dwattr $C$DW$35, DW_AT_TI_end_line(0x69)
     383                            .dwattr $C$DW$35, DW_AT_TI_end_column(0x01)
     384                            .dwendentry
     385                            .dwendtag $C$DW$35
TI ARM Assembler PC v18.1.1 Wed Apr 25 09:49:07 2018

Tools Copyright (c) 1996-2017 Texas Instruments Incorporated
C:\Users\devops\AppData\Local\Temp\2\{3ABEE735-5D89-419B-B04E-A704033696CA} PAGE    8

     386                    
     387                    ;******************************************************************************
     388                    ;* STRINGS                                                                    *
     389                    ;******************************************************************************
     390 00000040                   .sect   ".text:Board_Lcd_writeStringValue"
     391                            .align  4
     392 00000040 0D        ||$C$SL1||:     .string 13,10,0
         00000041 0A       
         00000042 00       
     393                    ;******************************************************************************
     394                    ;* CONSTANT TABLE                                                             *
     395                    ;******************************************************************************
     396 00000043                   .sect   ".text:Board_Lcd_writeStringValue"
     397                            .align  4
     398 00000044 00000000! ||$C$CON1||:    .bits   lcdBuf,32
     399                    ;******************************************************************************
     400                    ;* STRINGS                                                                    *
     401                    ;******************************************************************************
     402 0000000e                   .sect   ".text:Board_Lcd_writeString"
     403                            .align  4
     404 00000010 0D        ||$C$SL2||:     .string 13,10,0
         00000011 0A       
         00000012 00       
     405                    ;*****************************************************************************
     406                    ;* UNDEFINED EXTERNAL REFERENCES                                             *
     407                    ;*****************************************************************************
     408                            .global xdc_runtime_System_printf__E
     409                            .global strlen
     410                            .global memset
     411                            .global Util_itoa
     412                            .global memcpy
     413                    
     414                    ;******************************************************************************
     415                    ;* BUILD ATTRIBUTES                                                           *
     416                    ;******************************************************************************
     417                            .battr "aeabi", Tag_File, 1, Tag_ABI_PCS_wchar_t(2)
     418                            .battr "aeabi", Tag_File, 1, Tag_ABI_FP_rounding(0)
     419                            .battr "aeabi", Tag_File, 1, Tag_ABI_FP_denormal(0)
     420                            .battr "aeabi", Tag_File, 1, Tag_ABI_FP_exceptions(0)
     421                            .battr "aeabi", Tag_File, 1, Tag_ABI_FP_number_model(1)
     422                            .battr "aeabi", Tag_File, 1, Tag_ABI_enum_size(1)
     423                            .battr "aeabi", Tag_File, 1, Tag_ABI_optimization_goals(0)
     424                            .battr "aeabi", Tag_File, 1, Tag_ABI_FP_optimization_goals(0)
     425                            .battr "TI", Tag_File, 1, Tag_Bitfield_layout(2)
     426                            .battr "aeabi", Tag_File, 1, Tag_ABI_VFP_args(3)
     427                            .battr "TI", Tag_File, 1, Tag_FP_interface(1)
     428                    
     429                    ;******************************************************************************
     430                    ;* TYPE INFORMATION                                                           *
     431                    ;******************************************************************************
     432                    
     433                    $C$DW$T$472     .dwtag  DW_TAG_enumeration_type
     434                            .dwattr $C$DW$T$472, DW_AT_byte_size(0x01)
     435                    $C$DW$37        .dwtag  DW_TAG_enumerator
     436                            .dwattr $C$DW$37, DW_AT_name("PIN_SUCCESS")
TI ARM Assembler PC v18.1.1 Wed Apr 25 09:49:07 2018

Tools Copyright (c) 1996-2017 Texas Instruments Incorporated
C:\Users\devops\AppData\Local\Temp\2\{3ABEE735-5D89-419B-B04E-A704033696CA} PAGE    9

     437                            .dwattr $C$DW$37, DW_AT_const_value(0x00)
     438                            .dwattr $C$DW$37, DW_AT_decl_file("C:/ti/simplelink_cc13x0_sdk_2_10_00_36/source/ti/drivers/PI
     439                            .dwattr $C$DW$37, DW_AT_decl_line(0x2cd)
     440                            .dwattr $C$DW$37, DW_AT_decl_column(0x05)
     441                    
     442                    $C$DW$38        .dwtag  DW_TAG_enumerator
     443                            .dwattr $C$DW$38, DW_AT_name("PIN_ALREADY_ALLOCATED")
     444                            .dwattr $C$DW$38, DW_AT_const_value(0x01)
     445                            .dwattr $C$DW$38, DW_AT_decl_file("C:/ti/simplelink_cc13x0_sdk_2_10_00_36/source/ti/drivers/PI
     446                            .dwattr $C$DW$38, DW_AT_decl_line(0x2ce)
     447                            .dwattr $C$DW$38, DW_AT_decl_column(0x05)
     448                    
     449                    $C$DW$39        .dwtag  DW_TAG_enumerator
     450                            .dwattr $C$DW$39, DW_AT_name("PIN_NO_ACCESS")
     451                            .dwattr $C$DW$39, DW_AT_const_value(0x02)
     452                            .dwattr $C$DW$39, DW_AT_decl_file("C:/ti/simplelink_cc13x0_sdk_2_10_00_36/source/ti/drivers/PI
     453                            .dwattr $C$DW$39, DW_AT_decl_line(0x2cf)
     454                            .dwattr $C$DW$39, DW_AT_decl_column(0x05)
     455                    
     456                    $C$DW$40        .dwtag  DW_TAG_enumerator
     457                            .dwattr $C$DW$40, DW_AT_name("PIN_UNSUPPORTED")
     458                            .dwattr $C$DW$40, DW_AT_const_value(0x03)
     459                            .dwattr $C$DW$40, DW_AT_decl_file("C:/ti/simplelink_cc13x0_sdk_2_10_00_36/source/ti/drivers/PI
     460                            .dwattr $C$DW$40, DW_AT_decl_line(0x2d0)
     461                            .dwattr $C$DW$40, DW_AT_decl_column(0x05)
     462                    
     463                            .dwattr $C$DW$T$472, DW_AT_decl_file("C:/ti/simplelink_cc13x0_sdk_2_10_00_36/source/ti/drivers
     464                            .dwattr $C$DW$T$472, DW_AT_decl_line(0x2cc)
     465                            .dwattr $C$DW$T$472, DW_AT_decl_column(0x0e)
     466                            .dwendtag $C$DW$T$472
     467                    
     468                    $C$DW$T$473     .dwtag  DW_TAG_typedef
     469                            .dwattr $C$DW$T$473, DW_AT_name("PIN_Status")
     470                            .dwattr $C$DW$T$473, DW_AT_type(*$C$DW$T$472)
     471                            .dwattr $C$DW$T$473, DW_AT_language(DW_LANG_C)
     472                            .dwattr $C$DW$T$473, DW_AT_decl_file("C:/ti/simplelink_cc13x0_sdk_2_10_00_36/source/ti/drivers
     473                            .dwattr $C$DW$T$473, DW_AT_decl_line(0x2d1)
     474                            .dwattr $C$DW$T$473, DW_AT_decl_column(0x03)
     475                    
     476                    
     477                    $C$DW$T$88      .dwtag  DW_TAG_structure_type
     478                            .dwattr $C$DW$T$88, DW_AT_byte_size(0x10)
     479                    $C$DW$41        .dwtag  DW_TAG_member
     480                            .dwattr $C$DW$41, DW_AT_type(*$C$DW$T$14)
     481                            .dwattr $C$DW$41, DW_AT_name("__max_align1")
     482                            .dwattr $C$DW$41, DW_AT_TI_symbol_name("__max_align1")
     483                            .dwattr $C$DW$41, DW_AT_data_member_location[DW_OP_plus_uconst 0x0]
     484                            .dwattr $C$DW$41, DW_AT_accessibility(DW_ACCESS_public)
     485                            .dwattr $C$DW$41, DW_AT_decl_file("C:/ti/ccsv8/tools/compiler/ti-cgt-arm_18.1.1.LTS/include/sy
     486                            .dwattr $C$DW$41, DW_AT_decl_line(0x70)
     487                            .dwattr $C$DW$41, DW_AT_decl_column(0x0c)
     488                    
     489                    $C$DW$42        .dwtag  DW_TAG_member
     490                            .dwattr $C$DW$42, DW_AT_type(*$C$DW$T$18)
     491                            .dwattr $C$DW$42, DW_AT_name("__max_align2")
TI ARM Assembler PC v18.1.1 Wed Apr 25 09:49:07 2018

Tools Copyright (c) 1996-2017 Texas Instruments Incorporated
C:\Users\devops\AppData\Local\Temp\2\{3ABEE735-5D89-419B-B04E-A704033696CA} PAGE   10

     492                            .dwattr $C$DW$42, DW_AT_TI_symbol_name("__max_align2")
     493                            .dwattr $C$DW$42, DW_AT_data_member_location[DW_OP_plus_uconst 0x8]
     494                            .dwattr $C$DW$42, DW_AT_accessibility(DW_ACCESS_public)
     495                            .dwattr $C$DW$42, DW_AT_decl_file("C:/ti/ccsv8/tools/compiler/ti-cgt-arm_18.1.1.LTS/include/sy
     496                            .dwattr $C$DW$42, DW_AT_decl_line(0x71)
     497                            .dwattr $C$DW$42, DW_AT_decl_column(0x0e)
     498                    
     499                            .dwattr $C$DW$T$88, DW_AT_decl_file("C:/ti/ccsv8/tools/compiler/ti-cgt-arm_18.1.1.LTS/include/
     500                            .dwattr $C$DW$T$88, DW_AT_decl_line(0x6f)
     501                            .dwattr $C$DW$T$88, DW_AT_decl_column(0x10)
     502                            .dwendtag $C$DW$T$88
     503                    
     504                    $C$DW$T$474     .dwtag  DW_TAG_typedef
     505                            .dwattr $C$DW$T$474, DW_AT_name("__max_align_t")
     506                            .dwattr $C$DW$T$474, DW_AT_type(*$C$DW$T$88)
     507                            .dwattr $C$DW$T$474, DW_AT_language(DW_LANG_C)
     508                            .dwattr $C$DW$T$474, DW_AT_decl_file("C:/ti/ccsv8/tools/compiler/ti-cgt-arm_18.1.1.LTS/include
     509                            .dwattr $C$DW$T$474, DW_AT_decl_line(0x72)
     510                            .dwattr $C$DW$T$474, DW_AT_decl_column(0x03)
     511                    
     512                    
     513                    $C$DW$T$91      .dwtag  DW_TAG_structure_type
     514                            .dwattr $C$DW$T$91, DW_AT_byte_size(0x08)
     515                    $C$DW$43        .dwtag  DW_TAG_member
     516                            .dwattr $C$DW$43, DW_AT_type(*$C$DW$T$90)
     517                            .dwattr $C$DW$43, DW_AT_name("fg")
     518                            .dwattr $C$DW$43, DW_AT_TI_symbol_name("fg")
     519                            .dwattr $C$DW$43, DW_AT_data_member_location[DW_OP_plus_uconst 0x0]
     520                            .dwattr $C$DW$43, DW_AT_accessibility(DW_ACCESS_public)
     521                            .dwattr $C$DW$43, DW_AT_decl_file("C:/ti/simplelink_cc13x0_sdk_2_10_00_36/source/ti/display/Di
     522                            .dwattr $C$DW$43, DW_AT_decl_line(0x52)
     523                            .dwattr $C$DW$43, DW_AT_decl_column(0x0e)
     524                    
     525                    $C$DW$44        .dwtag  DW_TAG_member
     526                            .dwattr $C$DW$44, DW_AT_type(*$C$DW$T$90)
     527                            .dwattr $C$DW$44, DW_AT_name("bg")
     528                            .dwattr $C$DW$44, DW_AT_TI_symbol_name("bg")
     529                            .dwattr $C$DW$44, DW_AT_data_member_location[DW_OP_plus_uconst 0x4]
     530                            .dwattr $C$DW$44, DW_AT_accessibility(DW_ACCESS_public)
     531                            .dwattr $C$DW$44, DW_AT_decl_file("C:/ti/simplelink_cc13x0_sdk_2_10_00_36/source/ti/display/Di
     532                            .dwattr $C$DW$44, DW_AT_decl_line(0x53)
     533                            .dwattr $C$DW$44, DW_AT_decl_column(0x0e)
     534                    
     535                            .dwattr $C$DW$T$91, DW_AT_decl_file("C:/ti/simplelink_cc13x0_sdk_2_10_00_36/source/ti/display/
     536                            .dwattr $C$DW$T$91, DW_AT_decl_line(0x51)
     537                            .dwattr $C$DW$T$91, DW_AT_decl_column(0x01)
     538                            .dwendtag $C$DW$T$91
     539                    
     540                    $C$DW$T$149     .dwtag  DW_TAG_typedef
     541                            .dwattr $C$DW$T$149, DW_AT_name("DisplaySharpColor_t")
     542                            .dwattr $C$DW$T$149, DW_AT_type(*$C$DW$T$91)
     543                            .dwattr $C$DW$T$149, DW_AT_language(DW_LANG_C)
     544                            .dwattr $C$DW$T$149, DW_AT_decl_file("C:/ti/simplelink_cc13x0_sdk_2_10_00_36/source/ti/display
     545                            .dwattr $C$DW$T$149, DW_AT_decl_line(0x54)
     546                            .dwattr $C$DW$T$149, DW_AT_decl_column(0x03)
TI ARM Assembler PC v18.1.1 Wed Apr 25 09:49:07 2018

Tools Copyright (c) 1996-2017 Texas Instruments Incorporated
C:\Users\devops\AppData\Local\Temp\2\{3ABEE735-5D89-419B-B04E-A704033696CA} PAGE   11

     547                    
     548                    
     549                    $C$DW$T$134     .dwtag  DW_TAG_structure_type
     550                            .dwattr $C$DW$T$134, DW_AT_byte_size(0x4c)
     551                    $C$DW$45        .dwtag  DW_TAG_member
     552                            .dwattr $C$DW$45, DW_AT_type(*$C$DW$T$97)
     553                            .dwattr $C$DW$45, DW_AT_name("Crc32")
     554                            .dwattr $C$DW$45, DW_AT_TI_symbol_name("Crc32")
     555                            .dwattr $C$DW$45, DW_AT_data_member_location[DW_OP_plus_uconst 0x0]
     556                            .dwattr $C$DW$45, DW_AT_accessibility(DW_ACCESS_public)
     557                            .dwattr $C$DW$45, DW_AT_decl_file("C:\ti\simplelink_cc13x0_sdk_2_10_00_36\source\ti\devices\cc
     558                            .dwattr $C$DW$45, DW_AT_decl_line(0x76)
     559                            .dwattr $C$DW$45, DW_AT_decl_column(0x25)
     560                    
     561                    $C$DW$46        .dwtag  DW_TAG_member
     562                            .dwattr $C$DW$46, DW_AT_type(*$C$DW$T$100)
     563                            .dwattr $C$DW$46, DW_AT_name("FlashGetSize")
     564                            .dwattr $C$DW$46, DW_AT_TI_symbol_name("FlashGetSize")
     565                            .dwattr $C$DW$46, DW_AT_data_member_location[DW_OP_plus_uconst 0x4]
     566                            .dwattr $C$DW$46, DW_AT_accessibility(DW_ACCESS_public)
     567                            .dwattr $C$DW$46, DW_AT_decl_file("C:\ti\simplelink_cc13x0_sdk_2_10_00_36\source\ti\devices\cc
     568                            .dwattr $C$DW$46, DW_AT_decl_line(0x77)
     569                            .dwattr $C$DW$46, DW_AT_decl_column(0x25)
     570                    
     571                    $C$DW$47        .dwtag  DW_TAG_member
     572                            .dwattr $C$DW$47, DW_AT_type(*$C$DW$T$101)
     573                            .dwattr $C$DW$47, DW_AT_name("GetChipId")
     574                            .dwattr $C$DW$47, DW_AT_TI_symbol_name("GetChipId")
     575                            .dwattr $C$DW$47, DW_AT_data_member_location[DW_OP_plus_uconst 0x8]
     576                            .dwattr $C$DW$47, DW_AT_accessibility(DW_ACCESS_public)
     577                            .dwattr $C$DW$47, DW_AT_decl_file("C:\ti\simplelink_cc13x0_sdk_2_10_00_36\source\ti\devices\cc
     578                            .dwattr $C$DW$47, DW_AT_decl_line(0x78)
     579                            .dwattr $C$DW$47, DW_AT_decl_column(0x25)
     580                    
     581                    $C$DW$48        .dwtag  DW_TAG_member
     582                            .dwattr $C$DW$48, DW_AT_type(*$C$DW$T$104)
     583                            .dwattr $C$DW$48, DW_AT_name("ReservedLocation1")
     584                            .dwattr $C$DW$48, DW_AT_TI_symbol_name("ReservedLocation1")
     585                            .dwattr $C$DW$48, DW_AT_data_member_location[DW_OP_plus_uconst 0xc]
     586                            .dwattr $C$DW$48, DW_AT_accessibility(DW_ACCESS_public)
     587                            .dwattr $C$DW$48, DW_AT_decl_file("C:\ti\simplelink_cc13x0_sdk_2_10_00_36\source\ti\devices\cc
     588                            .dwattr $C$DW$48, DW_AT_decl_line(0x79)
     589                            .dwattr $C$DW$48, DW_AT_decl_column(0x25)
     590                    
     591                    $C$DW$49        .dwtag  DW_TAG_member
     592                            .dwattr $C$DW$49, DW_AT_type(*$C$DW$T$105)
     593                            .dwattr $C$DW$49, DW_AT_name("ReservedLocation2")
     594                            .dwattr $C$DW$49, DW_AT_TI_symbol_name("ReservedLocation2")
     595                            .dwattr $C$DW$49, DW_AT_data_member_location[DW_OP_plus_uconst 0x10]
     596                            .dwattr $C$DW$49, DW_AT_accessibility(DW_ACCESS_public)
     597                            .dwattr $C$DW$49, DW_AT_decl_file("C:\ti\simplelink_cc13x0_sdk_2_10_00_36\source\ti\devices\cc
     598                            .dwattr $C$DW$49, DW_AT_decl_line(0x7a)
     599                            .dwattr $C$DW$49, DW_AT_decl_column(0x25)
     600                    
     601                    $C$DW$50        .dwtag  DW_TAG_member
TI ARM Assembler PC v18.1.1 Wed Apr 25 09:49:07 2018

Tools Copyright (c) 1996-2017 Texas Instruments Incorporated
C:\Users\devops\AppData\Local\Temp\2\{3ABEE735-5D89-419B-B04E-A704033696CA} PAGE   12

     602                            .dwattr $C$DW$50, DW_AT_type(*$C$DW$T$106)
     603                            .dwattr $C$DW$50, DW_AT_name("ReservedLocation3")
     604                            .dwattr $C$DW$50, DW_AT_TI_symbol_name("ReservedLocation3")
     605                            .dwattr $C$DW$50, DW_AT_data_member_location[DW_OP_plus_uconst 0x14]
     606                            .dwattr $C$DW$50, DW_AT_accessibility(DW_ACCESS_public)
     607                            .dwattr $C$DW$50, DW_AT_decl_file("C:\ti\simplelink_cc13x0_sdk_2_10_00_36\source\ti\devices\cc
     608                            .dwattr $C$DW$50, DW_AT_decl_line(0x7b)
     609                            .dwattr $C$DW$50, DW_AT_decl_column(0x25)
     610                    
     611                    $C$DW$51        .dwtag  DW_TAG_member
     612                            .dwattr $C$DW$51, DW_AT_type(*$C$DW$T$109)
     613                            .dwattr $C$DW$51, DW_AT_name("ResetDevice")
     614                            .dwattr $C$DW$51, DW_AT_TI_symbol_name("ResetDevice")
     615                            .dwattr $C$DW$51, DW_AT_data_member_location[DW_OP_plus_uconst 0x18]
     616                            .dwattr $C$DW$51, DW_AT_accessibility(DW_ACCESS_public)
     617                            .dwattr $C$DW$51, DW_AT_decl_file("C:\ti\simplelink_cc13x0_sdk_2_10_00_36\source\ti\devices\cc
     618                            .dwattr $C$DW$51, DW_AT_decl_line(0x7c)
     619                            .dwattr $C$DW$51, DW_AT_decl_column(0x25)
     620                    
     621                    $C$DW$52        .dwtag  DW_TAG_member
     622                            .dwattr $C$DW$52, DW_AT_type(*$C$DW$T$115)
     623                            .dwattr $C$DW$52, DW_AT_name("Fletcher32")
     624                            .dwattr $C$DW$52, DW_AT_TI_symbol_name("Fletcher32")
     625                            .dwattr $C$DW$52, DW_AT_data_member_location[DW_OP_plus_uconst 0x1c]
     626                            .dwattr $C$DW$52, DW_AT_accessibility(DW_ACCESS_public)
     627                            .dwattr $C$DW$52, DW_AT_decl_file("C:\ti\simplelink_cc13x0_sdk_2_10_00_36\source\ti\devices\cc
     628                            .dwattr $C$DW$52, DW_AT_decl_line(0x7d)
     629                            .dwattr $C$DW$52, DW_AT_decl_column(0x25)
     630                    
     631                    $C$DW$53        .dwtag  DW_TAG_member
     632                            .dwattr $C$DW$53, DW_AT_type(*$C$DW$T$119)
     633                            .dwattr $C$DW$53, DW_AT_name("MinValue")
     634                            .dwattr $C$DW$53, DW_AT_TI_symbol_name("MinValue")
     635                            .dwattr $C$DW$53, DW_AT_data_member_location[DW_OP_plus_uconst 0x20]
     636                            .dwattr $C$DW$53, DW_AT_accessibility(DW_ACCESS_public)
     637                            .dwattr $C$DW$53, DW_AT_decl_file("C:\ti\simplelink_cc13x0_sdk_2_10_00_36\source\ti\devices\cc
     638                            .dwattr $C$DW$53, DW_AT_decl_line(0x7e)
     639                            .dwattr $C$DW$53, DW_AT_decl_column(0x25)
     640                    
     641                    $C$DW$54        .dwtag  DW_TAG_member
     642                            .dwattr $C$DW$54, DW_AT_type(*$C$DW$T$120)
     643                            .dwattr $C$DW$54, DW_AT_name("MaxValue")
     644                            .dwattr $C$DW$54, DW_AT_TI_symbol_name("MaxValue")
     645                            .dwattr $C$DW$54, DW_AT_data_member_location[DW_OP_plus_uconst 0x24]
     646                            .dwattr $C$DW$54, DW_AT_accessibility(DW_ACCESS_public)
     647                            .dwattr $C$DW$54, DW_AT_decl_file("C:\ti\simplelink_cc13x0_sdk_2_10_00_36\source\ti\devices\cc
     648                            .dwattr $C$DW$54, DW_AT_decl_line(0x7f)
     649                            .dwattr $C$DW$54, DW_AT_decl_column(0x25)
     650                    
     651                    $C$DW$55        .dwtag  DW_TAG_member
     652                            .dwattr $C$DW$55, DW_AT_type(*$C$DW$T$121)
     653                            .dwattr $C$DW$55, DW_AT_name("MeanValue")
     654                            .dwattr $C$DW$55, DW_AT_TI_symbol_name("MeanValue")
     655                            .dwattr $C$DW$55, DW_AT_data_member_location[DW_OP_plus_uconst 0x28]
     656                            .dwattr $C$DW$55, DW_AT_accessibility(DW_ACCESS_public)
TI ARM Assembler PC v18.1.1 Wed Apr 25 09:49:07 2018

Tools Copyright (c) 1996-2017 Texas Instruments Incorporated
C:\Users\devops\AppData\Local\Temp\2\{3ABEE735-5D89-419B-B04E-A704033696CA} PAGE   13

     657                            .dwattr $C$DW$55, DW_AT_decl_file("C:\ti\simplelink_cc13x0_sdk_2_10_00_36\source\ti\devices\cc
     658                            .dwattr $C$DW$55, DW_AT_decl_line(0x80)
     659                            .dwattr $C$DW$55, DW_AT_decl_column(0x25)
     660                    
     661                    $C$DW$56        .dwtag  DW_TAG_member
     662                            .dwattr $C$DW$56, DW_AT_type(*$C$DW$T$122)
     663                            .dwattr $C$DW$56, DW_AT_name("StandDeviationValue")
     664                            .dwattr $C$DW$56, DW_AT_TI_symbol_name("StandDeviationValue")
     665                            .dwattr $C$DW$56, DW_AT_data_member_location[DW_OP_plus_uconst 0x2c]
     666                            .dwattr $C$DW$56, DW_AT_accessibility(DW_ACCESS_public)
     667                            .dwattr $C$DW$56, DW_AT_decl_file("C:\ti\simplelink_cc13x0_sdk_2_10_00_36\source\ti\devices\cc
     668                            .dwattr $C$DW$56, DW_AT_decl_line(0x81)
     669                            .dwattr $C$DW$56, DW_AT_decl_column(0x25)
     670                    
     671                    $C$DW$57        .dwtag  DW_TAG_member
     672                            .dwattr $C$DW$57, DW_AT_type(*$C$DW$T$125)
     673                            .dwattr $C$DW$57, DW_AT_name("ReservedLocation4")
     674                            .dwattr $C$DW$57, DW_AT_TI_symbol_name("ReservedLocation4")
     675                            .dwattr $C$DW$57, DW_AT_data_member_location[DW_OP_plus_uconst 0x30]
     676                            .dwattr $C$DW$57, DW_AT_accessibility(DW_ACCESS_public)
     677                            .dwattr $C$DW$57, DW_AT_decl_file("C:\ti\simplelink_cc13x0_sdk_2_10_00_36\source\ti\devices\cc
     678                            .dwattr $C$DW$57, DW_AT_decl_line(0x82)
     679                            .dwattr $C$DW$57, DW_AT_decl_column(0x25)
     680                    
     681                    $C$DW$58        .dwtag  DW_TAG_member
     682                            .dwattr $C$DW$58, DW_AT_type(*$C$DW$T$126)
     683                            .dwattr $C$DW$58, DW_AT_name("ReservedLocation5")
     684                            .dwattr $C$DW$58, DW_AT_TI_symbol_name("ReservedLocation5")
     685                            .dwattr $C$DW$58, DW_AT_data_member_location[DW_OP_plus_uconst 0x34]
     686                            .dwattr $C$DW$58, DW_AT_accessibility(DW_ACCESS_public)
     687                            .dwattr $C$DW$58, DW_AT_decl_file("C:\ti\simplelink_cc13x0_sdk_2_10_00_36\source\ti\devices\cc
     688                            .dwattr $C$DW$58, DW_AT_decl_line(0x83)
     689                            .dwattr $C$DW$58, DW_AT_decl_column(0x25)
     690                    
     691                    $C$DW$59        .dwtag  DW_TAG_member
     692                            .dwattr $C$DW$59, DW_AT_type(*$C$DW$T$127)
     693                            .dwattr $C$DW$59, DW_AT_name("HFSourceSafeSwitch")
     694                            .dwattr $C$DW$59, DW_AT_TI_symbol_name("HFSourceSafeSwitch")
     695                            .dwattr $C$DW$59, DW_AT_data_member_location[DW_OP_plus_uconst 0x38]
     696                            .dwattr $C$DW$59, DW_AT_accessibility(DW_ACCESS_public)
     697                            .dwattr $C$DW$59, DW_AT_decl_file("C:\ti\simplelink_cc13x0_sdk_2_10_00_36\source\ti\devices\cc
     698                            .dwattr $C$DW$59, DW_AT_decl_line(0x84)
     699                            .dwattr $C$DW$59, DW_AT_decl_column(0x25)
     700                    
     701                    $C$DW$60        .dwtag  DW_TAG_member
     702                            .dwattr $C$DW$60, DW_AT_type(*$C$DW$T$130)
     703                            .dwattr $C$DW$60, DW_AT_name("SelectCompAInput")
     704                            .dwattr $C$DW$60, DW_AT_TI_symbol_name("SelectCompAInput")
     705                            .dwattr $C$DW$60, DW_AT_data_member_location[DW_OP_plus_uconst 0x3c]
     706                            .dwattr $C$DW$60, DW_AT_accessibility(DW_ACCESS_public)
     707                            .dwattr $C$DW$60, DW_AT_decl_file("C:\ti\simplelink_cc13x0_sdk_2_10_00_36\source\ti\devices\cc
     708                            .dwattr $C$DW$60, DW_AT_decl_line(0x85)
     709                            .dwattr $C$DW$60, DW_AT_decl_column(0x25)
     710                    
     711                    $C$DW$61        .dwtag  DW_TAG_member
TI ARM Assembler PC v18.1.1 Wed Apr 25 09:49:07 2018

Tools Copyright (c) 1996-2017 Texas Instruments Incorporated
C:\Users\devops\AppData\Local\Temp\2\{3ABEE735-5D89-419B-B04E-A704033696CA} PAGE   14

     712                            .dwattr $C$DW$61, DW_AT_type(*$C$DW$T$131)
     713                            .dwattr $C$DW$61, DW_AT_name("SelectCompARef")
     714                            .dwattr $C$DW$61, DW_AT_TI_symbol_name("SelectCompARef")
     715                            .dwattr $C$DW$61, DW_AT_data_member_location[DW_OP_plus_uconst 0x40]
     716                            .dwattr $C$DW$61, DW_AT_accessibility(DW_ACCESS_public)
     717                            .dwattr $C$DW$61, DW_AT_decl_file("C:\ti\simplelink_cc13x0_sdk_2_10_00_36\source\ti\devices\cc
     718                            .dwattr $C$DW$61, DW_AT_decl_line(0x86)
     719                            .dwattr $C$DW$61, DW_AT_decl_column(0x25)
     720                    
     721                    $C$DW$62        .dwtag  DW_TAG_member
     722                            .dwattr $C$DW$62, DW_AT_type(*$C$DW$T$132)
     723                            .dwattr $C$DW$62, DW_AT_name("SelectADCCompBInput")
     724                            .dwattr $C$DW$62, DW_AT_TI_symbol_name("SelectADCCompBInput")
     725                            .dwattr $C$DW$62, DW_AT_data_member_location[DW_OP_plus_uconst 0x44]
     726                            .dwattr $C$DW$62, DW_AT_accessibility(DW_ACCESS_public)
     727                            .dwattr $C$DW$62, DW_AT_decl_file("C:\ti\simplelink_cc13x0_sdk_2_10_00_36\source\ti\devices\cc
     728                            .dwattr $C$DW$62, DW_AT_decl_line(0x87)
     729                            .dwattr $C$DW$62, DW_AT_decl_column(0x25)
     730                    
     731                    $C$DW$63        .dwtag  DW_TAG_member
     732                            .dwattr $C$DW$63, DW_AT_type(*$C$DW$T$133)
     733                            .dwattr $C$DW$63, DW_AT_name("SelectCompBRef")
     734                            .dwattr $C$DW$63, DW_AT_TI_symbol_name("SelectCompBRef")
     735                            .dwattr $C$DW$63, DW_AT_data_member_location[DW_OP_plus_uconst 0x48]
     736                            .dwattr $C$DW$63, DW_AT_accessibility(DW_ACCESS_public)
     737                            .dwattr $C$DW$63, DW_AT_decl_file("C:\ti\simplelink_cc13x0_sdk_2_10_00_36\source\ti\devices\cc
     738                            .dwattr $C$DW$63, DW_AT_decl_line(0x88)
     739                            .dwattr $C$DW$63, DW_AT_decl_column(0x25)
     740                    
     741                            .dwattr $C$DW$T$134, DW_AT_decl_file("C:\ti\simplelink_cc13x0_sdk_2_10_00_36\source\ti\devices
     742                            .dwattr $C$DW$T$134, DW_AT_decl_line(0x75)
     743                            .dwattr $C$DW$T$134, DW_AT_decl_column(0x01)
     744                            .dwendtag $C$DW$T$134
     745                    
     746                    $C$DW$T$475     .dwtag  DW_TAG_typedef
     747                            .dwattr $C$DW$T$475, DW_AT_name("HARD_API_T")
     748                            .dwattr $C$DW$T$475, DW_AT_type(*$C$DW$T$134)
     749                            .dwattr $C$DW$T$475, DW_AT_language(DW_LANG_C)
     750                            .dwattr $C$DW$T$475, DW_AT_decl_file("C:\ti\simplelink_cc13x0_sdk_2_10_00_36\source\ti\devices
     751                            .dwattr $C$DW$T$475, DW_AT_decl_line(0x89)
     752                            .dwattr $C$DW$T$475, DW_AT_decl_column(0x03)
     753                    
     754                    
     755                    $C$DW$T$140     .dwtag  DW_TAG_union_type
     756                            .dwattr $C$DW$T$140, DW_AT_byte_size(0x04)
     757                    $C$DW$64        .dwtag  DW_TAG_member
     758                            .dwattr $C$DW$64, DW_AT_type(*$C$DW$T$135)
     759                            .dwattr $C$DW$64, DW_AT_name("f")
     760                            .dwattr $C$DW$64, DW_AT_TI_symbol_name("f")
     761                            .dwattr $C$DW$64, DW_AT_data_member_location[DW_OP_plus_uconst 0x0]
     762                            .dwattr $C$DW$64, DW_AT_accessibility(DW_ACCESS_public)
     763                            .dwattr $C$DW$64, DW_AT_decl_file("C:/ti/xdctools_3_50_05_12_core/packages/xdc/std.h")
     764                            .dwattr $C$DW$64, DW_AT_decl_line(0xb7)
     765                            .dwattr $C$DW$64, DW_AT_decl_column(0x0f)
     766                    
TI ARM Assembler PC v18.1.1 Wed Apr 25 09:49:07 2018

Tools Copyright (c) 1996-2017 Texas Instruments Incorporated
C:\Users\devops\AppData\Local\Temp\2\{3ABEE735-5D89-419B-B04E-A704033696CA} PAGE   15

     767                    $C$DW$65        .dwtag  DW_TAG_member
     768                            .dwattr $C$DW$65, DW_AT_type(*$C$DW$T$139)
     769                            .dwattr $C$DW$65, DW_AT_name("a")
     770                            .dwattr $C$DW$65, DW_AT_TI_symbol_name("a")
     771                            .dwattr $C$DW$65, DW_AT_data_member_location[DW_OP_plus_uconst 0x0]
     772                            .dwattr $C$DW$65, DW_AT_accessibility(DW_ACCESS_public)
     773                            .dwattr $C$DW$65, DW_AT_decl_file("C:/ti/xdctools_3_50_05_12_core/packages/xdc/std.h")
     774                            .dwattr $C$DW$65, DW_AT_decl_line(0xb8)
     775                            .dwattr $C$DW$65, DW_AT_decl_column(0x0f)
     776                    
     777                            .dwattr $C$DW$T$140, DW_AT_decl_file("C:/ti/xdctools_3_50_05_12_core/packages/xdc/std.h")
     778                            .dwattr $C$DW$T$140, DW_AT_decl_line(0xb6)
     779                            .dwattr $C$DW$T$140, DW_AT_decl_column(0x0f)
     780                            .dwendtag $C$DW$T$140
     781                    
     782                    $C$DW$T$476     .dwtag  DW_TAG_typedef
     783                            .dwattr $C$DW$T$476, DW_AT_name("xdc_FloatData")
     784                            .dwattr $C$DW$T$476, DW_AT_type(*$C$DW$T$140)
     785                            .dwattr $C$DW$T$476, DW_AT_language(DW_LANG_C)
     786                            .dwattr $C$DW$T$476, DW_AT_decl_file("C:/ti/xdctools_3_50_05_12_core/packages/xdc/std.h")
     787                            .dwattr $C$DW$T$476, DW_AT_decl_line(0xb9)
     788                            .dwattr $C$DW$T$476, DW_AT_decl_column(0x03)
     789                    
     790                    
     791                    $C$DW$T$477     .dwtag  DW_TAG_enumeration_type
     792                            .dwattr $C$DW$T$477, DW_AT_name("CC1350_LAUNCHXL_ADCBuf0ChannelName")
     793                            .dwattr $C$DW$T$477, DW_AT_byte_size(0x01)
     794                    $C$DW$66        .dwtag  DW_TAG_enumerator
     795                            .dwattr $C$DW$66, DW_AT_name("CC1350_LAUNCHXL_ADCBUF0CHANNEL0")
     796                            .dwattr $C$DW$66, DW_AT_const_value(0x00)
     797                            .dwattr $C$DW$66, DW_AT_decl_file("C:\ti\simplelink_cc13x0_sdk_2_10_00_36\examples\rtos\CC1350
     798                            .dwattr $C$DW$66, DW_AT_decl_line(0xba)
     799                            .dwattr $C$DW$66, DW_AT_decl_column(0x05)
     800                    
     801                    $C$DW$67        .dwtag  DW_TAG_enumerator
     802                            .dwattr $C$DW$67, DW_AT_name("CC1350_LAUNCHXL_ADCBUF0CHANNEL1")
     803                            .dwattr $C$DW$67, DW_AT_const_value(0x01)
     804                            .dwattr $C$DW$67, DW_AT_decl_file("C:\ti\simplelink_cc13x0_sdk_2_10_00_36\examples\rtos\CC1350
     805                            .dwattr $C$DW$67, DW_AT_decl_line(0xbb)
     806                            .dwattr $C$DW$67, DW_AT_decl_column(0x05)
     807                    
     808                    $C$DW$68        .dwtag  DW_TAG_enumerator
     809                            .dwattr $C$DW$68, DW_AT_name("CC1350_LAUNCHXL_ADCBUF0CHANNEL2")
     810                            .dwattr $C$DW$68, DW_AT_const_value(0x02)
     811                            .dwattr $C$DW$68, DW_AT_decl_file("C:\ti\simplelink_cc13x0_sdk_2_10_00_36\examples\rtos\CC1350
     812                            .dwattr $C$DW$68, DW_AT_decl_line(0xbc)
     813                            .dwattr $C$DW$68, DW_AT_decl_column(0x05)
     814                    
     815                    $C$DW$69        .dwtag  DW_TAG_enumerator
     816                            .dwattr $C$DW$69, DW_AT_name("CC1350_LAUNCHXL_ADCBUF0CHANNEL3")
     817                            .dwattr $C$DW$69, DW_AT_const_value(0x03)
     818                            .dwattr $C$DW$69, DW_AT_decl_file("C:\ti\simplelink_cc13x0_sdk_2_10_00_36\examples\rtos\CC1350
     819                            .dwattr $C$DW$69, DW_AT_decl_line(0xbd)
     820                            .dwattr $C$DW$69, DW_AT_decl_column(0x05)
     821                    
TI ARM Assembler PC v18.1.1 Wed Apr 25 09:49:07 2018

Tools Copyright (c) 1996-2017 Texas Instruments Incorporated
C:\Users\devops\AppData\Local\Temp\2\{3ABEE735-5D89-419B-B04E-A704033696CA} PAGE   16

     822                    $C$DW$70        .dwtag  DW_TAG_enumerator
     823                            .dwattr $C$DW$70, DW_AT_name("CC1350_LAUNCHXL_ADCBUF0CHANNEL4")
     824                            .dwattr $C$DW$70, DW_AT_const_value(0x04)
     825                            .dwattr $C$DW$70, DW_AT_decl_file("C:\ti\simplelink_cc13x0_sdk_2_10_00_36\examples\rtos\CC1350
     826                            .dwattr $C$DW$70, DW_AT_decl_line(0xbe)
     827                            .dwattr $C$DW$70, DW_AT_decl_column(0x05)
     828                    
     829                    $C$DW$71        .dwtag  DW_TAG_enumerator
     830                            .dwattr $C$DW$71, DW_AT_name("CC1350_LAUNCHXL_ADCBUF0CHANNEL5")
     831                            .dwattr $C$DW$71, DW_AT_const_value(0x05)
     832                            .dwattr $C$DW$71, DW_AT_decl_file("C:\ti\simplelink_cc13x0_sdk_2_10_00_36\examples\rtos\CC1350
     833                            .dwattr $C$DW$71, DW_AT_decl_line(0xbf)
     834                            .dwattr $C$DW$71, DW_AT_decl_column(0x05)
     835                    
     836                    $C$DW$72        .dwtag  DW_TAG_enumerator
     837                            .dwattr $C$DW$72, DW_AT_name("CC1350_LAUNCHXL_ADCBUF0CHANNEL6")
     838                            .dwattr $C$DW$72, DW_AT_const_value(0x06)
     839                            .dwattr $C$DW$72, DW_AT_decl_file("C:\ti\simplelink_cc13x0_sdk_2_10_00_36\examples\rtos\CC1350
     840                            .dwattr $C$DW$72, DW_AT_decl_line(0xc0)
     841                            .dwattr $C$DW$72, DW_AT_decl_column(0x05)
     842                    
     843                    $C$DW$73        .dwtag  DW_TAG_enumerator
     844                            .dwattr $C$DW$73, DW_AT_name("CC1350_LAUNCHXL_ADCBUF0CHANNEL7")
     845                            .dwattr $C$DW$73, DW_AT_const_value(0x07)
     846                            .dwattr $C$DW$73, DW_AT_decl_file("C:\ti\simplelink_cc13x0_sdk_2_10_00_36\examples\rtos\CC1350
     847                            .dwattr $C$DW$73, DW_AT_decl_line(0xc1)
     848                            .dwattr $C$DW$73, DW_AT_decl_column(0x05)
     849                    
     850                    $C$DW$74        .dwtag  DW_TAG_enumerator
     851                            .dwattr $C$DW$74, DW_AT_name("CC1350_LAUNCHXL_ADCBUF0CHANNELVDDS")
     852                            .dwattr $C$DW$74, DW_AT_const_value(0x08)
     853                            .dwattr $C$DW$74, DW_AT_decl_file("C:\ti\simplelink_cc13x0_sdk_2_10_00_36\examples\rtos\CC1350
     854                            .dwattr $C$DW$74, DW_AT_decl_line(0xc2)
     855                            .dwattr $C$DW$74, DW_AT_decl_column(0x05)
     856                    
     857                    $C$DW$75        .dwtag  DW_TAG_enumerator
     858                            .dwattr $C$DW$75, DW_AT_name("CC1350_LAUNCHXL_ADCBUF0CHANNELDCOUPL")
     859                            .dwattr $C$DW$75, DW_AT_const_value(0x09)
     860                            .dwattr $C$DW$75, DW_AT_decl_file("C:\ti\simplelink_cc13x0_sdk_2_10_00_36\examples\rtos\CC1350
     861                            .dwattr $C$DW$75, DW_AT_decl_line(0xc3)
     862                            .dwattr $C$DW$75, DW_AT_decl_column(0x05)
     863                    
     864                    $C$DW$76        .dwtag  DW_TAG_enumerator
     865                            .dwattr $C$DW$76, DW_AT_name("CC1350_LAUNCHXL_ADCBUF0CHANNELVSS")
     866                            .dwattr $C$DW$76, DW_AT_const_value(0x0a)
     867                            .dwattr $C$DW$76, DW_AT_decl_file("C:\ti\simplelink_cc13x0_sdk_2_10_00_36\examples\rtos\CC1350
     868                            .dwattr $C$DW$76, DW_AT_decl_line(0xc4)
     869                            .dwattr $C$DW$76, DW_AT_decl_column(0x05)
     870                    
     871                    $C$DW$77        .dwtag  DW_TAG_enumerator
     872                            .dwattr $C$DW$77, DW_AT_name("CC1350_LAUNCHXL_ADCBUF0CHANNELCOUNT")
     873                            .dwattr $C$DW$77, DW_AT_const_value(0x0b)
     874                            .dwattr $C$DW$77, DW_AT_decl_file("C:\ti\simplelink_cc13x0_sdk_2_10_00_36\examples\rtos\CC1350
     875                            .dwattr $C$DW$77, DW_AT_decl_line(0xc6)
     876                            .dwattr $C$DW$77, DW_AT_decl_column(0x05)
TI ARM Assembler PC v18.1.1 Wed Apr 25 09:49:07 2018

Tools Copyright (c) 1996-2017 Texas Instruments Incorporated
C:\Users\devops\AppData\Local\Temp\2\{3ABEE735-5D89-419B-B04E-A704033696CA} PAGE   17

     877                    
     878                            .dwattr $C$DW$T$477, DW_AT_decl_file("C:\ti\simplelink_cc13x0_sdk_2_10_00_36\examples\rtos\CC1
     879                            .dwattr $C$DW$T$477, DW_AT_decl_line(0xb9)
     880                            .dwattr $C$DW$T$477, DW_AT_decl_column(0x0e)
     881                            .dwendtag $C$DW$T$477
     882                    
     883                    $C$DW$T$478     .dwtag  DW_TAG_typedef
     884                            .dwattr $C$DW$T$478, DW_AT_name("CC1350_LAUNCHXL_ADCBuf0ChannelName")
     885                            .dwattr $C$DW$T$478, DW_AT_type(*$C$DW$T$477)
     886                            .dwattr $C$DW$T$478, DW_AT_language(DW_LANG_C)
     887                            .dwattr $C$DW$T$478, DW_AT_decl_file("C:\ti\simplelink_cc13x0_sdk_2_10_00_36\examples\rtos\CC1
     888                            .dwattr $C$DW$T$478, DW_AT_decl_line(0xc7)
     889                            .dwattr $C$DW$T$478, DW_AT_decl_column(0x03)
     890                    
     891                    
     892                    $C$DW$T$479     .dwtag  DW_TAG_enumeration_type
     893                            .dwattr $C$DW$T$479, DW_AT_name("CC1350_LAUNCHXL_ADCBufName")
     894                            .dwattr $C$DW$T$479, DW_AT_byte_size(0x01)
     895                    $C$DW$78        .dwtag  DW_TAG_enumerator
     896                            .dwattr $C$DW$78, DW_AT_name("CC1350_LAUNCHXL_ADCBUF0")
     897                            .dwattr $C$DW$78, DW_AT_const_value(0x00)
     898                            .dwattr $C$DW$78, DW_AT_decl_file("C:\ti\simplelink_cc13x0_sdk_2_10_00_36\examples\rtos\CC1350
     899                            .dwattr $C$DW$78, DW_AT_decl_line(0xb0)
     900                            .dwattr $C$DW$78, DW_AT_decl_column(0x05)
     901                    
     902                    $C$DW$79        .dwtag  DW_TAG_enumerator
     903                            .dwattr $C$DW$79, DW_AT_name("CC1350_LAUNCHXL_ADCBUFCOUNT")
     904                            .dwattr $C$DW$79, DW_AT_const_value(0x01)
     905                            .dwattr $C$DW$79, DW_AT_decl_file("C:\ti\simplelink_cc13x0_sdk_2_10_00_36\examples\rtos\CC1350
     906                            .dwattr $C$DW$79, DW_AT_decl_line(0xb2)
     907                            .dwattr $C$DW$79, DW_AT_decl_column(0x05)
     908                    
     909                            .dwattr $C$DW$T$479, DW_AT_decl_file("C:\ti\simplelink_cc13x0_sdk_2_10_00_36\examples\rtos\CC1
     910                            .dwattr $C$DW$T$479, DW_AT_decl_line(0xaf)
     911                            .dwattr $C$DW$T$479, DW_AT_decl_column(0x0e)
     912                            .dwendtag $C$DW$T$479
     913                    
     914                    $C$DW$T$480     .dwtag  DW_TAG_typedef
     915                            .dwattr $C$DW$T$480, DW_AT_name("CC1350_LAUNCHXL_ADCBufName")
     916                            .dwattr $C$DW$T$480, DW_AT_type(*$C$DW$T$479)
     917                            .dwattr $C$DW$T$480, DW_AT_language(DW_LANG_C)
     918                            .dwattr $C$DW$T$480, DW_AT_decl_file("C:\ti\simplelink_cc13x0_sdk_2_10_00_36\examples\rtos\CC1
     919                            .dwattr $C$DW$T$480, DW_AT_decl_line(0xb3)
     920                            .dwattr $C$DW$T$480, DW_AT_decl_column(0x03)
     921                    
     922                    
     923                    $C$DW$T$481     .dwtag  DW_TAG_enumeration_type
     924                            .dwattr $C$DW$T$481, DW_AT_name("CC1350_LAUNCHXL_ADCName")
     925                            .dwattr $C$DW$T$481, DW_AT_byte_size(0x01)
     926                    $C$DW$80        .dwtag  DW_TAG_enumerator
     927                            .dwattr $C$DW$80, DW_AT_name("CC1350_LAUNCHXL_ADC0")
     928                            .dwattr $C$DW$80, DW_AT_const_value(0x00)
     929                            .dwattr $C$DW$80, DW_AT_decl_file("C:\ti\simplelink_cc13x0_sdk_2_10_00_36\examples\rtos\CC1350
     930                            .dwattr $C$DW$80, DW_AT_decl_line(0xce)
     931                            .dwattr $C$DW$80, DW_AT_decl_column(0x05)
TI ARM Assembler PC v18.1.1 Wed Apr 25 09:49:07 2018

Tools Copyright (c) 1996-2017 Texas Instruments Incorporated
C:\Users\devops\AppData\Local\Temp\2\{3ABEE735-5D89-419B-B04E-A704033696CA} PAGE   18

     932                    
     933                    $C$DW$81        .dwtag  DW_TAG_enumerator
     934                            .dwattr $C$DW$81, DW_AT_name("CC1350_LAUNCHXL_ADC1")
     935                            .dwattr $C$DW$81, DW_AT_const_value(0x01)
     936                            .dwattr $C$DW$81, DW_AT_decl_file("C:\ti\simplelink_cc13x0_sdk_2_10_00_36\examples\rtos\CC1350
     937                            .dwattr $C$DW$81, DW_AT_decl_line(0xcf)
     938                            .dwattr $C$DW$81, DW_AT_decl_column(0x05)
     939                    
     940                    $C$DW$82        .dwtag  DW_TAG_enumerator
     941                            .dwattr $C$DW$82, DW_AT_name("CC1350_LAUNCHXL_ADC2")
     942                            .dwattr $C$DW$82, DW_AT_const_value(0x02)
     943                            .dwattr $C$DW$82, DW_AT_decl_file("C:\ti\simplelink_cc13x0_sdk_2_10_00_36\examples\rtos\CC1350
     944                            .dwattr $C$DW$82, DW_AT_decl_line(0xd0)
     945                            .dwattr $C$DW$82, DW_AT_decl_column(0x05)
     946                    
     947                    $C$DW$83        .dwtag  DW_TAG_enumerator
     948                            .dwattr $C$DW$83, DW_AT_name("CC1350_LAUNCHXL_ADC3")
     949                            .dwattr $C$DW$83, DW_AT_const_value(0x03)
     950                            .dwattr $C$DW$83, DW_AT_decl_file("C:\ti\simplelink_cc13x0_sdk_2_10_00_36\examples\rtos\CC1350
     951                            .dwattr $C$DW$83, DW_AT_decl_line(0xd1)
     952                            .dwattr $C$DW$83, DW_AT_decl_column(0x05)
     953                    
     954                    $C$DW$84        .dwtag  DW_TAG_enumerator
     955                            .dwattr $C$DW$84, DW_AT_name("CC1350_LAUNCHXL_ADC4")
     956                            .dwattr $C$DW$84, DW_AT_const_value(0x04)
     957                            .dwattr $C$DW$84, DW_AT_decl_file("C:\ti\simplelink_cc13x0_sdk_2_10_00_36\examples\rtos\CC1350
     958                            .dwattr $C$DW$84, DW_AT_decl_line(0xd2)
     959                            .dwattr $C$DW$84, DW_AT_decl_column(0x05)
     960                    
     961                    $C$DW$85        .dwtag  DW_TAG_enumerator
     962                            .dwattr $C$DW$85, DW_AT_name("CC1350_LAUNCHXL_ADC5")
     963                            .dwattr $C$DW$85, DW_AT_const_value(0x05)
     964                            .dwattr $C$DW$85, DW_AT_decl_file("C:\ti\simplelink_cc13x0_sdk_2_10_00_36\examples\rtos\CC1350
     965                            .dwattr $C$DW$85, DW_AT_decl_line(0xd3)
     966                            .dwattr $C$DW$85, DW_AT_decl_column(0x05)
     967                    
     968                    $C$DW$86        .dwtag  DW_TAG_enumerator
     969                            .dwattr $C$DW$86, DW_AT_name("CC1350_LAUNCHXL_ADC6")
     970                            .dwattr $C$DW$86, DW_AT_const_value(0x06)
     971                            .dwattr $C$DW$86, DW_AT_decl_file("C:\ti\simplelink_cc13x0_sdk_2_10_00_36\examples\rtos\CC1350
     972                            .dwattr $C$DW$86, DW_AT_decl_line(0xd4)
     973                            .dwattr $C$DW$86, DW_AT_decl_column(0x05)
     974                    
     975                    $C$DW$87        .dwtag  DW_TAG_enumerator
     976                            .dwattr $C$DW$87, DW_AT_name("CC1350_LAUNCHXL_ADC7")
     977                            .dwattr $C$DW$87, DW_AT_const_value(0x07)
     978                            .dwattr $C$DW$87, DW_AT_decl_file("C:\ti\simplelink_cc13x0_sdk_2_10_00_36\examples\rtos\CC1350
     979                            .dwattr $C$DW$87, DW_AT_decl_line(0xd5)
     980                            .dwattr $C$DW$87, DW_AT_decl_column(0x05)
     981                    
     982                    $C$DW$88        .dwtag  DW_TAG_enumerator
     983                            .dwattr $C$DW$88, DW_AT_name("CC1350_LAUNCHXL_ADCDCOUPL")
     984                            .dwattr $C$DW$88, DW_AT_const_value(0x08)
     985                            .dwattr $C$DW$88, DW_AT_decl_file("C:\ti\simplelink_cc13x0_sdk_2_10_00_36\examples\rtos\CC1350
     986                            .dwattr $C$DW$88, DW_AT_decl_line(0xd6)
TI ARM Assembler PC v18.1.1 Wed Apr 25 09:49:07 2018

Tools Copyright (c) 1996-2017 Texas Instruments Incorporated
C:\Users\devops\AppData\Local\Temp\2\{3ABEE735-5D89-419B-B04E-A704033696CA} PAGE   19

     987                            .dwattr $C$DW$88, DW_AT_decl_column(0x05)
     988                    
     989                    $C$DW$89        .dwtag  DW_TAG_enumerator
     990                            .dwattr $C$DW$89, DW_AT_name("CC1350_LAUNCHXL_ADCVSS")
     991                            .dwattr $C$DW$89, DW_AT_const_value(0x09)
     992                            .dwattr $C$DW$89, DW_AT_decl_file("C:\ti\simplelink_cc13x0_sdk_2_10_00_36\examples\rtos\CC1350
     993                            .dwattr $C$DW$89, DW_AT_decl_line(0xd7)
     994                            .dwattr $C$DW$89, DW_AT_decl_column(0x05)
     995                    
     996                    $C$DW$90        .dwtag  DW_TAG_enumerator
     997                            .dwattr $C$DW$90, DW_AT_name("CC1350_LAUNCHXL_ADCVDDS")
     998                            .dwattr $C$DW$90, DW_AT_const_value(0x0a)
     999                            .dwattr $C$DW$90, DW_AT_decl_file("C:\ti\simplelink_cc13x0_sdk_2_10_00_36\examples\rtos\CC1350
    1000                            .dwattr $C$DW$90, DW_AT_decl_line(0xd8)
    1001                            .dwattr $C$DW$90, DW_AT_decl_column(0x05)
    1002                    
    1003                    $C$DW$91        .dwtag  DW_TAG_enumerator
    1004                            .dwattr $C$DW$91, DW_AT_name("CC1350_LAUNCHXL_ADCCOUNT")
    1005                            .dwattr $C$DW$91, DW_AT_const_value(0x0b)
    1006                            .dwattr $C$DW$91, DW_AT_decl_file("C:\ti\simplelink_cc13x0_sdk_2_10_00_36\examples\rtos\CC1350
    1007                            .dwattr $C$DW$91, DW_AT_decl_line(0xda)
    1008                            .dwattr $C$DW$91, DW_AT_decl_column(0x05)
    1009                    
    1010                            .dwattr $C$DW$T$481, DW_AT_decl_file("C:\ti\simplelink_cc13x0_sdk_2_10_00_36\examples\rtos\CC1
    1011                            .dwattr $C$DW$T$481, DW_AT_decl_line(0xcd)
    1012                            .dwattr $C$DW$T$481, DW_AT_decl_column(0x0e)
    1013                            .dwendtag $C$DW$T$481
    1014                    
    1015                    $C$DW$T$482     .dwtag  DW_TAG_typedef
    1016                            .dwattr $C$DW$T$482, DW_AT_name("CC1350_LAUNCHXL_ADCName")
    1017                            .dwattr $C$DW$T$482, DW_AT_type(*$C$DW$T$481)
    1018                            .dwattr $C$DW$T$482, DW_AT_language(DW_LANG_C)
    1019                            .dwattr $C$DW$T$482, DW_AT_decl_file("C:\ti\simplelink_cc13x0_sdk_2_10_00_36\examples\rtos\CC1
    1020                            .dwattr $C$DW$T$482, DW_AT_decl_line(0xdb)
    1021                            .dwattr $C$DW$T$482, DW_AT_decl_column(0x03)
    1022                    
    1023                    
    1024                    $C$DW$T$483     .dwtag  DW_TAG_enumeration_type
    1025                            .dwattr $C$DW$T$483, DW_AT_name("CC1350_LAUNCHXL_CryptoName")
    1026                            .dwattr $C$DW$T$483, DW_AT_byte_size(0x01)
    1027                    $C$DW$92        .dwtag  DW_TAG_enumerator
    1028                            .dwattr $C$DW$92, DW_AT_name("CC1350_LAUNCHXL_CRYPTO0")
    1029                            .dwattr $C$DW$92, DW_AT_const_value(0x00)
    1030                            .dwattr $C$DW$92, DW_AT_decl_file("C:\ti\simplelink_cc13x0_sdk_2_10_00_36\examples\rtos\CC1350
    1031                            .dwattr $C$DW$92, DW_AT_decl_line(0xe2)
    1032                            .dwattr $C$DW$92, DW_AT_decl_column(0x05)
    1033                    
    1034                    $C$DW$93        .dwtag  DW_TAG_enumerator
    1035                            .dwattr $C$DW$93, DW_AT_name("CC1350_LAUNCHXL_CRYPTOCOUNT")
    1036                            .dwattr $C$DW$93, DW_AT_const_value(0x01)
    1037                            .dwattr $C$DW$93, DW_AT_decl_file("C:\ti\simplelink_cc13x0_sdk_2_10_00_36\examples\rtos\CC1350
    1038                            .dwattr $C$DW$93, DW_AT_decl_line(0xe4)
    1039                            .dwattr $C$DW$93, DW_AT_decl_column(0x05)
    1040                    
    1041                            .dwattr $C$DW$T$483, DW_AT_decl_file("C:\ti\simplelink_cc13x0_sdk_2_10_00_36\examples\rtos\CC1
TI ARM Assembler PC v18.1.1 Wed Apr 25 09:49:07 2018

Tools Copyright (c) 1996-2017 Texas Instruments Incorporated
C:\Users\devops\AppData\Local\Temp\2\{3ABEE735-5D89-419B-B04E-A704033696CA} PAGE   20

    1042                            .dwattr $C$DW$T$483, DW_AT_decl_line(0xe1)
    1043                            .dwattr $C$DW$T$483, DW_AT_decl_column(0x0e)
    1044                            .dwendtag $C$DW$T$483
    1045                    
    1046                    $C$DW$T$484     .dwtag  DW_TAG_typedef
    1047                            .dwattr $C$DW$T$484, DW_AT_name("CC1350_LAUNCHXL_CryptoName")
    1048                            .dwattr $C$DW$T$484, DW_AT_type(*$C$DW$T$483)
    1049                            .dwattr $C$DW$T$484, DW_AT_language(DW_LANG_C)
    1050                            .dwattr $C$DW$T$484, DW_AT_decl_file("C:\ti\simplelink_cc13x0_sdk_2_10_00_36\examples\rtos\CC1
    1051                            .dwattr $C$DW$T$484, DW_AT_decl_line(0xe5)
    1052                            .dwattr $C$DW$T$484, DW_AT_decl_column(0x03)
    1053                    
    1054                    
    1055                    $C$DW$T$485     .dwtag  DW_TAG_enumeration_type
    1056                            .dwattr $C$DW$T$485, DW_AT_name("CC1350_LAUNCHXL_GPIOName")
    1057                            .dwattr $C$DW$T$485, DW_AT_byte_size(0x01)
    1058                    $C$DW$94        .dwtag  DW_TAG_enumerator
    1059                            .dwattr $C$DW$94, DW_AT_name("CC1350_LAUNCHXL_GPIO_S1")
    1060                            .dwattr $C$DW$94, DW_AT_const_value(0x00)
    1061                            .dwattr $C$DW$94, DW_AT_decl_file("C:\ti\simplelink_cc13x0_sdk_2_10_00_36\examples\rtos\CC1350
    1062                            .dwattr $C$DW$94, DW_AT_decl_line(0xec)
    1063                            .dwattr $C$DW$94, DW_AT_decl_column(0x05)
    1064                    
    1065                    $C$DW$95        .dwtag  DW_TAG_enumerator
    1066                            .dwattr $C$DW$95, DW_AT_name("CC1350_LAUNCHXL_GPIO_S2")
    1067                            .dwattr $C$DW$95, DW_AT_const_value(0x01)
    1068                            .dwattr $C$DW$95, DW_AT_decl_file("C:\ti\simplelink_cc13x0_sdk_2_10_00_36\examples\rtos\CC1350
    1069                            .dwattr $C$DW$95, DW_AT_decl_line(0xed)
    1070                            .dwattr $C$DW$95, DW_AT_decl_column(0x05)
    1071                    
    1072                    $C$DW$96        .dwtag  DW_TAG_enumerator
    1073                            .dwattr $C$DW$96, DW_AT_name("CC1350_LAUNCHXL_SPI_MASTER_READY")
    1074                            .dwattr $C$DW$96, DW_AT_const_value(0x02)
    1075                            .dwattr $C$DW$96, DW_AT_decl_file("C:\ti\simplelink_cc13x0_sdk_2_10_00_36\examples\rtos\CC1350
    1076                            .dwattr $C$DW$96, DW_AT_decl_line(0xee)
    1077                            .dwattr $C$DW$96, DW_AT_decl_column(0x05)
    1078                    
    1079                    $C$DW$97        .dwtag  DW_TAG_enumerator
    1080                            .dwattr $C$DW$97, DW_AT_name("CC1350_LAUNCHXL_SPI_SLAVE_READY")
    1081                            .dwattr $C$DW$97, DW_AT_const_value(0x03)
    1082                            .dwattr $C$DW$97, DW_AT_decl_file("C:\ti\simplelink_cc13x0_sdk_2_10_00_36\examples\rtos\CC1350
    1083                            .dwattr $C$DW$97, DW_AT_decl_line(0xef)
    1084                            .dwattr $C$DW$97, DW_AT_decl_column(0x05)
    1085                    
    1086                    $C$DW$98        .dwtag  DW_TAG_enumerator
    1087                            .dwattr $C$DW$98, DW_AT_name("CC1350_LAUNCHXL_GPIO_LED_GREEN")
    1088                            .dwattr $C$DW$98, DW_AT_const_value(0x04)
    1089                            .dwattr $C$DW$98, DW_AT_decl_file("C:\ti\simplelink_cc13x0_sdk_2_10_00_36\examples\rtos\CC1350
    1090                            .dwattr $C$DW$98, DW_AT_decl_line(0xf0)
    1091                            .dwattr $C$DW$98, DW_AT_decl_column(0x05)
    1092                    
    1093                    $C$DW$99        .dwtag  DW_TAG_enumerator
    1094                            .dwattr $C$DW$99, DW_AT_name("CC1350_LAUNCHXL_GPIO_LED_RED")
    1095                            .dwattr $C$DW$99, DW_AT_const_value(0x05)
    1096                            .dwattr $C$DW$99, DW_AT_decl_file("C:\ti\simplelink_cc13x0_sdk_2_10_00_36\examples\rtos\CC1350
TI ARM Assembler PC v18.1.1 Wed Apr 25 09:49:07 2018

Tools Copyright (c) 1996-2017 Texas Instruments Incorporated
C:\Users\devops\AppData\Local\Temp\2\{3ABEE735-5D89-419B-B04E-A704033696CA} PAGE   21

    1097                            .dwattr $C$DW$99, DW_AT_decl_line(0xf1)
    1098                            .dwattr $C$DW$99, DW_AT_decl_column(0x05)
    1099                    
    1100                    $C$DW$100       .dwtag  DW_TAG_enumerator
    1101                            .dwattr $C$DW$100, DW_AT_name("CC1350_LAUNCHXL_GPIO_SPI_FLASH_CS")
    1102                            .dwattr $C$DW$100, DW_AT_const_value(0x06)
    1103                            .dwattr $C$DW$100, DW_AT_decl_file("C:\ti\simplelink_cc13x0_sdk_2_10_00_36\examples\rtos\CC135
    1104                            .dwattr $C$DW$100, DW_AT_decl_line(0xf2)
    1105                            .dwattr $C$DW$100, DW_AT_decl_column(0x05)
    1106                    
    1107                    $C$DW$101       .dwtag  DW_TAG_enumerator
    1108                            .dwattr $C$DW$101, DW_AT_name("CC1350_LAUNCHXL_SDSPI_CS")
    1109                            .dwattr $C$DW$101, DW_AT_const_value(0x07)
    1110                            .dwattr $C$DW$101, DW_AT_decl_file("C:\ti\simplelink_cc13x0_sdk_2_10_00_36\examples\rtos\CC135
    1111                            .dwattr $C$DW$101, DW_AT_decl_line(0xf3)
    1112                            .dwattr $C$DW$101, DW_AT_decl_column(0x05)
    1113                    
    1114                    $C$DW$102       .dwtag  DW_TAG_enumerator
    1115                            .dwattr $C$DW$102, DW_AT_name("CC1350_LAUNCHXL_GPIO_LCD_CS")
    1116                            .dwattr $C$DW$102, DW_AT_const_value(0x08)
    1117                            .dwattr $C$DW$102, DW_AT_decl_file("C:\ti\simplelink_cc13x0_sdk_2_10_00_36\examples\rtos\CC135
    1118                            .dwattr $C$DW$102, DW_AT_decl_line(0xf4)
    1119                            .dwattr $C$DW$102, DW_AT_decl_column(0x05)
    1120                    
    1121                    $C$DW$103       .dwtag  DW_TAG_enumerator
    1122                            .dwattr $C$DW$103, DW_AT_name("CC1350_LAUNCHXL_GPIO_LCD_POWER")
    1123                            .dwattr $C$DW$103, DW_AT_const_value(0x09)
    1124                            .dwattr $C$DW$103, DW_AT_decl_file("C:\ti\simplelink_cc13x0_sdk_2_10_00_36\examples\rtos\CC135
    1125                            .dwattr $C$DW$103, DW_AT_decl_line(0xf5)
    1126                            .dwattr $C$DW$103, DW_AT_decl_column(0x05)
    1127                    
    1128                    $C$DW$104       .dwtag  DW_TAG_enumerator
    1129                            .dwattr $C$DW$104, DW_AT_name("CC1350_LAUNCHXL_GPIO_LCD_ENABLE")
    1130                            .dwattr $C$DW$104, DW_AT_const_value(0x0a)
    1131                            .dwattr $C$DW$104, DW_AT_decl_file("C:\ti\simplelink_cc13x0_sdk_2_10_00_36\examples\rtos\CC135
    1132                            .dwattr $C$DW$104, DW_AT_decl_line(0xf6)
    1133                            .dwattr $C$DW$104, DW_AT_decl_column(0x05)
    1134                    
    1135                    $C$DW$105       .dwtag  DW_TAG_enumerator
    1136                            .dwattr $C$DW$105, DW_AT_name("CC1350_LAUNCHXL_GPIOCOUNT")
    1137                            .dwattr $C$DW$105, DW_AT_const_value(0x0b)
    1138                            .dwattr $C$DW$105, DW_AT_decl_file("C:\ti\simplelink_cc13x0_sdk_2_10_00_36\examples\rtos\CC135
    1139                            .dwattr $C$DW$105, DW_AT_decl_line(0xf7)
    1140                            .dwattr $C$DW$105, DW_AT_decl_column(0x05)
    1141                    
    1142                            .dwattr $C$DW$T$485, DW_AT_decl_file("C:\ti\simplelink_cc13x0_sdk_2_10_00_36\examples\rtos\CC1
    1143                            .dwattr $C$DW$T$485, DW_AT_decl_line(0xeb)
    1144                            .dwattr $C$DW$T$485, DW_AT_decl_column(0x0e)
    1145                            .dwendtag $C$DW$T$485
    1146                    
    1147                    $C$DW$T$486     .dwtag  DW_TAG_typedef
    1148                            .dwattr $C$DW$T$486, DW_AT_name("CC1350_LAUNCHXL_GPIOName")
    1149                            .dwattr $C$DW$T$486, DW_AT_type(*$C$DW$T$485)
    1150                            .dwattr $C$DW$T$486, DW_AT_language(DW_LANG_C)
    1151                            .dwattr $C$DW$T$486, DW_AT_decl_file("C:\ti\simplelink_cc13x0_sdk_2_10_00_36\examples\rtos\CC1
TI ARM Assembler PC v18.1.1 Wed Apr 25 09:49:07 2018

Tools Copyright (c) 1996-2017 Texas Instruments Incorporated
C:\Users\devops\AppData\Local\Temp\2\{3ABEE735-5D89-419B-B04E-A704033696CA} PAGE   22

    1152                            .dwattr $C$DW$T$486, DW_AT_decl_line(0xf8)
    1153                            .dwattr $C$DW$T$486, DW_AT_decl_column(0x03)
    1154                    
    1155                    
    1156                    $C$DW$T$487     .dwtag  DW_TAG_enumeration_type
    1157                            .dwattr $C$DW$T$487, DW_AT_name("CC1350_LAUNCHXL_GPTimerName")
    1158                            .dwattr $C$DW$T$487, DW_AT_byte_size(0x01)
    1159                    $C$DW$106       .dwtag  DW_TAG_enumerator
    1160                            .dwattr $C$DW$106, DW_AT_name("CC1350_LAUNCHXL_GPTIMER0A")
    1161                            .dwattr $C$DW$106, DW_AT_const_value(0x00)
    1162                            .dwattr $C$DW$106, DW_AT_decl_file("C:\ti\simplelink_cc13x0_sdk_2_10_00_36\examples\rtos\CC135
    1163                            .dwattr $C$DW$106, DW_AT_decl_line(0xff)
    1164                            .dwattr $C$DW$106, DW_AT_decl_column(0x05)
    1165                    
    1166                    $C$DW$107       .dwtag  DW_TAG_enumerator
    1167                            .dwattr $C$DW$107, DW_AT_name("CC1350_LAUNCHXL_GPTIMER0B")
    1168                            .dwattr $C$DW$107, DW_AT_const_value(0x01)
    1169                            .dwattr $C$DW$107, DW_AT_decl_file("C:\ti\simplelink_cc13x0_sdk_2_10_00_36\examples\rtos\CC135
    1170                            .dwattr $C$DW$107, DW_AT_decl_line(0x100)
    1171                            .dwattr $C$DW$107, DW_AT_decl_column(0x05)
    1172                    
    1173                    $C$DW$108       .dwtag  DW_TAG_enumerator
    1174                            .dwattr $C$DW$108, DW_AT_name("CC1350_LAUNCHXL_GPTIMER1A")
    1175                            .dwattr $C$DW$108, DW_AT_const_value(0x02)
    1176                            .dwattr $C$DW$108, DW_AT_decl_file("C:\ti\simplelink_cc13x0_sdk_2_10_00_36\examples\rtos\CC135
    1177                            .dwattr $C$DW$108, DW_AT_decl_line(0x101)
    1178                            .dwattr $C$DW$108, DW_AT_decl_column(0x05)
    1179                    
    1180                    $C$DW$109       .dwtag  DW_TAG_enumerator
    1181                            .dwattr $C$DW$109, DW_AT_name("CC1350_LAUNCHXL_GPTIMER1B")
    1182                            .dwattr $C$DW$109, DW_AT_const_value(0x03)
    1183                            .dwattr $C$DW$109, DW_AT_decl_file("C:\ti\simplelink_cc13x0_sdk_2_10_00_36\examples\rtos\CC135
    1184                            .dwattr $C$DW$109, DW_AT_decl_line(0x102)
    1185                            .dwattr $C$DW$109, DW_AT_decl_column(0x05)
    1186                    
    1187                    $C$DW$110       .dwtag  DW_TAG_enumerator
    1188                            .dwattr $C$DW$110, DW_AT_name("CC1350_LAUNCHXL_GPTIMER2A")
    1189                            .dwattr $C$DW$110, DW_AT_const_value(0x04)
    1190                            .dwattr $C$DW$110, DW_AT_decl_file("C:\ti\simplelink_cc13x0_sdk_2_10_00_36\examples\rtos\CC135
    1191                            .dwattr $C$DW$110, DW_AT_decl_line(0x103)
    1192                            .dwattr $C$DW$110, DW_AT_decl_column(0x05)
    1193                    
    1194                    $C$DW$111       .dwtag  DW_TAG_enumerator
    1195                            .dwattr $C$DW$111, DW_AT_name("CC1350_LAUNCHXL_GPTIMER2B")
    1196                            .dwattr $C$DW$111, DW_AT_const_value(0x05)
    1197                            .dwattr $C$DW$111, DW_AT_decl_file("C:\ti\simplelink_cc13x0_sdk_2_10_00_36\examples\rtos\CC135
    1198                            .dwattr $C$DW$111, DW_AT_decl_line(0x104)
    1199                            .dwattr $C$DW$111, DW_AT_decl_column(0x05)
    1200                    
    1201                    $C$DW$112       .dwtag  DW_TAG_enumerator
    1202                            .dwattr $C$DW$112, DW_AT_name("CC1350_LAUNCHXL_GPTIMER3A")
    1203                            .dwattr $C$DW$112, DW_AT_const_value(0x06)
    1204                            .dwattr $C$DW$112, DW_AT_decl_file("C:\ti\simplelink_cc13x0_sdk_2_10_00_36\examples\rtos\CC135
    1205                            .dwattr $C$DW$112, DW_AT_decl_line(0x105)
    1206                            .dwattr $C$DW$112, DW_AT_decl_column(0x05)
TI ARM Assembler PC v18.1.1 Wed Apr 25 09:49:07 2018

Tools Copyright (c) 1996-2017 Texas Instruments Incorporated
C:\Users\devops\AppData\Local\Temp\2\{3ABEE735-5D89-419B-B04E-A704033696CA} PAGE   23

    1207                    
    1208                    $C$DW$113       .dwtag  DW_TAG_enumerator
    1209                            .dwattr $C$DW$113, DW_AT_name("CC1350_LAUNCHXL_GPTIMER3B")
    1210                            .dwattr $C$DW$113, DW_AT_const_value(0x07)
    1211                            .dwattr $C$DW$113, DW_AT_decl_file("C:\ti\simplelink_cc13x0_sdk_2_10_00_36\examples\rtos\CC135
    1212                            .dwattr $C$DW$113, DW_AT_decl_line(0x106)
    1213                            .dwattr $C$DW$113, DW_AT_decl_column(0x05)
    1214                    
    1215                    $C$DW$114       .dwtag  DW_TAG_enumerator
    1216                            .dwattr $C$DW$114, DW_AT_name("CC1350_LAUNCHXL_GPTIMERPARTSCOUNT")
    1217                            .dwattr $C$DW$114, DW_AT_const_value(0x08)
    1218                            .dwattr $C$DW$114, DW_AT_decl_file("C:\ti\simplelink_cc13x0_sdk_2_10_00_36\examples\rtos\CC135
    1219                            .dwattr $C$DW$114, DW_AT_decl_line(0x108)
    1220                            .dwattr $C$DW$114, DW_AT_decl_column(0x05)
    1221                    
    1222                            .dwattr $C$DW$T$487, DW_AT_decl_file("C:\ti\simplelink_cc13x0_sdk_2_10_00_36\examples\rtos\CC1
    1223                            .dwattr $C$DW$T$487, DW_AT_decl_line(0xfe)
    1224                            .dwattr $C$DW$T$487, DW_AT_decl_column(0x0e)
    1225                            .dwendtag $C$DW$T$487
    1226                    
    1227                    $C$DW$T$488     .dwtag  DW_TAG_typedef
    1228                            .dwattr $C$DW$T$488, DW_AT_name("CC1350_LAUNCHXL_GPTimerName")
    1229                            .dwattr $C$DW$T$488, DW_AT_type(*$C$DW$T$487)
    1230                            .dwattr $C$DW$T$488, DW_AT_language(DW_LANG_C)
    1231                            .dwattr $C$DW$T$488, DW_AT_decl_file("C:\ti\simplelink_cc13x0_sdk_2_10_00_36\examples\rtos\CC1
    1232                            .dwattr $C$DW$T$488, DW_AT_decl_line(0x109)
    1233                            .dwattr $C$DW$T$488, DW_AT_decl_column(0x03)
    1234                    
    1235                    
    1236                    $C$DW$T$489     .dwtag  DW_TAG_enumeration_type
    1237                            .dwattr $C$DW$T$489, DW_AT_name("CC1350_LAUNCHXL_GPTimers")
    1238                            .dwattr $C$DW$T$489, DW_AT_byte_size(0x01)
    1239                    $C$DW$115       .dwtag  DW_TAG_enumerator
    1240                            .dwattr $C$DW$115, DW_AT_name("CC1350_LAUNCHXL_GPTIMER0")
    1241                            .dwattr $C$DW$115, DW_AT_const_value(0x00)
    1242                            .dwattr $C$DW$115, DW_AT_decl_file("C:\ti\simplelink_cc13x0_sdk_2_10_00_36\examples\rtos\CC135
    1243                            .dwattr $C$DW$115, DW_AT_decl_line(0x110)
    1244                            .dwattr $C$DW$115, DW_AT_decl_column(0x05)
    1245                    
    1246                    $C$DW$116       .dwtag  DW_TAG_enumerator
    1247                            .dwattr $C$DW$116, DW_AT_name("CC1350_LAUNCHXL_GPTIMER1")
    1248                            .dwattr $C$DW$116, DW_AT_const_value(0x01)
    1249                            .dwattr $C$DW$116, DW_AT_decl_file("C:\ti\simplelink_cc13x0_sdk_2_10_00_36\examples\rtos\CC135
    1250                            .dwattr $C$DW$116, DW_AT_decl_line(0x111)
    1251                            .dwattr $C$DW$116, DW_AT_decl_column(0x05)
    1252                    
    1253                    $C$DW$117       .dwtag  DW_TAG_enumerator
    1254                            .dwattr $C$DW$117, DW_AT_name("CC1350_LAUNCHXL_GPTIMER2")
    1255                            .dwattr $C$DW$117, DW_AT_const_value(0x02)
    1256                            .dwattr $C$DW$117, DW_AT_decl_file("C:\ti\simplelink_cc13x0_sdk_2_10_00_36\examples\rtos\CC135
    1257                            .dwattr $C$DW$117, DW_AT_decl_line(0x112)
    1258                            .dwattr $C$DW$117, DW_AT_decl_column(0x05)
    1259                    
    1260                    $C$DW$118       .dwtag  DW_TAG_enumerator
    1261                            .dwattr $C$DW$118, DW_AT_name("CC1350_LAUNCHXL_GPTIMER3")
TI ARM Assembler PC v18.1.1 Wed Apr 25 09:49:07 2018

Tools Copyright (c) 1996-2017 Texas Instruments Incorporated
C:\Users\devops\AppData\Local\Temp\2\{3ABEE735-5D89-419B-B04E-A704033696CA} PAGE   24

    1262                            .dwattr $C$DW$118, DW_AT_const_value(0x03)
    1263                            .dwattr $C$DW$118, DW_AT_decl_file("C:\ti\simplelink_cc13x0_sdk_2_10_00_36\examples\rtos\CC135
    1264                            .dwattr $C$DW$118, DW_AT_decl_line(0x113)
    1265                            .dwattr $C$DW$118, DW_AT_decl_column(0x05)
    1266                    
    1267                    $C$DW$119       .dwtag  DW_TAG_enumerator
    1268                            .dwattr $C$DW$119, DW_AT_name("CC1350_LAUNCHXL_GPTIMERCOUNT")
    1269                            .dwattr $C$DW$119, DW_AT_const_value(0x04)
    1270                            .dwattr $C$DW$119, DW_AT_decl_file("C:\ti\simplelink_cc13x0_sdk_2_10_00_36\examples\rtos\CC135
    1271                            .dwattr $C$DW$119, DW_AT_decl_line(0x115)
    1272                            .dwattr $C$DW$119, DW_AT_decl_column(0x05)
    1273                    
    1274                            .dwattr $C$DW$T$489, DW_AT_decl_file("C:\ti\simplelink_cc13x0_sdk_2_10_00_36\examples\rtos\CC1
    1275                            .dwattr $C$DW$T$489, DW_AT_decl_line(0x10f)
    1276                            .dwattr $C$DW$T$489, DW_AT_decl_column(0x0e)
    1277                            .dwendtag $C$DW$T$489
    1278                    
    1279                    $C$DW$T$490     .dwtag  DW_TAG_typedef
    1280                            .dwattr $C$DW$T$490, DW_AT_name("CC1350_LAUNCHXL_GPTimers")
    1281                            .dwattr $C$DW$T$490, DW_AT_type(*$C$DW$T$489)
    1282                            .dwattr $C$DW$T$490, DW_AT_language(DW_LANG_C)
    1283                            .dwattr $C$DW$T$490, DW_AT_decl_file("C:\ti\simplelink_cc13x0_sdk_2_10_00_36\examples\rtos\CC1
    1284                            .dwattr $C$DW$T$490, DW_AT_decl_line(0x116)
    1285                            .dwattr $C$DW$T$490, DW_AT_decl_column(0x03)
    1286                    
    1287                    
    1288                    $C$DW$T$491     .dwtag  DW_TAG_enumeration_type
    1289                            .dwattr $C$DW$T$491, DW_AT_name("CC1350_LAUNCHXL_I2CName")
    1290                            .dwattr $C$DW$T$491, DW_AT_byte_size(0x01)
    1291                    $C$DW$120       .dwtag  DW_TAG_enumerator
    1292                            .dwattr $C$DW$120, DW_AT_name("CC1350_LAUNCHXL_I2C0")
    1293                            .dwattr $C$DW$120, DW_AT_const_value(0x00)
    1294                            .dwattr $C$DW$120, DW_AT_decl_file("C:\ti\simplelink_cc13x0_sdk_2_10_00_36\examples\rtos\CC135
    1295                            .dwattr $C$DW$120, DW_AT_decl_line(0x11d)
    1296                            .dwattr $C$DW$120, DW_AT_decl_column(0x05)
    1297                    
    1298                    $C$DW$121       .dwtag  DW_TAG_enumerator
    1299                            .dwattr $C$DW$121, DW_AT_name("CC1350_LAUNCHXL_I2CCOUNT")
    1300                            .dwattr $C$DW$121, DW_AT_const_value(0x01)
    1301                            .dwattr $C$DW$121, DW_AT_decl_file("C:\ti\simplelink_cc13x0_sdk_2_10_00_36\examples\rtos\CC135
    1302                            .dwattr $C$DW$121, DW_AT_decl_line(0x11f)
    1303                            .dwattr $C$DW$121, DW_AT_decl_column(0x05)
    1304                    
    1305                            .dwattr $C$DW$T$491, DW_AT_decl_file("C:\ti\simplelink_cc13x0_sdk_2_10_00_36\examples\rtos\CC1
    1306                            .dwattr $C$DW$T$491, DW_AT_decl_line(0x11c)
    1307                            .dwattr $C$DW$T$491, DW_AT_decl_column(0x0e)
    1308                            .dwendtag $C$DW$T$491
    1309                    
    1310                    $C$DW$T$492     .dwtag  DW_TAG_typedef
    1311                            .dwattr $C$DW$T$492, DW_AT_name("CC1350_LAUNCHXL_I2CName")
    1312                            .dwattr $C$DW$T$492, DW_AT_type(*$C$DW$T$491)
    1313                            .dwattr $C$DW$T$492, DW_AT_language(DW_LANG_C)
    1314                            .dwattr $C$DW$T$492, DW_AT_decl_file("C:\ti\simplelink_cc13x0_sdk_2_10_00_36\examples\rtos\CC1
    1315                            .dwattr $C$DW$T$492, DW_AT_decl_line(0x120)
    1316                            .dwattr $C$DW$T$492, DW_AT_decl_column(0x03)
TI ARM Assembler PC v18.1.1 Wed Apr 25 09:49:07 2018

Tools Copyright (c) 1996-2017 Texas Instruments Incorporated
C:\Users\devops\AppData\Local\Temp\2\{3ABEE735-5D89-419B-B04E-A704033696CA} PAGE   25

    1317                    
    1318                    
    1319                    $C$DW$T$493     .dwtag  DW_TAG_enumeration_type
    1320                            .dwattr $C$DW$T$493, DW_AT_name("CC1350_LAUNCHXL_NVSName")
    1321                            .dwattr $C$DW$T$493, DW_AT_byte_size(0x01)
    1322                    $C$DW$122       .dwtag  DW_TAG_enumerator
    1323                            .dwattr $C$DW$122, DW_AT_name("CC1350_LAUNCHXL_NVSCC26XX0")
    1324                            .dwattr $C$DW$122, DW_AT_const_value(0x00)
    1325                            .dwattr $C$DW$122, DW_AT_decl_file("C:\ti\simplelink_cc13x0_sdk_2_10_00_36\examples\rtos\CC135
    1326                            .dwattr $C$DW$122, DW_AT_decl_line(0x127)
    1327                            .dwattr $C$DW$122, DW_AT_decl_column(0x05)
    1328                    
    1329                    $C$DW$123       .dwtag  DW_TAG_enumerator
    1330                            .dwattr $C$DW$123, DW_AT_name("CC1350_LAUNCHXL_NVSSPI25X0")
    1331                            .dwattr $C$DW$123, DW_AT_const_value(0x01)
    1332                            .dwattr $C$DW$123, DW_AT_decl_file("C:\ti\simplelink_cc13x0_sdk_2_10_00_36\examples\rtos\CC135
    1333                            .dwattr $C$DW$123, DW_AT_decl_line(0x128)
    1334                            .dwattr $C$DW$123, DW_AT_decl_column(0x05)
    1335                    
    1336                    $C$DW$124       .dwtag  DW_TAG_enumerator
    1337                            .dwattr $C$DW$124, DW_AT_name("CC1350_LAUNCHXL_NVSCOUNT")
    1338                            .dwattr $C$DW$124, DW_AT_const_value(0x02)
    1339                            .dwattr $C$DW$124, DW_AT_decl_file("C:\ti\simplelink_cc13x0_sdk_2_10_00_36\examples\rtos\CC135
    1340                            .dwattr $C$DW$124, DW_AT_decl_line(0x12a)
    1341                            .dwattr $C$DW$124, DW_AT_decl_column(0x05)
    1342                    
    1343                            .dwattr $C$DW$T$493, DW_AT_decl_file("C:\ti\simplelink_cc13x0_sdk_2_10_00_36\examples\rtos\CC1
    1344                            .dwattr $C$DW$T$493, DW_AT_decl_line(0x126)
    1345                            .dwattr $C$DW$T$493, DW_AT_decl_column(0x0e)
    1346                            .dwendtag $C$DW$T$493
    1347                    
    1348                    $C$DW$T$494     .dwtag  DW_TAG_typedef
    1349                            .dwattr $C$DW$T$494, DW_AT_name("CC1350_LAUNCHXL_NVSName")
    1350                            .dwattr $C$DW$T$494, DW_AT_type(*$C$DW$T$493)
    1351                            .dwattr $C$DW$T$494, DW_AT_language(DW_LANG_C)
    1352                            .dwattr $C$DW$T$494, DW_AT_decl_file("C:\ti\simplelink_cc13x0_sdk_2_10_00_36\examples\rtos\CC1
    1353                            .dwattr $C$DW$T$494, DW_AT_decl_line(0x12b)
    1354                            .dwattr $C$DW$T$494, DW_AT_decl_column(0x03)
    1355                    
    1356                    
    1357                    $C$DW$T$495     .dwtag  DW_TAG_enumeration_type
    1358                            .dwattr $C$DW$T$495, DW_AT_name("CC1350_LAUNCHXL_PWMName")
    1359                            .dwattr $C$DW$T$495, DW_AT_byte_size(0x01)
    1360                    $C$DW$125       .dwtag  DW_TAG_enumerator
    1361                            .dwattr $C$DW$125, DW_AT_name("CC1350_LAUNCHXL_PWM0")
    1362                            .dwattr $C$DW$125, DW_AT_const_value(0x00)
    1363                            .dwattr $C$DW$125, DW_AT_decl_file("C:\ti\simplelink_cc13x0_sdk_2_10_00_36\examples\rtos\CC135
    1364                            .dwattr $C$DW$125, DW_AT_decl_line(0x132)
    1365                            .dwattr $C$DW$125, DW_AT_decl_column(0x05)
    1366                    
    1367                    $C$DW$126       .dwtag  DW_TAG_enumerator
    1368                            .dwattr $C$DW$126, DW_AT_name("CC1350_LAUNCHXL_PWM1")
    1369                            .dwattr $C$DW$126, DW_AT_const_value(0x01)
    1370                            .dwattr $C$DW$126, DW_AT_decl_file("C:\ti\simplelink_cc13x0_sdk_2_10_00_36\examples\rtos\CC135
    1371                            .dwattr $C$DW$126, DW_AT_decl_line(0x133)
TI ARM Assembler PC v18.1.1 Wed Apr 25 09:49:07 2018

Tools Copyright (c) 1996-2017 Texas Instruments Incorporated
C:\Users\devops\AppData\Local\Temp\2\{3ABEE735-5D89-419B-B04E-A704033696CA} PAGE   26

    1372                            .dwattr $C$DW$126, DW_AT_decl_column(0x05)
    1373                    
    1374                    $C$DW$127       .dwtag  DW_TAG_enumerator
    1375                            .dwattr $C$DW$127, DW_AT_name("CC1350_LAUNCHXL_PWM2")
    1376                            .dwattr $C$DW$127, DW_AT_const_value(0x02)
    1377                            .dwattr $C$DW$127, DW_AT_decl_file("C:\ti\simplelink_cc13x0_sdk_2_10_00_36\examples\rtos\CC135
    1378                            .dwattr $C$DW$127, DW_AT_decl_line(0x134)
    1379                            .dwattr $C$DW$127, DW_AT_decl_column(0x05)
    1380                    
    1381                    $C$DW$128       .dwtag  DW_TAG_enumerator
    1382                            .dwattr $C$DW$128, DW_AT_name("CC1350_LAUNCHXL_PWM3")
    1383                            .dwattr $C$DW$128, DW_AT_const_value(0x03)
    1384                            .dwattr $C$DW$128, DW_AT_decl_file("C:\ti\simplelink_cc13x0_sdk_2_10_00_36\examples\rtos\CC135
    1385                            .dwattr $C$DW$128, DW_AT_decl_line(0x135)
    1386                            .dwattr $C$DW$128, DW_AT_decl_column(0x05)
    1387                    
    1388                    $C$DW$129       .dwtag  DW_TAG_enumerator
    1389                            .dwattr $C$DW$129, DW_AT_name("CC1350_LAUNCHXL_PWM4")
    1390                            .dwattr $C$DW$129, DW_AT_const_value(0x04)
    1391                            .dwattr $C$DW$129, DW_AT_decl_file("C:\ti\simplelink_cc13x0_sdk_2_10_00_36\examples\rtos\CC135
    1392                            .dwattr $C$DW$129, DW_AT_decl_line(0x136)
    1393                            .dwattr $C$DW$129, DW_AT_decl_column(0x05)
    1394                    
    1395                    $C$DW$130       .dwtag  DW_TAG_enumerator
    1396                            .dwattr $C$DW$130, DW_AT_name("CC1350_LAUNCHXL_PWM5")
    1397                            .dwattr $C$DW$130, DW_AT_const_value(0x05)
    1398                            .dwattr $C$DW$130, DW_AT_decl_file("C:\ti\simplelink_cc13x0_sdk_2_10_00_36\examples\rtos\CC135
    1399                            .dwattr $C$DW$130, DW_AT_decl_line(0x137)
    1400                            .dwattr $C$DW$130, DW_AT_decl_column(0x05)
    1401                    
    1402                    $C$DW$131       .dwtag  DW_TAG_enumerator
    1403                            .dwattr $C$DW$131, DW_AT_name("CC1350_LAUNCHXL_PWM6")
    1404                            .dwattr $C$DW$131, DW_AT_const_value(0x06)
    1405                            .dwattr $C$DW$131, DW_AT_decl_file("C:\ti\simplelink_cc13x0_sdk_2_10_00_36\examples\rtos\CC135
    1406                            .dwattr $C$DW$131, DW_AT_decl_line(0x138)
    1407                            .dwattr $C$DW$131, DW_AT_decl_column(0x05)
    1408                    
    1409                    $C$DW$132       .dwtag  DW_TAG_enumerator
    1410                            .dwattr $C$DW$132, DW_AT_name("CC1350_LAUNCHXL_PWM7")
    1411                            .dwattr $C$DW$132, DW_AT_const_value(0x07)
    1412                            .dwattr $C$DW$132, DW_AT_decl_file("C:\ti\simplelink_cc13x0_sdk_2_10_00_36\examples\rtos\CC135
    1413                            .dwattr $C$DW$132, DW_AT_decl_line(0x139)
    1414                            .dwattr $C$DW$132, DW_AT_decl_column(0x05)
    1415                    
    1416                    $C$DW$133       .dwtag  DW_TAG_enumerator
    1417                            .dwattr $C$DW$133, DW_AT_name("CC1350_LAUNCHXL_PWMCOUNT")
    1418                            .dwattr $C$DW$133, DW_AT_const_value(0x08)
    1419                            .dwattr $C$DW$133, DW_AT_decl_file("C:\ti\simplelink_cc13x0_sdk_2_10_00_36\examples\rtos\CC135
    1420                            .dwattr $C$DW$133, DW_AT_decl_line(0x13b)
    1421                            .dwattr $C$DW$133, DW_AT_decl_column(0x05)
    1422                    
    1423                            .dwattr $C$DW$T$495, DW_AT_decl_file("C:\ti\simplelink_cc13x0_sdk_2_10_00_36\examples\rtos\CC1
    1424                            .dwattr $C$DW$T$495, DW_AT_decl_line(0x131)
    1425                            .dwattr $C$DW$T$495, DW_AT_decl_column(0x0e)
    1426                            .dwendtag $C$DW$T$495
TI ARM Assembler PC v18.1.1 Wed Apr 25 09:49:07 2018

Tools Copyright (c) 1996-2017 Texas Instruments Incorporated
C:\Users\devops\AppData\Local\Temp\2\{3ABEE735-5D89-419B-B04E-A704033696CA} PAGE   27

    1427                    
    1428                    $C$DW$T$496     .dwtag  DW_TAG_typedef
    1429                            .dwattr $C$DW$T$496, DW_AT_name("CC1350_LAUNCHXL_PWMName")
    1430                            .dwattr $C$DW$T$496, DW_AT_type(*$C$DW$T$495)
    1431                            .dwattr $C$DW$T$496, DW_AT_language(DW_LANG_C)
    1432                            .dwattr $C$DW$T$496, DW_AT_decl_file("C:\ti\simplelink_cc13x0_sdk_2_10_00_36\examples\rtos\CC1
    1433                            .dwattr $C$DW$T$496, DW_AT_decl_line(0x13c)
    1434                            .dwattr $C$DW$T$496, DW_AT_decl_column(0x03)
    1435                    
    1436                    
    1437                    $C$DW$T$497     .dwtag  DW_TAG_enumeration_type
    1438                            .dwattr $C$DW$T$497, DW_AT_name("CC1350_LAUNCHXL_SDName")
    1439                            .dwattr $C$DW$T$497, DW_AT_byte_size(0x01)
    1440                    $C$DW$134       .dwtag  DW_TAG_enumerator
    1441                            .dwattr $C$DW$134, DW_AT_name("CC1350_LAUNCHXL_SDSPI0")
    1442                            .dwattr $C$DW$134, DW_AT_const_value(0x00)
    1443                            .dwattr $C$DW$134, DW_AT_decl_file("C:\ti\simplelink_cc13x0_sdk_2_10_00_36\examples\rtos\CC135
    1444                            .dwattr $C$DW$134, DW_AT_decl_line(0x143)
    1445                            .dwattr $C$DW$134, DW_AT_decl_column(0x05)
    1446                    
    1447                    $C$DW$135       .dwtag  DW_TAG_enumerator
    1448                            .dwattr $C$DW$135, DW_AT_name("CC1350_LAUNCHXL_SDCOUNT")
    1449                            .dwattr $C$DW$135, DW_AT_const_value(0x01)
    1450                            .dwattr $C$DW$135, DW_AT_decl_file("C:\ti\simplelink_cc13x0_sdk_2_10_00_36\examples\rtos\CC135
    1451                            .dwattr $C$DW$135, DW_AT_decl_line(0x145)
    1452                            .dwattr $C$DW$135, DW_AT_decl_column(0x05)
    1453                    
    1454                            .dwattr $C$DW$T$497, DW_AT_decl_file("C:\ti\simplelink_cc13x0_sdk_2_10_00_36\examples\rtos\CC1
    1455                            .dwattr $C$DW$T$497, DW_AT_decl_line(0x142)
    1456                            .dwattr $C$DW$T$497, DW_AT_decl_column(0x0e)
    1457                            .dwendtag $C$DW$T$497
    1458                    
    1459                    $C$DW$T$498     .dwtag  DW_TAG_typedef
    1460                            .dwattr $C$DW$T$498, DW_AT_name("CC1350_LAUNCHXL_SDName")
    1461                            .dwattr $C$DW$T$498, DW_AT_type(*$C$DW$T$497)
    1462                            .dwattr $C$DW$T$498, DW_AT_language(DW_LANG_C)
    1463                            .dwattr $C$DW$T$498, DW_AT_decl_file("C:\ti\simplelink_cc13x0_sdk_2_10_00_36\examples\rtos\CC1
    1464                            .dwattr $C$DW$T$498, DW_AT_decl_line(0x146)
    1465                            .dwattr $C$DW$T$498, DW_AT_decl_column(0x03)
    1466                    
    1467                    
    1468                    $C$DW$T$499     .dwtag  DW_TAG_enumeration_type
    1469                            .dwattr $C$DW$T$499, DW_AT_name("CC1350_LAUNCHXL_SPIName")
    1470                            .dwattr $C$DW$T$499, DW_AT_byte_size(0x01)
    1471                    $C$DW$136       .dwtag  DW_TAG_enumerator
    1472                            .dwattr $C$DW$136, DW_AT_name("CC1350_LAUNCHXL_SPI0")
    1473                            .dwattr $C$DW$136, DW_AT_const_value(0x00)
    1474                            .dwattr $C$DW$136, DW_AT_decl_file("C:\ti\simplelink_cc13x0_sdk_2_10_00_36\examples\rtos\CC135
    1475                            .dwattr $C$DW$136, DW_AT_decl_line(0x14d)
    1476                            .dwattr $C$DW$136, DW_AT_decl_column(0x05)
    1477                    
    1478                    $C$DW$137       .dwtag  DW_TAG_enumerator
    1479                            .dwattr $C$DW$137, DW_AT_name("CC1350_LAUNCHXL_SPI1")
    1480                            .dwattr $C$DW$137, DW_AT_const_value(0x01)
    1481                            .dwattr $C$DW$137, DW_AT_decl_file("C:\ti\simplelink_cc13x0_sdk_2_10_00_36\examples\rtos\CC135
TI ARM Assembler PC v18.1.1 Wed Apr 25 09:49:07 2018

Tools Copyright (c) 1996-2017 Texas Instruments Incorporated
C:\Users\devops\AppData\Local\Temp\2\{3ABEE735-5D89-419B-B04E-A704033696CA} PAGE   28

    1482                            .dwattr $C$DW$137, DW_AT_decl_line(0x14e)
    1483                            .dwattr $C$DW$137, DW_AT_decl_column(0x05)
    1484                    
    1485                    $C$DW$138       .dwtag  DW_TAG_enumerator
    1486                            .dwattr $C$DW$138, DW_AT_name("CC1350_LAUNCHXL_SPICOUNT")
    1487                            .dwattr $C$DW$138, DW_AT_const_value(0x02)
    1488                            .dwattr $C$DW$138, DW_AT_decl_file("C:\ti\simplelink_cc13x0_sdk_2_10_00_36\examples\rtos\CC135
    1489                            .dwattr $C$DW$138, DW_AT_decl_line(0x150)
    1490                            .dwattr $C$DW$138, DW_AT_decl_column(0x05)
    1491                    
    1492                            .dwattr $C$DW$T$499, DW_AT_decl_file("C:\ti\simplelink_cc13x0_sdk_2_10_00_36\examples\rtos\CC1
    1493                            .dwattr $C$DW$T$499, DW_AT_decl_line(0x14c)
    1494                            .dwattr $C$DW$T$499, DW_AT_decl_column(0x0e)
    1495                            .dwendtag $C$DW$T$499
    1496                    
    1497                    $C$DW$T$500     .dwtag  DW_TAG_typedef
    1498                            .dwattr $C$DW$T$500, DW_AT_name("CC1350_LAUNCHXL_SPIName")
    1499                            .dwattr $C$DW$T$500, DW_AT_type(*$C$DW$T$499)
    1500                            .dwattr $C$DW$T$500, DW_AT_language(DW_LANG_C)
    1501                            .dwattr $C$DW$T$500, DW_AT_decl_file("C:\ti\simplelink_cc13x0_sdk_2_10_00_36\examples\rtos\CC1
    1502                            .dwattr $C$DW$T$500, DW_AT_decl_line(0x151)
    1503                            .dwattr $C$DW$T$500, DW_AT_decl_column(0x03)
    1504                    
    1505                    
    1506                    $C$DW$T$501     .dwtag  DW_TAG_enumeration_type
    1507                            .dwattr $C$DW$T$501, DW_AT_name("CC1350_LAUNCHXL_UARTName")
    1508                            .dwattr $C$DW$T$501, DW_AT_byte_size(0x01)
    1509                    $C$DW$139       .dwtag  DW_TAG_enumerator
    1510                            .dwattr $C$DW$139, DW_AT_name("CC1350_LAUNCHXL_UART0")
    1511                            .dwattr $C$DW$139, DW_AT_const_value(0x00)
    1512                            .dwattr $C$DW$139, DW_AT_decl_file("C:\ti\simplelink_cc13x0_sdk_2_10_00_36\examples\rtos\CC135
    1513                            .dwattr $C$DW$139, DW_AT_decl_line(0x158)
    1514                            .dwattr $C$DW$139, DW_AT_decl_column(0x05)
    1515                    
    1516                    $C$DW$140       .dwtag  DW_TAG_enumerator
    1517                            .dwattr $C$DW$140, DW_AT_name("CC1350_LAUNCHXL_UARTCOUNT")
    1518                            .dwattr $C$DW$140, DW_AT_const_value(0x01)
    1519                            .dwattr $C$DW$140, DW_AT_decl_file("C:\ti\simplelink_cc13x0_sdk_2_10_00_36\examples\rtos\CC135
    1520                            .dwattr $C$DW$140, DW_AT_decl_line(0x15a)
    1521                            .dwattr $C$DW$140, DW_AT_decl_column(0x05)
    1522                    
    1523                            .dwattr $C$DW$T$501, DW_AT_decl_file("C:\ti\simplelink_cc13x0_sdk_2_10_00_36\examples\rtos\CC1
    1524                            .dwattr $C$DW$T$501, DW_AT_decl_line(0x157)
    1525                            .dwattr $C$DW$T$501, DW_AT_decl_column(0x0e)
    1526                            .dwendtag $C$DW$T$501
    1527                    
    1528                    $C$DW$T$502     .dwtag  DW_TAG_typedef
    1529                            .dwattr $C$DW$T$502, DW_AT_name("CC1350_LAUNCHXL_UARTName")
    1530                            .dwattr $C$DW$T$502, DW_AT_type(*$C$DW$T$501)
    1531                            .dwattr $C$DW$T$502, DW_AT_language(DW_LANG_C)
    1532                            .dwattr $C$DW$T$502, DW_AT_decl_file("C:\ti\simplelink_cc13x0_sdk_2_10_00_36\examples\rtos\CC1
    1533                            .dwattr $C$DW$T$502, DW_AT_decl_line(0x15b)
    1534                            .dwattr $C$DW$T$502, DW_AT_decl_column(0x03)
    1535                    
    1536                    
TI ARM Assembler PC v18.1.1 Wed Apr 25 09:49:07 2018

Tools Copyright (c) 1996-2017 Texas Instruments Incorporated
C:\Users\devops\AppData\Local\Temp\2\{3ABEE735-5D89-419B-B04E-A704033696CA} PAGE   29

    1537                    $C$DW$T$503     .dwtag  DW_TAG_enumeration_type
    1538                            .dwattr $C$DW$T$503, DW_AT_name("CC1350_LAUNCHXL_UDMAName")
    1539                            .dwattr $C$DW$T$503, DW_AT_byte_size(0x01)
    1540                    $C$DW$141       .dwtag  DW_TAG_enumerator
    1541                            .dwattr $C$DW$141, DW_AT_name("CC1350_LAUNCHXL_UDMA0")
    1542                            .dwattr $C$DW$141, DW_AT_const_value(0x00)
    1543                            .dwattr $C$DW$141, DW_AT_decl_file("C:\ti\simplelink_cc13x0_sdk_2_10_00_36\examples\rtos\CC135
    1544                            .dwattr $C$DW$141, DW_AT_decl_line(0x162)
    1545                            .dwattr $C$DW$141, DW_AT_decl_column(0x05)
    1546                    
    1547                    $C$DW$142       .dwtag  DW_TAG_enumerator
    1548                            .dwattr $C$DW$142, DW_AT_name("CC1350_LAUNCHXL_UDMACOUNT")
    1549                            .dwattr $C$DW$142, DW_AT_const_value(0x01)
    1550                            .dwattr $C$DW$142, DW_AT_decl_file("C:\ti\simplelink_cc13x0_sdk_2_10_00_36\examples\rtos\CC135
    1551                            .dwattr $C$DW$142, DW_AT_decl_line(0x164)
    1552                            .dwattr $C$DW$142, DW_AT_decl_column(0x05)
    1553                    
    1554                            .dwattr $C$DW$T$503, DW_AT_decl_file("C:\ti\simplelink_cc13x0_sdk_2_10_00_36\examples\rtos\CC1
    1555                            .dwattr $C$DW$T$503, DW_AT_decl_line(0x161)
    1556                            .dwattr $C$DW$T$503, DW_AT_decl_column(0x0e)
    1557                            .dwendtag $C$DW$T$503
    1558                    
    1559                    $C$DW$T$504     .dwtag  DW_TAG_typedef
    1560                            .dwattr $C$DW$T$504, DW_AT_name("CC1350_LAUNCHXL_UDMAName")
    1561                            .dwattr $C$DW$T$504, DW_AT_type(*$C$DW$T$503)
    1562                            .dwattr $C$DW$T$504, DW_AT_language(DW_LANG_C)
    1563                            .dwattr $C$DW$T$504, DW_AT_decl_file("C:\ti\simplelink_cc13x0_sdk_2_10_00_36\examples\rtos\CC1
    1564                            .dwattr $C$DW$T$504, DW_AT_decl_line(0x165)
    1565                            .dwattr $C$DW$T$504, DW_AT_decl_column(0x03)
    1566                    
    1567                    
    1568                    $C$DW$T$505     .dwtag  DW_TAG_enumeration_type
    1569                            .dwattr $C$DW$T$505, DW_AT_name("CC1350_LAUNCHXL_WatchdogName")
    1570                            .dwattr $C$DW$T$505, DW_AT_byte_size(0x01)
    1571                    $C$DW$143       .dwtag  DW_TAG_enumerator
    1572                            .dwattr $C$DW$143, DW_AT_name("CC1350_LAUNCHXL_WATCHDOG0")
    1573                            .dwattr $C$DW$143, DW_AT_const_value(0x00)
    1574                            .dwattr $C$DW$143, DW_AT_decl_file("C:\ti\simplelink_cc13x0_sdk_2_10_00_36\examples\rtos\CC135
    1575                            .dwattr $C$DW$143, DW_AT_decl_line(0x16c)
    1576                            .dwattr $C$DW$143, DW_AT_decl_column(0x05)
    1577                    
    1578                    $C$DW$144       .dwtag  DW_TAG_enumerator
    1579                            .dwattr $C$DW$144, DW_AT_name("CC1350_LAUNCHXL_WATCHDOGCOUNT")
    1580                            .dwattr $C$DW$144, DW_AT_const_value(0x01)
    1581                            .dwattr $C$DW$144, DW_AT_decl_file("C:\ti\simplelink_cc13x0_sdk_2_10_00_36\examples\rtos\CC135
    1582                            .dwattr $C$DW$144, DW_AT_decl_line(0x16e)
    1583                            .dwattr $C$DW$144, DW_AT_decl_column(0x05)
    1584                    
    1585                            .dwattr $C$DW$T$505, DW_AT_decl_file("C:\ti\simplelink_cc13x0_sdk_2_10_00_36\examples\rtos\CC1
    1586                            .dwattr $C$DW$T$505, DW_AT_decl_line(0x16b)
    1587                            .dwattr $C$DW$T$505, DW_AT_decl_column(0x0e)
    1588                            .dwendtag $C$DW$T$505
    1589                    
    1590                    $C$DW$T$506     .dwtag  DW_TAG_typedef
    1591                            .dwattr $C$DW$T$506, DW_AT_name("CC1350_LAUNCHXL_WatchdogName")
TI ARM Assembler PC v18.1.1 Wed Apr 25 09:49:07 2018

Tools Copyright (c) 1996-2017 Texas Instruments Incorporated
C:\Users\devops\AppData\Local\Temp\2\{3ABEE735-5D89-419B-B04E-A704033696CA} PAGE   30

    1592                            .dwattr $C$DW$T$506, DW_AT_type(*$C$DW$T$505)
    1593                            .dwattr $C$DW$T$506, DW_AT_language(DW_LANG_C)
    1594                            .dwattr $C$DW$T$506, DW_AT_decl_file("C:\ti\simplelink_cc13x0_sdk_2_10_00_36\examples\rtos\CC1
    1595                            .dwattr $C$DW$T$506, DW_AT_decl_line(0x16f)
    1596                            .dwattr $C$DW$T$506, DW_AT_decl_column(0x03)
    1597                    
    1598                    
    1599                    $C$DW$T$142     .dwtag  DW_TAG_structure_type
    1600                            .dwattr $C$DW$T$142, DW_AT_name("DisplayGrLib_Object")
    1601                            .dwattr $C$DW$T$142, DW_AT_byte_size(0x1c)
    1602                    $C$DW$145       .dwtag  DW_TAG_member
    1603                            .dwattr $C$DW$145, DW_AT_type(*$C$DW$T$141)
    1604                            .dwattr $C$DW$145, DW_AT_name("g_sContext")
    1605                            .dwattr $C$DW$145, DW_AT_TI_symbol_name("g_sContext")
    1606                            .dwattr $C$DW$145, DW_AT_data_member_location[DW_OP_plus_uconst 0x0]
    1607                            .dwattr $C$DW$145, DW_AT_accessibility(DW_ACCESS_public)
    1608                            .dwattr $C$DW$145, DW_AT_decl_file("C:/ti/simplelink_cc13x0_sdk_2_10_00_36/source/ti/display/D
    1609                            .dwattr $C$DW$145, DW_AT_decl_line(0x94)
    1610                            .dwattr $C$DW$145, DW_AT_decl_column(0x16)
    1611                    
    1612                            .dwattr $C$DW$T$142, DW_AT_decl_file("C:/ti/simplelink_cc13x0_sdk_2_10_00_36/source/ti/display
    1613                            .dwattr $C$DW$T$142, DW_AT_decl_line(0x92)
    1614                            .dwattr $C$DW$T$142, DW_AT_decl_column(0x10)
    1615                            .dwendtag $C$DW$T$142
    1616                    
    1617                    $C$DW$T$507     .dwtag  DW_TAG_typedef
    1618                            .dwattr $C$DW$T$507, DW_AT_name("DisplayGrLib_Object")
    1619                            .dwattr $C$DW$T$507, DW_AT_type(*$C$DW$T$142)
    1620                            .dwattr $C$DW$T$507, DW_AT_language(DW_LANG_C)
    1621                            .dwattr $C$DW$T$507, DW_AT_decl_file("C:/ti/simplelink_cc13x0_sdk_2_10_00_36/source/ti/display
    1622                            .dwattr $C$DW$T$507, DW_AT_decl_line(0x95)
    1623                            .dwattr $C$DW$T$507, DW_AT_decl_column(0x03)
    1624                    
    1625                    $C$DW$T$508     .dwtag  DW_TAG_pointer_type
    1626                            .dwattr $C$DW$T$508, DW_AT_type(*$C$DW$T$142)
    1627                            .dwattr $C$DW$T$508, DW_AT_address_class(0x20)
    1628                    
    1629                    $C$DW$T$509     .dwtag  DW_TAG_typedef
    1630                            .dwattr $C$DW$T$509, DW_AT_name("DisplayGrLib_Handle")
    1631                            .dwattr $C$DW$T$509, DW_AT_type(*$C$DW$T$508)
    1632                            .dwattr $C$DW$T$509, DW_AT_language(DW_LANG_C)
    1633                            .dwattr $C$DW$T$509, DW_AT_decl_file("C:/ti/simplelink_cc13x0_sdk_2_10_00_36/source/ti/display
    1634                            .dwattr $C$DW$T$509, DW_AT_decl_line(0x95)
    1635                            .dwattr $C$DW$T$509, DW_AT_decl_column(0x19)
    1636                    
    1637                    
    1638                    $C$DW$T$143     .dwtag  DW_TAG_structure_type
    1639                            .dwattr $C$DW$T$143, DW_AT_name("DisplaySharp_HWAttrsV1")
    1640                            .dwattr $C$DW$T$143, DW_AT_byte_size(0x18)
    1641                    $C$DW$146       .dwtag  DW_TAG_member
    1642                            .dwattr $C$DW$146, DW_AT_type(*$C$DW$T$90)
    1643                            .dwattr $C$DW$146, DW_AT_name("spiIndex")
    1644                            .dwattr $C$DW$146, DW_AT_TI_symbol_name("spiIndex")
    1645                            .dwattr $C$DW$146, DW_AT_data_member_location[DW_OP_plus_uconst 0x0]
    1646                            .dwattr $C$DW$146, DW_AT_accessibility(DW_ACCESS_public)
TI ARM Assembler PC v18.1.1 Wed Apr 25 09:49:07 2018

Tools Copyright (c) 1996-2017 Texas Instruments Incorporated
C:\Users\devops\AppData\Local\Temp\2\{3ABEE735-5D89-419B-B04E-A704033696CA} PAGE   31

    1647                            .dwattr $C$DW$146, DW_AT_decl_file("C:/ti/simplelink_cc13x0_sdk_2_10_00_36/source/ti/display/D
    1648                            .dwattr $C$DW$146, DW_AT_decl_line(0x58)
    1649                            .dwattr $C$DW$146, DW_AT_decl_column(0x0e)
    1650                    
    1651                    $C$DW$147       .dwtag  DW_TAG_member
    1652                            .dwattr $C$DW$147, DW_AT_type(*$C$DW$T$90)
    1653                            .dwattr $C$DW$147, DW_AT_name("csPin")
    1654                            .dwattr $C$DW$147, DW_AT_TI_symbol_name("csPin")
    1655                            .dwattr $C$DW$147, DW_AT_data_member_location[DW_OP_plus_uconst 0x4]
    1656                            .dwattr $C$DW$147, DW_AT_accessibility(DW_ACCESS_public)
    1657                            .dwattr $C$DW$147, DW_AT_decl_file("C:/ti/simplelink_cc13x0_sdk_2_10_00_36/source/ti/display/D
    1658                            .dwattr $C$DW$147, DW_AT_decl_line(0x59)
    1659                            .dwattr $C$DW$147, DW_AT_decl_column(0x0e)
    1660                    
    1661                    $C$DW$148       .dwtag  DW_TAG_member
    1662                            .dwattr $C$DW$148, DW_AT_type(*$C$DW$T$90)
    1663                            .dwattr $C$DW$148, DW_AT_name("powerPin")
    1664                            .dwattr $C$DW$148, DW_AT_TI_symbol_name("powerPin")
    1665                            .dwattr $C$DW$148, DW_AT_data_member_location[DW_OP_plus_uconst 0x8]
    1666                            .dwattr $C$DW$148, DW_AT_accessibility(DW_ACCESS_public)
    1667                            .dwattr $C$DW$148, DW_AT_decl_file("C:/ti/simplelink_cc13x0_sdk_2_10_00_36/source/ti/display/D
    1668                            .dwattr $C$DW$148, DW_AT_decl_line(0x5a)
    1669                            .dwattr $C$DW$148, DW_AT_decl_column(0x0e)
    1670                    
    1671                    $C$DW$149       .dwtag  DW_TAG_member
    1672                            .dwattr $C$DW$149, DW_AT_type(*$C$DW$T$90)
    1673                            .dwattr $C$DW$149, DW_AT_name("enablePin")
    1674                            .dwattr $C$DW$149, DW_AT_TI_symbol_name("enablePin")
    1675                            .dwattr $C$DW$149, DW_AT_data_member_location[DW_OP_plus_uconst 0xc]
    1676                            .dwattr $C$DW$149, DW_AT_accessibility(DW_ACCESS_public)
    1677                            .dwattr $C$DW$149, DW_AT_decl_file("C:/ti/simplelink_cc13x0_sdk_2_10_00_36/source/ti/display/D
    1678                            .dwattr $C$DW$149, DW_AT_decl_line(0x5b)
    1679                            .dwattr $C$DW$149, DW_AT_decl_column(0x0e)
    1680                    
    1681                    $C$DW$150       .dwtag  DW_TAG_member
    1682                            .dwattr $C$DW$150, DW_AT_type(*$C$DW$T$111)
    1683                            .dwattr $C$DW$150, DW_AT_name("pixelHeight")
    1684                            .dwattr $C$DW$150, DW_AT_TI_symbol_name("pixelHeight")
    1685                            .dwattr $C$DW$150, DW_AT_data_member_location[DW_OP_plus_uconst 0x10]
    1686                            .dwattr $C$DW$150, DW_AT_accessibility(DW_ACCESS_public)
    1687                            .dwattr $C$DW$150, DW_AT_decl_file("C:/ti/simplelink_cc13x0_sdk_2_10_00_36/source/ti/display/D
    1688                            .dwattr $C$DW$150, DW_AT_decl_line(0x5c)
    1689                            .dwattr $C$DW$150, DW_AT_decl_column(0x0e)
    1690                    
    1691                    $C$DW$151       .dwtag  DW_TAG_member
    1692                            .dwattr $C$DW$151, DW_AT_type(*$C$DW$T$111)
    1693                            .dwattr $C$DW$151, DW_AT_name("pixelWidth")
    1694                            .dwattr $C$DW$151, DW_AT_TI_symbol_name("pixelWidth")
    1695                            .dwattr $C$DW$151, DW_AT_data_member_location[DW_OP_plus_uconst 0x12]
    1696                            .dwattr $C$DW$151, DW_AT_accessibility(DW_ACCESS_public)
    1697                            .dwattr $C$DW$151, DW_AT_decl_file("C:/ti/simplelink_cc13x0_sdk_2_10_00_36/source/ti/display/D
    1698                            .dwattr $C$DW$151, DW_AT_decl_line(0x5d)
    1699                            .dwattr $C$DW$151, DW_AT_decl_column(0x0e)
    1700                    
    1701                    $C$DW$152       .dwtag  DW_TAG_member
TI ARM Assembler PC v18.1.1 Wed Apr 25 09:49:07 2018

Tools Copyright (c) 1996-2017 Texas Instruments Incorporated
C:\Users\devops\AppData\Local\Temp\2\{3ABEE735-5D89-419B-B04E-A704033696CA} PAGE   32

    1702                            .dwattr $C$DW$152, DW_AT_type(*$C$DW$T$3)
    1703                            .dwattr $C$DW$152, DW_AT_name("displayBuf")
    1704                            .dwattr $C$DW$152, DW_AT_TI_symbol_name("displayBuf")
    1705                            .dwattr $C$DW$152, DW_AT_data_member_location[DW_OP_plus_uconst 0x14]
    1706                            .dwattr $C$DW$152, DW_AT_accessibility(DW_ACCESS_public)
    1707                            .dwattr $C$DW$152, DW_AT_decl_file("C:/ti/simplelink_cc13x0_sdk_2_10_00_36/source/ti/display/D
    1708                            .dwattr $C$DW$152, DW_AT_decl_line(0x5e)
    1709                            .dwattr $C$DW$152, DW_AT_decl_column(0x0e)
    1710                    
    1711                            .dwattr $C$DW$T$143, DW_AT_decl_file("C:/ti/simplelink_cc13x0_sdk_2_10_00_36/source/ti/display
    1712                            .dwattr $C$DW$T$143, DW_AT_decl_line(0x56)
    1713                            .dwattr $C$DW$T$143, DW_AT_decl_column(0x10)
    1714                            .dwendtag $C$DW$T$143
    1715                    
    1716                    $C$DW$T$510     .dwtag  DW_TAG_typedef
    1717                            .dwattr $C$DW$T$510, DW_AT_name("DisplaySharp_HWAttrsV1")
    1718                            .dwattr $C$DW$T$510, DW_AT_type(*$C$DW$T$143)
    1719                            .dwattr $C$DW$T$510, DW_AT_language(DW_LANG_C)
    1720                            .dwattr $C$DW$T$510, DW_AT_decl_file("C:/ti/simplelink_cc13x0_sdk_2_10_00_36/source/ti/display
    1721                            .dwattr $C$DW$T$510, DW_AT_decl_line(0x5f)
    1722                            .dwattr $C$DW$T$510, DW_AT_decl_column(0x03)
    1723                    
    1724                    
    1725                    $C$DW$T$151     .dwtag  DW_TAG_structure_type
    1726                            .dwattr $C$DW$T$151, DW_AT_name("DisplaySharp_Object")
    1727                            .dwattr $C$DW$T$151, DW_AT_byte_size(0x44)
    1728                    $C$DW$153       .dwtag  DW_TAG_member
    1729                            .dwattr $C$DW$153, DW_AT_type(*$C$DW$T$141)
    1730                            .dwattr $C$DW$153, DW_AT_name("g_sContext")
    1731                            .dwattr $C$DW$153, DW_AT_TI_symbol_name("g_sContext")
    1732                            .dwattr $C$DW$153, DW_AT_data_member_location[DW_OP_plus_uconst 0x0]
    1733                            .dwattr $C$DW$153, DW_AT_accessibility(DW_ACCESS_public)
    1734                            .dwattr $C$DW$153, DW_AT_decl_file("C:/ti/simplelink_cc13x0_sdk_2_10_00_36/source/ti/display/D
    1735                            .dwattr $C$DW$153, DW_AT_decl_line(0x66)
    1736                            .dwattr $C$DW$153, DW_AT_decl_column(0x1b)
    1737                    
    1738                    $C$DW$154       .dwtag  DW_TAG_member
    1739                            .dwattr $C$DW$154, DW_AT_type(*$C$DW$T$145)
    1740                            .dwattr $C$DW$154, DW_AT_name("hSpi")
    1741                            .dwattr $C$DW$154, DW_AT_TI_symbol_name("hSpi")
    1742                            .dwattr $C$DW$154, DW_AT_data_member_location[DW_OP_plus_uconst 0x1c]
    1743                            .dwattr $C$DW$154, DW_AT_accessibility(DW_ACCESS_public)
    1744                            .dwattr $C$DW$154, DW_AT_decl_file("C:/ti/simplelink_cc13x0_sdk_2_10_00_36/source/ti/display/D
    1745                            .dwattr $C$DW$154, DW_AT_decl_line(0x67)
    1746                            .dwattr $C$DW$154, DW_AT_decl_column(0x1b)
    1747                    
    1748                    $C$DW$155       .dwtag  DW_TAG_member
    1749                            .dwattr $C$DW$155, DW_AT_type(*$C$DW$T$147)
    1750                            .dwattr $C$DW$155, DW_AT_name("lineClearMode")
    1751                            .dwattr $C$DW$155, DW_AT_TI_symbol_name("lineClearMode")
    1752                            .dwattr $C$DW$155, DW_AT_data_member_location[DW_OP_plus_uconst 0x20]
    1753                            .dwattr $C$DW$155, DW_AT_accessibility(DW_ACCESS_public)
    1754                            .dwattr $C$DW$155, DW_AT_decl_file("C:/ti/simplelink_cc13x0_sdk_2_10_00_36/source/ti/display/D
    1755                            .dwattr $C$DW$155, DW_AT_decl_line(0x68)
    1756                            .dwattr $C$DW$155, DW_AT_decl_column(0x1b)
TI ARM Assembler PC v18.1.1 Wed Apr 25 09:49:07 2018

Tools Copyright (c) 1996-2017 Texas Instruments Incorporated
C:\Users\devops\AppData\Local\Temp\2\{3ABEE735-5D89-419B-B04E-A704033696CA} PAGE   33

    1757                    
    1758                    $C$DW$156       .dwtag  DW_TAG_member
    1759                            .dwattr $C$DW$156, DW_AT_type(*$C$DW$T$148)
    1760                            .dwattr $C$DW$156, DW_AT_name("g_sDisplay")
    1761                            .dwattr $C$DW$156, DW_AT_TI_symbol_name("g_sDisplay")
    1762                            .dwattr $C$DW$156, DW_AT_data_member_location[DW_OP_plus_uconst 0x24]
    1763                            .dwattr $C$DW$156, DW_AT_accessibility(DW_ACCESS_public)
    1764                            .dwattr $C$DW$156, DW_AT_decl_file("C:/ti/simplelink_cc13x0_sdk_2_10_00_36/source/ti/display/D
    1765                            .dwattr $C$DW$156, DW_AT_decl_line(0x69)
    1766                            .dwattr $C$DW$156, DW_AT_decl_column(0x1b)
    1767                    
    1768                    $C$DW$157       .dwtag  DW_TAG_member
    1769                            .dwattr $C$DW$157, DW_AT_type(*$C$DW$T$149)
    1770                            .dwattr $C$DW$157, DW_AT_name("displayColor")
    1771                            .dwattr $C$DW$157, DW_AT_TI_symbol_name("displayColor")
    1772                            .dwattr $C$DW$157, DW_AT_data_member_location[DW_OP_plus_uconst 0x34]
    1773                            .dwattr $C$DW$157, DW_AT_accessibility(DW_ACCESS_public)
    1774                            .dwattr $C$DW$157, DW_AT_decl_file("C:/ti/simplelink_cc13x0_sdk_2_10_00_36/source/ti/display/D
    1775                            .dwattr $C$DW$157, DW_AT_decl_line(0x6a)
    1776                            .dwattr $C$DW$157, DW_AT_decl_column(0x1b)
    1777                    
    1778                    $C$DW$158       .dwtag  DW_TAG_member
    1779                            .dwattr $C$DW$158, DW_AT_type(*$C$DW$T$150)
    1780                            .dwattr $C$DW$158, DW_AT_name("semLCD")
    1781                            .dwattr $C$DW$158, DW_AT_TI_symbol_name("semLCD")
    1782                            .dwattr $C$DW$158, DW_AT_data_member_location[DW_OP_plus_uconst 0x3c]
    1783                            .dwattr $C$DW$158, DW_AT_accessibility(DW_ACCESS_public)
    1784                            .dwattr $C$DW$158, DW_AT_decl_file("C:/ti/simplelink_cc13x0_sdk_2_10_00_36/source/ti/display/D
    1785                            .dwattr $C$DW$158, DW_AT_decl_line(0x6b)
    1786                            .dwattr $C$DW$158, DW_AT_decl_column(0x1b)
    1787                    
    1788                    $C$DW$159       .dwtag  DW_TAG_member
    1789                            .dwattr $C$DW$159, DW_AT_type(*$C$DW$T$94)
    1790                            .dwattr $C$DW$159, DW_AT_name("displayBuffer")
    1791                            .dwattr $C$DW$159, DW_AT_TI_symbol_name("displayBuffer")
    1792                            .dwattr $C$DW$159, DW_AT_data_member_location[DW_OP_plus_uconst 0x40]
    1793                            .dwattr $C$DW$159, DW_AT_accessibility(DW_ACCESS_public)
    1794                            .dwattr $C$DW$159, DW_AT_decl_file("C:/ti/simplelink_cc13x0_sdk_2_10_00_36/source/ti/display/D
    1795                            .dwattr $C$DW$159, DW_AT_decl_line(0x6c)
    1796                            .dwattr $C$DW$159, DW_AT_decl_column(0x1b)
    1797                    
    1798                            .dwattr $C$DW$T$151, DW_AT_decl_file("C:/ti/simplelink_cc13x0_sdk_2_10_00_36/source/ti/display
    1799                            .dwattr $C$DW$T$151, DW_AT_decl_line(0x64)
    1800                            .dwattr $C$DW$T$151, DW_AT_decl_column(0x10)
    1801                            .dwendtag $C$DW$T$151
    1802                    
    1803                    $C$DW$T$511     .dwtag  DW_TAG_typedef
    1804                            .dwattr $C$DW$T$511, DW_AT_name("DisplaySharp_Object")
    1805                            .dwattr $C$DW$T$511, DW_AT_type(*$C$DW$T$151)
    1806                            .dwattr $C$DW$T$511, DW_AT_language(DW_LANG_C)
    1807                            .dwattr $C$DW$T$511, DW_AT_decl_file("C:/ti/simplelink_cc13x0_sdk_2_10_00_36/source/ti/display
    1808                            .dwattr $C$DW$T$511, DW_AT_decl_line(0x6d)
    1809                            .dwattr $C$DW$T$511, DW_AT_decl_column(0x03)
    1810                    
    1811                    $C$DW$T$512     .dwtag  DW_TAG_pointer_type
TI ARM Assembler PC v18.1.1 Wed Apr 25 09:49:07 2018

Tools Copyright (c) 1996-2017 Texas Instruments Incorporated
C:\Users\devops\AppData\Local\Temp\2\{3ABEE735-5D89-419B-B04E-A704033696CA} PAGE   34

    1812                            .dwattr $C$DW$T$512, DW_AT_type(*$C$DW$T$151)
    1813                            .dwattr $C$DW$T$512, DW_AT_address_class(0x20)
    1814                    
    1815                    $C$DW$T$513     .dwtag  DW_TAG_typedef
    1816                            .dwattr $C$DW$T$513, DW_AT_name("DisplaySharp_Handle")
    1817                            .dwattr $C$DW$T$513, DW_AT_type(*$C$DW$T$512)
    1818                            .dwattr $C$DW$T$513, DW_AT_language(DW_LANG_C)
    1819                            .dwattr $C$DW$T$513, DW_AT_decl_file("C:/ti/simplelink_cc13x0_sdk_2_10_00_36/source/ti/display
    1820                            .dwattr $C$DW$T$513, DW_AT_decl_line(0x6d)
    1821                            .dwattr $C$DW$T$513, DW_AT_decl_column(0x19)
    1822                    
    1823                    
    1824                    $C$DW$T$157     .dwtag  DW_TAG_structure_type
    1825                            .dwattr $C$DW$T$157, DW_AT_name("Display_Config")
    1826                            .dwattr $C$DW$T$157, DW_AT_byte_size(0x0c)
    1827                    $C$DW$160       .dwtag  DW_TAG_member
    1828                            .dwattr $C$DW$160, DW_AT_type(*$C$DW$T$154)
    1829                            .dwattr $C$DW$160, DW_AT_name("fxnTablePtr")
    1830                            .dwattr $C$DW$160, DW_AT_TI_symbol_name("fxnTablePtr")
    1831                            .dwattr $C$DW$160, DW_AT_data_member_location[DW_OP_plus_uconst 0x0]
    1832                            .dwattr $C$DW$160, DW_AT_accessibility(DW_ACCESS_public)
    1833                            .dwattr $C$DW$160, DW_AT_decl_file("C:/ti/simplelink_cc13x0_sdk_2_10_00_36/source/ti/display/D
    1834                            .dwattr $C$DW$160, DW_AT_decl_line(0x210)
    1835                            .dwattr $C$DW$160, DW_AT_decl_column(0x1d)
    1836                    
    1837                    $C$DW$161       .dwtag  DW_TAG_member
    1838                            .dwattr $C$DW$161, DW_AT_type(*$C$DW$T$3)
    1839                            .dwattr $C$DW$161, DW_AT_name("object")
    1840                            .dwattr $C$DW$161, DW_AT_TI_symbol_name("object")
    1841                            .dwattr $C$DW$161, DW_AT_data_member_location[DW_OP_plus_uconst 0x4]
    1842                            .dwattr $C$DW$161, DW_AT_accessibility(DW_ACCESS_public)
    1843                            .dwattr $C$DW$161, DW_AT_decl_file("C:/ti/simplelink_cc13x0_sdk_2_10_00_36/source/ti/display/D
    1844                            .dwattr $C$DW$161, DW_AT_decl_line(0x213)
    1845                            .dwattr $C$DW$161, DW_AT_decl_column(0x1d)
    1846                    
    1847                    $C$DW$162       .dwtag  DW_TAG_member
    1848                            .dwattr $C$DW$162, DW_AT_type(*$C$DW$T$156)
    1849                            .dwattr $C$DW$162, DW_AT_name("hwAttrs")
    1850                            .dwattr $C$DW$162, DW_AT_TI_symbol_name("hwAttrs")
    1851                            .dwattr $C$DW$162, DW_AT_data_member_location[DW_OP_plus_uconst 0x8]
    1852                            .dwattr $C$DW$162, DW_AT_accessibility(DW_ACCESS_public)
    1853                            .dwattr $C$DW$162, DW_AT_decl_file("C:/ti/simplelink_cc13x0_sdk_2_10_00_36/source/ti/display/D
    1854                            .dwattr $C$DW$162, DW_AT_decl_line(0x216)
    1855                            .dwattr $C$DW$162, DW_AT_decl_column(0x1d)
    1856                    
    1857                            .dwattr $C$DW$T$157, DW_AT_decl_file("C:/ti/simplelink_cc13x0_sdk_2_10_00_36/source/ti/display
    1858                            .dwattr $C$DW$T$157, DW_AT_decl_line(0x20d)
    1859                            .dwattr $C$DW$T$157, DW_AT_decl_column(0x10)
    1860                            .dwendtag $C$DW$T$157
    1861                    
    1862                    $C$DW$T$514     .dwtag  DW_TAG_typedef
    1863                            .dwattr $C$DW$T$514, DW_AT_name("Display_Config")
    1864                            .dwattr $C$DW$T$514, DW_AT_type(*$C$DW$T$157)
    1865                            .dwattr $C$DW$T$514, DW_AT_language(DW_LANG_C)
    1866                            .dwattr $C$DW$T$514, DW_AT_decl_file("C:/ti/simplelink_cc13x0_sdk_2_10_00_36/source/ti/display
TI ARM Assembler PC v18.1.1 Wed Apr 25 09:49:07 2018

Tools Copyright (c) 1996-2017 Texas Instruments Incorporated
C:\Users\devops\AppData\Local\Temp\2\{3ABEE735-5D89-419B-B04E-A704033696CA} PAGE   35

    1867                            .dwattr $C$DW$T$514, DW_AT_decl_line(0x217)
    1868                            .dwattr $C$DW$T$514, DW_AT_decl_column(0x03)
    1869                    
    1870                    $C$DW$T$158     .dwtag  DW_TAG_pointer_type
    1871                            .dwattr $C$DW$T$158, DW_AT_type(*$C$DW$T$157)
    1872                            .dwattr $C$DW$T$158, DW_AT_address_class(0x20)
    1873                    
    1874                    $C$DW$T$159     .dwtag  DW_TAG_typedef
    1875                            .dwattr $C$DW$T$159, DW_AT_name("Display_Handle")
    1876                            .dwattr $C$DW$T$159, DW_AT_type(*$C$DW$T$158)
    1877                            .dwattr $C$DW$T$159, DW_AT_language(DW_LANG_C)
    1878                            .dwattr $C$DW$T$159, DW_AT_decl_file("C:/ti/simplelink_cc13x0_sdk_2_10_00_36/source/ti/display
    1879                            .dwattr $C$DW$T$159, DW_AT_decl_line(0x1a0)
    1880                            .dwattr $C$DW$T$159, DW_AT_decl_column(0x21)
    1881                    
    1882                    
    1883                    $C$DW$T$165     .dwtag  DW_TAG_subroutine_type
    1884                            .dwattr $C$DW$T$165, DW_AT_type(*$C$DW$T$159)
    1885                            .dwattr $C$DW$T$165, DW_AT_language(DW_LANG_C)
    1886                    $C$DW$163       .dwtag  DW_TAG_formal_parameter
    1887                            .dwattr $C$DW$163, DW_AT_type(*$C$DW$T$159)
    1888                    
    1889                    $C$DW$164       .dwtag  DW_TAG_formal_parameter
    1890                            .dwattr $C$DW$164, DW_AT_type(*$C$DW$T$164)
    1891                    
    1892                            .dwendtag $C$DW$T$165
    1893                    
    1894                    $C$DW$T$166     .dwtag  DW_TAG_pointer_type
    1895                            .dwattr $C$DW$T$166, DW_AT_type(*$C$DW$T$165)
    1896                            .dwattr $C$DW$T$166, DW_AT_address_class(0x20)
    1897                    
    1898                    $C$DW$T$167     .dwtag  DW_TAG_typedef
    1899                            .dwattr $C$DW$T$167, DW_AT_name("Display_openFxn")
    1900                            .dwattr $C$DW$T$167, DW_AT_type(*$C$DW$T$166)
    1901                            .dwattr $C$DW$T$167, DW_AT_language(DW_LANG_C)
    1902                            .dwattr $C$DW$T$167, DW_AT_decl_file("C:/ti/simplelink_cc13x0_sdk_2_10_00_36/source/ti/display
    1903                            .dwattr $C$DW$T$167, DW_AT_decl_line(0x1c4)
    1904                            .dwattr $C$DW$T$167, DW_AT_decl_column(0x1a)
    1905                    
    1906                    
    1907                    $C$DW$T$186     .dwtag  DW_TAG_structure_type
    1908                            .dwattr $C$DW$T$186, DW_AT_name("Display_FxnTable")
    1909                            .dwattr $C$DW$T$186, DW_AT_byte_size(0x20)
    1910                    $C$DW$165       .dwtag  DW_TAG_member
    1911                            .dwattr $C$DW$165, DW_AT_type(*$C$DW$T$162)
    1912                            .dwattr $C$DW$165, DW_AT_name("initFxn")
    1913                            .dwattr $C$DW$165, DW_AT_TI_symbol_name("initFxn")
    1914                            .dwattr $C$DW$165, DW_AT_data_member_location[DW_OP_plus_uconst 0x0]
    1915                            .dwattr $C$DW$165, DW_AT_accessibility(DW_ACCESS_public)
    1916                            .dwattr $C$DW$165, DW_AT_decl_file("C:/ti/simplelink_cc13x0_sdk_2_10_00_36/source/ti/display/D
    1917                            .dwattr $C$DW$165, DW_AT_decl_line(0x1f8)
    1918                            .dwattr $C$DW$165, DW_AT_decl_column(0x1b)
    1919                    
    1920                    $C$DW$166       .dwtag  DW_TAG_member
    1921                            .dwattr $C$DW$166, DW_AT_type(*$C$DW$T$167)
TI ARM Assembler PC v18.1.1 Wed Apr 25 09:49:07 2018

Tools Copyright (c) 1996-2017 Texas Instruments Incorporated
C:\Users\devops\AppData\Local\Temp\2\{3ABEE735-5D89-419B-B04E-A704033696CA} PAGE   36

    1922                            .dwattr $C$DW$166, DW_AT_name("openFxn")
    1923                            .dwattr $C$DW$166, DW_AT_TI_symbol_name("openFxn")
    1924                            .dwattr $C$DW$166, DW_AT_data_member_location[DW_OP_plus_uconst 0x4]
    1925                            .dwattr $C$DW$166, DW_AT_accessibility(DW_ACCESS_public)
    1926                            .dwattr $C$DW$166, DW_AT_decl_file("C:/ti/simplelink_cc13x0_sdk_2_10_00_36/source/ti/display/D
    1927                            .dwattr $C$DW$166, DW_AT_decl_line(0x1f9)
    1928                            .dwattr $C$DW$166, DW_AT_decl_column(0x1b)
    1929                    
    1930                    $C$DW$167       .dwtag  DW_TAG_member
    1931                            .dwattr $C$DW$167, DW_AT_type(*$C$DW$T$168)
    1932                            .dwattr $C$DW$167, DW_AT_name("clearFxn")
    1933                            .dwattr $C$DW$167, DW_AT_TI_symbol_name("clearFxn")
    1934                            .dwattr $C$DW$167, DW_AT_data_member_location[DW_OP_plus_uconst 0x8]
    1935                            .dwattr $C$DW$167, DW_AT_accessibility(DW_ACCESS_public)
    1936                            .dwattr $C$DW$167, DW_AT_decl_file("C:/ti/simplelink_cc13x0_sdk_2_10_00_36/source/ti/display/D
    1937                            .dwattr $C$DW$167, DW_AT_decl_line(0x1fa)
    1938                            .dwattr $C$DW$167, DW_AT_decl_column(0x1b)
    1939                    
    1940                    $C$DW$168       .dwtag  DW_TAG_member
    1941                            .dwattr $C$DW$168, DW_AT_type(*$C$DW$T$171)
    1942                            .dwattr $C$DW$168, DW_AT_name("clearLinesFxn")
    1943                            .dwattr $C$DW$168, DW_AT_TI_symbol_name("clearLinesFxn")
    1944                            .dwattr $C$DW$168, DW_AT_data_member_location[DW_OP_plus_uconst 0xc]
    1945                            .dwattr $C$DW$168, DW_AT_accessibility(DW_ACCESS_public)
    1946                            .dwattr $C$DW$168, DW_AT_decl_file("C:/ti/simplelink_cc13x0_sdk_2_10_00_36/source/ti/display/D
    1947                            .dwattr $C$DW$168, DW_AT_decl_line(0x1fb)
    1948                            .dwattr $C$DW$168, DW_AT_decl_column(0x1b)
    1949                    
    1950                    $C$DW$169       .dwtag  DW_TAG_member
    1951                            .dwattr $C$DW$169, DW_AT_type(*$C$DW$T$178)
    1952                            .dwattr $C$DW$169, DW_AT_name("vprintfFxn")
    1953                            .dwattr $C$DW$169, DW_AT_TI_symbol_name("vprintfFxn")
    1954                            .dwattr $C$DW$169, DW_AT_data_member_location[DW_OP_plus_uconst 0x10]
    1955                            .dwattr $C$DW$169, DW_AT_accessibility(DW_ACCESS_public)
    1956                            .dwattr $C$DW$169, DW_AT_decl_file("C:/ti/simplelink_cc13x0_sdk_2_10_00_36/source/ti/display/D
    1957                            .dwattr $C$DW$169, DW_AT_decl_line(0x1fc)
    1958                            .dwattr $C$DW$169, DW_AT_decl_column(0x1b)
    1959                    
    1960                    $C$DW$170       .dwtag  DW_TAG_member
    1961                            .dwattr $C$DW$170, DW_AT_type(*$C$DW$T$179)
    1962                            .dwattr $C$DW$170, DW_AT_name("closeFxn")
    1963                            .dwattr $C$DW$170, DW_AT_TI_symbol_name("closeFxn")
    1964                            .dwattr $C$DW$170, DW_AT_data_member_location[DW_OP_plus_uconst 0x14]
    1965                            .dwattr $C$DW$170, DW_AT_accessibility(DW_ACCESS_public)
    1966                            .dwattr $C$DW$170, DW_AT_decl_file("C:/ti/simplelink_cc13x0_sdk_2_10_00_36/source/ti/display/D
    1967                            .dwattr $C$DW$170, DW_AT_decl_line(0x1fd)
    1968                            .dwattr $C$DW$170, DW_AT_decl_column(0x1b)
    1969                    
    1970                    $C$DW$171       .dwtag  DW_TAG_member
    1971                            .dwattr $C$DW$171, DW_AT_type(*$C$DW$T$182)
    1972                            .dwattr $C$DW$171, DW_AT_name("controlFxn")
    1973                            .dwattr $C$DW$171, DW_AT_TI_symbol_name("controlFxn")
    1974                            .dwattr $C$DW$171, DW_AT_data_member_location[DW_OP_plus_uconst 0x18]
    1975                            .dwattr $C$DW$171, DW_AT_accessibility(DW_ACCESS_public)
    1976                            .dwattr $C$DW$171, DW_AT_decl_file("C:/ti/simplelink_cc13x0_sdk_2_10_00_36/source/ti/display/D
TI ARM Assembler PC v18.1.1 Wed Apr 25 09:49:07 2018

Tools Copyright (c) 1996-2017 Texas Instruments Incorporated
C:\Users\devops\AppData\Local\Temp\2\{3ABEE735-5D89-419B-B04E-A704033696CA} PAGE   37

    1977                            .dwattr $C$DW$171, DW_AT_decl_line(0x1fe)
    1978                            .dwattr $C$DW$171, DW_AT_decl_column(0x1b)
    1979                    
    1980                    $C$DW$172       .dwtag  DW_TAG_member
    1981                            .dwattr $C$DW$172, DW_AT_type(*$C$DW$T$185)
    1982                            .dwattr $C$DW$172, DW_AT_name("getTypeFxn")
    1983                            .dwattr $C$DW$172, DW_AT_TI_symbol_name("getTypeFxn")
    1984                            .dwattr $C$DW$172, DW_AT_data_member_location[DW_OP_plus_uconst 0x1c]
    1985                            .dwattr $C$DW$172, DW_AT_accessibility(DW_ACCESS_public)
    1986                            .dwattr $C$DW$172, DW_AT_decl_file("C:/ti/simplelink_cc13x0_sdk_2_10_00_36/source/ti/display/D
    1987                            .dwattr $C$DW$172, DW_AT_decl_line(0x1ff)
    1988                            .dwattr $C$DW$172, DW_AT_decl_column(0x1b)
    1989                    
    1990                            .dwattr $C$DW$T$186, DW_AT_decl_file("C:/ti/simplelink_cc13x0_sdk_2_10_00_36/source/ti/display
    1991                            .dwattr $C$DW$T$186, DW_AT_decl_line(0x1f6)
    1992                            .dwattr $C$DW$T$186, DW_AT_decl_column(0x10)
    1993                            .dwendtag $C$DW$T$186
    1994                    
    1995                    $C$DW$T$152     .dwtag  DW_TAG_typedef
    1996                            .dwattr $C$DW$T$152, DW_AT_name("Display_FxnTable")
    1997                            .dwattr $C$DW$T$152, DW_AT_type(*$C$DW$T$186)
    1998                            .dwattr $C$DW$T$152, DW_AT_language(DW_LANG_C)
    1999                            .dwattr $C$DW$T$152, DW_AT_decl_file("C:/ti/simplelink_cc13x0_sdk_2_10_00_36/source/ti/display
    2000                            .dwattr $C$DW$T$152, DW_AT_decl_line(0x200)
    2001                            .dwattr $C$DW$T$152, DW_AT_decl_column(0x03)
    2002                    
    2003                    $C$DW$T$153     .dwtag  DW_TAG_const_type
    2004                            .dwattr $C$DW$T$153, DW_AT_type(*$C$DW$T$152)
    2005                    
    2006                    $C$DW$T$154     .dwtag  DW_TAG_pointer_type
    2007                            .dwattr $C$DW$T$154, DW_AT_type(*$C$DW$T$153)
    2008                            .dwattr $C$DW$T$154, DW_AT_address_class(0x20)
    2009                    
    2010                    
    2011                    $C$DW$T$146     .dwtag  DW_TAG_enumeration_type
    2012                            .dwattr $C$DW$T$146, DW_AT_name("Display_LineClearMode")
    2013                            .dwattr $C$DW$T$146, DW_AT_byte_size(0x01)
    2014                    $C$DW$173       .dwtag  DW_TAG_enumerator
    2015                            .dwattr $C$DW$173, DW_AT_name("DISPLAY_CLEAR_NONE")
    2016                            .dwattr $C$DW$173, DW_AT_const_value(0x00)
    2017                            .dwattr $C$DW$173, DW_AT_decl_file("C:/ti/simplelink_cc13x0_sdk_2_10_00_36/source/ti/display/D
    2018                            .dwattr $C$DW$173, DW_AT_decl_line(0x1ad)
    2019                            .dwattr $C$DW$173, DW_AT_decl_column(0x05)
    2020                    
    2021                    $C$DW$174       .dwtag  DW_TAG_enumerator
    2022                            .dwattr $C$DW$174, DW_AT_name("DISPLAY_CLEAR_LEFT")
    2023                            .dwattr $C$DW$174, DW_AT_const_value(0x01)
    2024                            .dwattr $C$DW$174, DW_AT_decl_file("C:/ti/simplelink_cc13x0_sdk_2_10_00_36/source/ti/display/D
    2025                            .dwattr $C$DW$174, DW_AT_decl_line(0x1ae)
    2026                            .dwattr $C$DW$174, DW_AT_decl_column(0x05)
    2027                    
    2028                    $C$DW$175       .dwtag  DW_TAG_enumerator
    2029                            .dwattr $C$DW$175, DW_AT_name("DISPLAY_CLEAR_RIGHT")
    2030                            .dwattr $C$DW$175, DW_AT_const_value(0x02)
    2031                            .dwattr $C$DW$175, DW_AT_decl_file("C:/ti/simplelink_cc13x0_sdk_2_10_00_36/source/ti/display/D
TI ARM Assembler PC v18.1.1 Wed Apr 25 09:49:07 2018

Tools Copyright (c) 1996-2017 Texas Instruments Incorporated
C:\Users\devops\AppData\Local\Temp\2\{3ABEE735-5D89-419B-B04E-A704033696CA} PAGE   38

    2032                            .dwattr $C$DW$175, DW_AT_decl_line(0x1af)
    2033                            .dwattr $C$DW$175, DW_AT_decl_column(0x05)
    2034                    
    2035                    $C$DW$176       .dwtag  DW_TAG_enumerator
    2036                            .dwattr $C$DW$176, DW_AT_name("DISPLAY_CLEAR_BOTH")
    2037                            .dwattr $C$DW$176, DW_AT_const_value(0x03)
    2038                            .dwattr $C$DW$176, DW_AT_decl_file("C:/ti/simplelink_cc13x0_sdk_2_10_00_36/source/ti/display/D
    2039                            .dwattr $C$DW$176, DW_AT_decl_line(0x1b0)
    2040                            .dwattr $C$DW$176, DW_AT_decl_column(0x05)
    2041                    
    2042                            .dwattr $C$DW$T$146, DW_AT_decl_file("C:/ti/simplelink_cc13x0_sdk_2_10_00_36/source/ti/display
    2043                            .dwattr $C$DW$T$146, DW_AT_decl_line(0x1ab)
    2044                            .dwattr $C$DW$T$146, DW_AT_decl_column(0x0e)
    2045                            .dwendtag $C$DW$T$146
    2046                    
    2047                    $C$DW$T$147     .dwtag  DW_TAG_typedef
    2048                            .dwattr $C$DW$T$147, DW_AT_name("Display_LineClearMode")
    2049                            .dwattr $C$DW$T$147, DW_AT_type(*$C$DW$T$146)
    2050                            .dwattr $C$DW$T$147, DW_AT_language(DW_LANG_C)
    2051                            .dwattr $C$DW$T$147, DW_AT_decl_file("C:/ti/simplelink_cc13x0_sdk_2_10_00_36/source/ti/display
    2052                            .dwattr $C$DW$T$147, DW_AT_decl_line(0x1b1)
    2053                            .dwattr $C$DW$T$147, DW_AT_decl_column(0x03)
    2054                    
    2055                    
    2056                    $C$DW$T$187     .dwtag  DW_TAG_structure_type
    2057                            .dwattr $C$DW$T$187, DW_AT_name("Display_Params")
    2058                            .dwattr $C$DW$T$187, DW_AT_byte_size(0x01)
    2059                    $C$DW$177       .dwtag  DW_TAG_member
    2060                            .dwattr $C$DW$177, DW_AT_type(*$C$DW$T$147)
    2061                            .dwattr $C$DW$177, DW_AT_name("lineClearMode")
    2062                            .dwattr $C$DW$177, DW_AT_TI_symbol_name("lineClearMode")
    2063                            .dwattr $C$DW$177, DW_AT_data_member_location[DW_OP_plus_uconst 0x0]
    2064                            .dwattr $C$DW$177, DW_AT_accessibility(DW_ACCESS_public)
    2065                            .dwattr $C$DW$177, DW_AT_decl_file("C:/ti/simplelink_cc13x0_sdk_2_10_00_36/source/ti/display/D
    2066                            .dwattr $C$DW$177, DW_AT_decl_line(0x1bd)
    2067                            .dwattr $C$DW$177, DW_AT_decl_column(0x1b)
    2068                    
    2069                            .dwattr $C$DW$T$187, DW_AT_decl_file("C:/ti/simplelink_cc13x0_sdk_2_10_00_36/source/ti/display
    2070                            .dwattr $C$DW$T$187, DW_AT_decl_line(0x1bb)
    2071                            .dwattr $C$DW$T$187, DW_AT_decl_column(0x10)
    2072                            .dwendtag $C$DW$T$187
    2073                    
    2074                    $C$DW$T$163     .dwtag  DW_TAG_typedef
    2075                            .dwattr $C$DW$T$163, DW_AT_name("Display_Params")
    2076                            .dwattr $C$DW$T$163, DW_AT_type(*$C$DW$T$187)
    2077                            .dwattr $C$DW$T$163, DW_AT_language(DW_LANG_C)
    2078                            .dwattr $C$DW$T$163, DW_AT_decl_file("C:/ti/simplelink_cc13x0_sdk_2_10_00_36/source/ti/display
    2079                            .dwattr $C$DW$T$163, DW_AT_decl_line(0x1be)
    2080                            .dwattr $C$DW$T$163, DW_AT_decl_column(0x03)
    2081                    
    2082                    $C$DW$T$164     .dwtag  DW_TAG_pointer_type
    2083                            .dwattr $C$DW$T$164, DW_AT_type(*$C$DW$T$163)
    2084                            .dwattr $C$DW$T$164, DW_AT_address_class(0x20)
    2085                    
    2086                    
TI ARM Assembler PC v18.1.1 Wed Apr 25 09:49:07 2018

Tools Copyright (c) 1996-2017 Texas Instruments Incorporated
C:\Users\devops\AppData\Local\Temp\2\{3ABEE735-5D89-419B-B04E-A704033696CA} PAGE   39

    2087                    $C$DW$T$195     .dwtag  DW_TAG_structure_type
    2088                            .dwattr $C$DW$T$195, DW_AT_name("Graphics_Context")
    2089                            .dwattr $C$DW$T$195, DW_AT_byte_size(0x1c)
    2090                    $C$DW$178       .dwtag  DW_TAG_member
    2091                            .dwattr $C$DW$178, DW_AT_type(*$C$DW$T$188)
    2092                            .dwattr $C$DW$178, DW_AT_name("size")
    2093                            .dwattr $C$DW$178, DW_AT_TI_symbol_name("size")
    2094                            .dwattr $C$DW$178, DW_AT_data_member_location[DW_OP_plus_uconst 0x0]
    2095                            .dwattr $C$DW$178, DW_AT_accessibility(DW_ACCESS_public)
    2096                            .dwattr $C$DW$178, DW_AT_decl_file("C:/ti/simplelink_cc13x0_sdk_2_10_00_36/source/ti/grlib/grl
    2097                            .dwattr $C$DW$178, DW_AT_decl_line(0xe8)
    2098                            .dwattr $C$DW$178, DW_AT_decl_column(0x0d)
    2099                    
    2100                    $C$DW$179       .dwtag  DW_TAG_member
    2101                            .dwattr $C$DW$179, DW_AT_type(*$C$DW$T$190)
    2102                            .dwattr $C$DW$179, DW_AT_name("display")
    2103                            .dwattr $C$DW$179, DW_AT_TI_symbol_name("display")
    2104                            .dwattr $C$DW$179, DW_AT_data_member_location[DW_OP_plus_uconst 0x4]
    2105                            .dwattr $C$DW$179, DW_AT_accessibility(DW_ACCESS_public)
    2106                            .dwattr $C$DW$179, DW_AT_decl_file("C:/ti/simplelink_cc13x0_sdk_2_10_00_36/source/ti/grlib/grl
    2107                            .dwattr $C$DW$179, DW_AT_decl_line(0xe9)
    2108                            .dwattr $C$DW$179, DW_AT_decl_column(0x1d)
    2109                    
    2110                    $C$DW$180       .dwtag  DW_TAG_member
    2111                            .dwattr $C$DW$180, DW_AT_type(*$C$DW$T$191)
    2112                            .dwattr $C$DW$180, DW_AT_name("clipRegion")
    2113                            .dwattr $C$DW$180, DW_AT_TI_symbol_name("clipRegion")
    2114                            .dwattr $C$DW$180, DW_AT_data_member_location[DW_OP_plus_uconst 0x8]
    2115                            .dwattr $C$DW$180, DW_AT_accessibility(DW_ACCESS_public)
    2116                            .dwattr $C$DW$180, DW_AT_decl_file("C:/ti/simplelink_cc13x0_sdk_2_10_00_36/source/ti/grlib/grl
    2117                            .dwattr $C$DW$180, DW_AT_decl_line(0xea)
    2118                            .dwattr $C$DW$180, DW_AT_decl_column(0x18)
    2119                    
    2120                    $C$DW$181       .dwtag  DW_TAG_member
    2121                            .dwattr $C$DW$181, DW_AT_type(*$C$DW$T$90)
    2122                            .dwattr $C$DW$181, DW_AT_name("foreground")
    2123                            .dwattr $C$DW$181, DW_AT_TI_symbol_name("foreground")
    2124                            .dwattr $C$DW$181, DW_AT_data_member_location[DW_OP_plus_uconst 0x10]
    2125                            .dwattr $C$DW$181, DW_AT_accessibility(DW_ACCESS_public)
    2126                            .dwattr $C$DW$181, DW_AT_decl_file("C:/ti/simplelink_cc13x0_sdk_2_10_00_36/source/ti/grlib/grl
    2127                            .dwattr $C$DW$181, DW_AT_decl_line(0xeb)
    2128                            .dwattr $C$DW$181, DW_AT_decl_column(0x0e)
    2129                    
    2130                    $C$DW$182       .dwtag  DW_TAG_member
    2131                            .dwattr $C$DW$182, DW_AT_type(*$C$DW$T$90)
    2132                            .dwattr $C$DW$182, DW_AT_name("background")
    2133                            .dwattr $C$DW$182, DW_AT_TI_symbol_name("background")
    2134                            .dwattr $C$DW$182, DW_AT_data_member_location[DW_OP_plus_uconst 0x14]
    2135                            .dwattr $C$DW$182, DW_AT_accessibility(DW_ACCESS_public)
    2136                            .dwattr $C$DW$182, DW_AT_decl_file("C:/ti/simplelink_cc13x0_sdk_2_10_00_36/source/ti/grlib/grl
    2137                            .dwattr $C$DW$182, DW_AT_decl_line(0xec)
    2138                            .dwattr $C$DW$182, DW_AT_decl_column(0x0e)
    2139                    
    2140                    $C$DW$183       .dwtag  DW_TAG_member
    2141                            .dwattr $C$DW$183, DW_AT_type(*$C$DW$T$194)
TI ARM Assembler PC v18.1.1 Wed Apr 25 09:49:07 2018

Tools Copyright (c) 1996-2017 Texas Instruments Incorporated
C:\Users\devops\AppData\Local\Temp\2\{3ABEE735-5D89-419B-B04E-A704033696CA} PAGE   40

    2142                            .dwattr $C$DW$183, DW_AT_name("font")
    2143                            .dwattr $C$DW$183, DW_AT_TI_symbol_name("font")
    2144                            .dwattr $C$DW$183, DW_AT_data_member_location[DW_OP_plus_uconst 0x18]
    2145                            .dwattr $C$DW$183, DW_AT_accessibility(DW_ACCESS_public)
    2146                            .dwattr $C$DW$183, DW_AT_decl_file("C:/ti/simplelink_cc13x0_sdk_2_10_00_36/source/ti/grlib/grl
    2147                            .dwattr $C$DW$183, DW_AT_decl_line(0xed)
    2148                            .dwattr $C$DW$183, DW_AT_decl_column(0x1a)
    2149                    
    2150                            .dwattr $C$DW$T$195, DW_AT_decl_file("C:/ti/simplelink_cc13x0_sdk_2_10_00_36/source/ti/grlib/g
    2151                            .dwattr $C$DW$T$195, DW_AT_decl_line(0xe6)
    2152                            .dwattr $C$DW$T$195, DW_AT_decl_column(0x10)
    2153                            .dwendtag $C$DW$T$195
    2154                    
    2155                    $C$DW$T$141     .dwtag  DW_TAG_typedef
    2156                            .dwattr $C$DW$T$141, DW_AT_name("Graphics_Context")
    2157                            .dwattr $C$DW$T$141, DW_AT_type(*$C$DW$T$195)
    2158                            .dwattr $C$DW$T$141, DW_AT_language(DW_LANG_C)
    2159                            .dwattr $C$DW$T$141, DW_AT_decl_file("C:/ti/simplelink_cc13x0_sdk_2_10_00_36/source/ti/grlib/g
    2160                            .dwattr $C$DW$T$141, DW_AT_decl_line(0xee)
    2161                            .dwattr $C$DW$T$141, DW_AT_decl_column(0x03)
    2162                    
    2163                    
    2164                    $C$DW$T$199     .dwtag  DW_TAG_structure_type
    2165                            .dwattr $C$DW$T$199, DW_AT_name("Graphics_Display")
    2166                            .dwattr $C$DW$T$199, DW_AT_byte_size(0x10)
    2167                    $C$DW$184       .dwtag  DW_TAG_member
    2168                            .dwattr $C$DW$184, DW_AT_type(*$C$DW$T$188)
    2169                            .dwattr $C$DW$184, DW_AT_name("size")
    2170                            .dwattr $C$DW$184, DW_AT_TI_symbol_name("size")
    2171                            .dwattr $C$DW$184, DW_AT_data_member_location[DW_OP_plus_uconst 0x0]
    2172                            .dwattr $C$DW$184, DW_AT_accessibility(DW_ACCESS_public)
    2173                            .dwattr $C$DW$184, DW_AT_decl_file("C:/ti/simplelink_cc13x0_sdk_2_10_00_36/source/ti/grlib/grl
    2174                            .dwattr $C$DW$184, DW_AT_decl_line(0xb2)
    2175                            .dwattr $C$DW$184, DW_AT_decl_column(0x0d)
    2176                    
    2177                    $C$DW$185       .dwtag  DW_TAG_member
    2178                            .dwattr $C$DW$185, DW_AT_type(*$C$DW$T$3)
    2179                            .dwattr $C$DW$185, DW_AT_name("displayData")
    2180                            .dwattr $C$DW$185, DW_AT_TI_symbol_name("displayData")
    2181                            .dwattr $C$DW$185, DW_AT_data_member_location[DW_OP_plus_uconst 0x4]
    2182                            .dwattr $C$DW$185, DW_AT_accessibility(DW_ACCESS_public)
    2183                            .dwattr $C$DW$185, DW_AT_decl_file("C:/ti/simplelink_cc13x0_sdk_2_10_00_36/source/ti/grlib/grl
    2184                            .dwattr $C$DW$185, DW_AT_decl_line(0xb3)
    2185                            .dwattr $C$DW$185, DW_AT_decl_column(0x0b)
    2186                    
    2187                    $C$DW$186       .dwtag  DW_TAG_member
    2188                            .dwattr $C$DW$186, DW_AT_type(*$C$DW$T$111)
    2189                            .dwattr $C$DW$186, DW_AT_name("width")
    2190                            .dwattr $C$DW$186, DW_AT_TI_symbol_name("width")
    2191                            .dwattr $C$DW$186, DW_AT_data_member_location[DW_OP_plus_uconst 0x8]
    2192                            .dwattr $C$DW$186, DW_AT_accessibility(DW_ACCESS_public)
    2193                            .dwattr $C$DW$186, DW_AT_decl_file("C:/ti/simplelink_cc13x0_sdk_2_10_00_36/source/ti/grlib/grl
    2194                            .dwattr $C$DW$186, DW_AT_decl_line(0xb4)
    2195                            .dwattr $C$DW$186, DW_AT_decl_column(0x0e)
    2196                    
TI ARM Assembler PC v18.1.1 Wed Apr 25 09:49:07 2018

Tools Copyright (c) 1996-2017 Texas Instruments Incorporated
C:\Users\devops\AppData\Local\Temp\2\{3ABEE735-5D89-419B-B04E-A704033696CA} PAGE   41

    2197                    $C$DW$187       .dwtag  DW_TAG_member
    2198                            .dwattr $C$DW$187, DW_AT_type(*$C$DW$T$111)
    2199                            .dwattr $C$DW$187, DW_AT_name("heigth")
    2200                            .dwattr $C$DW$187, DW_AT_TI_symbol_name("heigth")
    2201                            .dwattr $C$DW$187, DW_AT_data_member_location[DW_OP_plus_uconst 0xa]
    2202                            .dwattr $C$DW$187, DW_AT_accessibility(DW_ACCESS_public)
    2203                            .dwattr $C$DW$187, DW_AT_decl_file("C:/ti/simplelink_cc13x0_sdk_2_10_00_36/source/ti/grlib/grl
    2204                            .dwattr $C$DW$187, DW_AT_decl_line(0xb5)
    2205                            .dwattr $C$DW$187, DW_AT_decl_column(0x0e)
    2206                    
    2207                    $C$DW$188       .dwtag  DW_TAG_member
    2208                            .dwattr $C$DW$188, DW_AT_type(*$C$DW$T$198)
    2209                            .dwattr $C$DW$188, DW_AT_name("pFxns")
    2210                            .dwattr $C$DW$188, DW_AT_TI_symbol_name("pFxns")
    2211                            .dwattr $C$DW$188, DW_AT_data_member_location[DW_OP_plus_uconst 0xc]
    2212                            .dwattr $C$DW$188, DW_AT_accessibility(DW_ACCESS_public)
    2213                            .dwattr $C$DW$188, DW_AT_decl_file("C:/ti/simplelink_cc13x0_sdk_2_10_00_36/source/ti/grlib/grl
    2214                            .dwattr $C$DW$188, DW_AT_decl_line(0xb6)
    2215                            .dwattr $C$DW$188, DW_AT_decl_column(0x27)
    2216                    
    2217                            .dwattr $C$DW$T$199, DW_AT_decl_file("C:/ti/simplelink_cc13x0_sdk_2_10_00_36/source/ti/grlib/g
    2218                            .dwattr $C$DW$T$199, DW_AT_decl_line(0xb0)
    2219                            .dwattr $C$DW$T$199, DW_AT_decl_column(0x08)
    2220                            .dwendtag $C$DW$T$199
    2221                    
    2222                    $C$DW$T$148     .dwtag  DW_TAG_typedef
    2223                            .dwattr $C$DW$T$148, DW_AT_name("Graphics_Display")
    2224                            .dwattr $C$DW$T$148, DW_AT_type(*$C$DW$T$199)
    2225                            .dwattr $C$DW$T$148, DW_AT_language(DW_LANG_C)
    2226                            .dwattr $C$DW$T$148, DW_AT_decl_file("C:/ti/simplelink_cc13x0_sdk_2_10_00_36/source/ti/grlib/g
    2227                            .dwattr $C$DW$T$148, DW_AT_decl_line(0x66)
    2228                            .dwattr $C$DW$T$148, DW_AT_decl_column(0x21)
    2229                    
    2230                    $C$DW$T$189     .dwtag  DW_TAG_const_type
    2231                            .dwattr $C$DW$T$189, DW_AT_type(*$C$DW$T$148)
    2232                    
    2233                    $C$DW$T$190     .dwtag  DW_TAG_pointer_type
    2234                            .dwattr $C$DW$T$190, DW_AT_type(*$C$DW$T$189)
    2235                            .dwattr $C$DW$T$190, DW_AT_address_class(0x20)
    2236                    
    2237                    
    2238                    $C$DW$T$229     .dwtag  DW_TAG_structure_type
    2239                            .dwattr $C$DW$T$229, DW_AT_name("Graphics_Display_Functions")
    2240                            .dwattr $C$DW$T$229, DW_AT_byte_size(0x20)
    2241                    $C$DW$189       .dwtag  DW_TAG_member
    2242                            .dwattr $C$DW$189, DW_AT_type(*$C$DW$T$204)
    2243                            .dwattr $C$DW$189, DW_AT_name("pfnPixelDraw")
    2244                            .dwattr $C$DW$189, DW_AT_TI_symbol_name("pfnPixelDraw")
    2245                            .dwattr $C$DW$189, DW_AT_data_member_location[DW_OP_plus_uconst 0x0]
    2246                            .dwattr $C$DW$189, DW_AT_accessibility(DW_ACCESS_public)
    2247                            .dwattr $C$DW$189, DW_AT_decl_file("C:/ti/simplelink_cc13x0_sdk_2_10_00_36/source/ti/grlib/grl
    2248                            .dwattr $C$DW$189, DW_AT_decl_line(0x72)
    2249                            .dwattr $C$DW$189, DW_AT_decl_column(0x12)
    2250                    
    2251                    $C$DW$190       .dwtag  DW_TAG_member
TI ARM Assembler PC v18.1.1 Wed Apr 25 09:49:07 2018

Tools Copyright (c) 1996-2017 Texas Instruments Incorporated
C:\Users\devops\AppData\Local\Temp\2\{3ABEE735-5D89-419B-B04E-A704033696CA} PAGE   42

    2252                            .dwattr $C$DW$190, DW_AT_type(*$C$DW$T$211)
    2253                            .dwattr $C$DW$190, DW_AT_name("pfnPixelDrawMultiple")
    2254                            .dwattr $C$DW$190, DW_AT_TI_symbol_name("pfnPixelDrawMultiple")
    2255                            .dwattr $C$DW$190, DW_AT_data_member_location[DW_OP_plus_uconst 0x4]
    2256                            .dwattr $C$DW$190, DW_AT_accessibility(DW_ACCESS_public)
    2257                            .dwattr $C$DW$190, DW_AT_decl_file("C:/ti/simplelink_cc13x0_sdk_2_10_00_36/source/ti/grlib/grl
    2258                            .dwattr $C$DW$190, DW_AT_decl_line(0x79)
    2259                            .dwattr $C$DW$190, DW_AT_decl_column(0x12)
    2260                    
    2261                    $C$DW$191       .dwtag  DW_TAG_member
    2262                            .dwattr $C$DW$191, DW_AT_type(*$C$DW$T$214)
    2263                            .dwattr $C$DW$191, DW_AT_name("pfnLineDrawH")
    2264                            .dwattr $C$DW$191, DW_AT_TI_symbol_name("pfnLineDrawH")
    2265                            .dwattr $C$DW$191, DW_AT_data_member_location[DW_OP_plus_uconst 0x8]
    2266                            .dwattr $C$DW$191, DW_AT_accessibility(DW_ACCESS_public)
    2267                            .dwattr $C$DW$191, DW_AT_decl_file("C:/ti/simplelink_cc13x0_sdk_2_10_00_36/source/ti/grlib/grl
    2268                            .dwattr $C$DW$191, DW_AT_decl_line(0x83)
    2269                            .dwattr $C$DW$191, DW_AT_decl_column(0x12)
    2270                    
    2271                    $C$DW$192       .dwtag  DW_TAG_member
    2272                            .dwattr $C$DW$192, DW_AT_type(*$C$DW$T$214)
    2273                            .dwattr $C$DW$192, DW_AT_name("pfnLineDrawV")
    2274                            .dwattr $C$DW$192, DW_AT_TI_symbol_name("pfnLineDrawV")
    2275                            .dwattr $C$DW$192, DW_AT_data_member_location[DW_OP_plus_uconst 0xc]
    2276                            .dwattr $C$DW$192, DW_AT_accessibility(DW_ACCESS_public)
    2277                            .dwattr $C$DW$192, DW_AT_decl_file("C:/ti/simplelink_cc13x0_sdk_2_10_00_36/source/ti/grlib/grl
    2278                            .dwattr $C$DW$192, DW_AT_decl_line(0x8a)
    2279                            .dwattr $C$DW$192, DW_AT_decl_column(0x12)
    2280                    
    2281                    $C$DW$193       .dwtag  DW_TAG_member
    2282                            .dwattr $C$DW$193, DW_AT_type(*$C$DW$T$219)
    2283                            .dwattr $C$DW$193, DW_AT_name("pfnRectFill")
    2284                            .dwattr $C$DW$193, DW_AT_TI_symbol_name("pfnRectFill")
    2285                            .dwattr $C$DW$193, DW_AT_data_member_location[DW_OP_plus_uconst 0x10]
    2286                            .dwattr $C$DW$193, DW_AT_accessibility(DW_ACCESS_public)
    2287                            .dwattr $C$DW$193, DW_AT_decl_file("C:/ti/simplelink_cc13x0_sdk_2_10_00_36/source/ti/grlib/grl
    2288                            .dwattr $C$DW$193, DW_AT_decl_line(0x91)
    2289                            .dwattr $C$DW$193, DW_AT_decl_column(0x12)
    2290                    
    2291                    $C$DW$194       .dwtag  DW_TAG_member
    2292                            .dwattr $C$DW$194, DW_AT_type(*$C$DW$T$222)
    2293                            .dwattr $C$DW$194, DW_AT_name("pfnColorTranslate")
    2294                            .dwattr $C$DW$194, DW_AT_TI_symbol_name("pfnColorTranslate")
    2295                            .dwattr $C$DW$194, DW_AT_data_member_location[DW_OP_plus_uconst 0x14]
    2296                            .dwattr $C$DW$194, DW_AT_accessibility(DW_ACCESS_public)
    2297                            .dwattr $C$DW$194, DW_AT_decl_file("C:/ti/simplelink_cc13x0_sdk_2_10_00_36/source/ti/grlib/grl
    2298                            .dwattr $C$DW$194, DW_AT_decl_line(0x99)
    2299                            .dwattr $C$DW$194, DW_AT_decl_column(0x16)
    2300                    
    2301                    $C$DW$195       .dwtag  DW_TAG_member
    2302                            .dwattr $C$DW$195, DW_AT_type(*$C$DW$T$225)
    2303                            .dwattr $C$DW$195, DW_AT_name("pfnFlush")
    2304                            .dwattr $C$DW$195, DW_AT_TI_symbol_name("pfnFlush")
    2305                            .dwattr $C$DW$195, DW_AT_data_member_location[DW_OP_plus_uconst 0x18]
    2306                            .dwattr $C$DW$195, DW_AT_accessibility(DW_ACCESS_public)
TI ARM Assembler PC v18.1.1 Wed Apr 25 09:49:07 2018

Tools Copyright (c) 1996-2017 Texas Instruments Incorporated
C:\Users\devops\AppData\Local\Temp\2\{3ABEE735-5D89-419B-B04E-A704033696CA} PAGE   43

    2307                            .dwattr $C$DW$195, DW_AT_decl_file("C:/ti/simplelink_cc13x0_sdk_2_10_00_36/source/ti/grlib/grl
    2308                            .dwattr $C$DW$195, DW_AT_decl_line(0xa0)
    2309                            .dwattr $C$DW$195, DW_AT_decl_column(0x12)
    2310                    
    2311                    $C$DW$196       .dwtag  DW_TAG_member
    2312                            .dwattr $C$DW$196, DW_AT_type(*$C$DW$T$228)
    2313                            .dwattr $C$DW$196, DW_AT_name("pfnClearDisplay")
    2314                            .dwattr $C$DW$196, DW_AT_TI_symbol_name("pfnClearDisplay")
    2315                            .dwattr $C$DW$196, DW_AT_data_member_location[DW_OP_plus_uconst 0x1c]
    2316                            .dwattr $C$DW$196, DW_AT_accessibility(DW_ACCESS_public)
    2317                            .dwattr $C$DW$196, DW_AT_decl_file("C:/ti/simplelink_cc13x0_sdk_2_10_00_36/source/ti/grlib/grl
    2318                            .dwattr $C$DW$196, DW_AT_decl_line(0xa6)
    2319                            .dwattr $C$DW$196, DW_AT_decl_column(0x12)
    2320                    
    2321                            .dwattr $C$DW$T$229, DW_AT_decl_file("C:/ti/simplelink_cc13x0_sdk_2_10_00_36/source/ti/grlib/g
    2322                            .dwattr $C$DW$T$229, DW_AT_decl_line(0x6d)
    2323                            .dwattr $C$DW$T$229, DW_AT_decl_column(0x10)
    2324                            .dwendtag $C$DW$T$229
    2325                    
    2326                    $C$DW$T$196     .dwtag  DW_TAG_typedef
    2327                            .dwattr $C$DW$T$196, DW_AT_name("Graphics_Display_Functions")
    2328                            .dwattr $C$DW$T$196, DW_AT_type(*$C$DW$T$229)
    2329                            .dwattr $C$DW$T$196, DW_AT_language(DW_LANG_C)
    2330                            .dwattr $C$DW$T$196, DW_AT_decl_file("C:/ti/simplelink_cc13x0_sdk_2_10_00_36/source/ti/grlib/g
    2331                            .dwattr $C$DW$T$196, DW_AT_decl_line(0xa9)
    2332                            .dwattr $C$DW$T$196, DW_AT_decl_column(0x01)
    2333                    
    2334                    $C$DW$T$197     .dwtag  DW_TAG_const_type
    2335                            .dwattr $C$DW$T$197, DW_AT_type(*$C$DW$T$196)
    2336                    
    2337                    $C$DW$T$198     .dwtag  DW_TAG_pointer_type
    2338                            .dwattr $C$DW$T$198, DW_AT_type(*$C$DW$T$197)
    2339                            .dwattr $C$DW$T$198, DW_AT_address_class(0x20)
    2340                    
    2341                    
    2342                    $C$DW$T$231     .dwtag  DW_TAG_structure_type
    2343                            .dwattr $C$DW$T$231, DW_AT_name("Graphics_Font")
    2344                            .dwattr $C$DW$T$231, DW_AT_byte_size(0xc8)
    2345                    $C$DW$197       .dwtag  DW_TAG_member
    2346                            .dwattr $C$DW$197, DW_AT_type(*$C$DW$T$93)
    2347                            .dwattr $C$DW$197, DW_AT_name("format")
    2348                            .dwattr $C$DW$197, DW_AT_TI_symbol_name("format")
    2349                            .dwattr $C$DW$197, DW_AT_data_member_location[DW_OP_plus_uconst 0x0]
    2350                            .dwattr $C$DW$197, DW_AT_accessibility(DW_ACCESS_public)
    2351                            .dwattr $C$DW$197, DW_AT_decl_file("C:/ti/simplelink_cc13x0_sdk_2_10_00_36/source/ti/grlib/grl
    2352                            .dwattr $C$DW$197, DW_AT_decl_line(0xc0)
    2353                            .dwattr $C$DW$197, DW_AT_decl_column(0x0d)
    2354                    
    2355                    $C$DW$198       .dwtag  DW_TAG_member
    2356                            .dwattr $C$DW$198, DW_AT_type(*$C$DW$T$93)
    2357                            .dwattr $C$DW$198, DW_AT_name("maxWidth")
    2358                            .dwattr $C$DW$198, DW_AT_TI_symbol_name("maxWidth")
    2359                            .dwattr $C$DW$198, DW_AT_data_member_location[DW_OP_plus_uconst 0x1]
    2360                            .dwattr $C$DW$198, DW_AT_accessibility(DW_ACCESS_public)
    2361                            .dwattr $C$DW$198, DW_AT_decl_file("C:/ti/simplelink_cc13x0_sdk_2_10_00_36/source/ti/grlib/grl
TI ARM Assembler PC v18.1.1 Wed Apr 25 09:49:07 2018

Tools Copyright (c) 1996-2017 Texas Instruments Incorporated
C:\Users\devops\AppData\Local\Temp\2\{3ABEE735-5D89-419B-B04E-A704033696CA} PAGE   44

    2362                            .dwattr $C$DW$198, DW_AT_decl_line(0xc1)
    2363                            .dwattr $C$DW$198, DW_AT_decl_column(0x0d)
    2364                    
    2365                    $C$DW$199       .dwtag  DW_TAG_member
    2366                            .dwattr $C$DW$199, DW_AT_type(*$C$DW$T$93)
    2367                            .dwattr $C$DW$199, DW_AT_name("height")
    2368                            .dwattr $C$DW$199, DW_AT_TI_symbol_name("height")
    2369                            .dwattr $C$DW$199, DW_AT_data_member_location[DW_OP_plus_uconst 0x2]
    2370                            .dwattr $C$DW$199, DW_AT_accessibility(DW_ACCESS_public)
    2371                            .dwattr $C$DW$199, DW_AT_decl_file("C:/ti/simplelink_cc13x0_sdk_2_10_00_36/source/ti/grlib/grl
    2372                            .dwattr $C$DW$199, DW_AT_decl_line(0xc2)
    2373                            .dwattr $C$DW$199, DW_AT_decl_column(0x0d)
    2374                    
    2375                    $C$DW$200       .dwtag  DW_TAG_member
    2376                            .dwattr $C$DW$200, DW_AT_type(*$C$DW$T$93)
    2377                            .dwattr $C$DW$200, DW_AT_name("baseline")
    2378                            .dwattr $C$DW$200, DW_AT_TI_symbol_name("baseline")
    2379                            .dwattr $C$DW$200, DW_AT_data_member_location[DW_OP_plus_uconst 0x3]
    2380                            .dwattr $C$DW$200, DW_AT_accessibility(DW_ACCESS_public)
    2381                            .dwattr $C$DW$200, DW_AT_decl_file("C:/ti/simplelink_cc13x0_sdk_2_10_00_36/source/ti/grlib/grl
    2382                            .dwattr $C$DW$200, DW_AT_decl_line(0xc3)
    2383                            .dwattr $C$DW$200, DW_AT_decl_column(0x0d)
    2384                    
    2385                    $C$DW$201       .dwtag  DW_TAG_member
    2386                            .dwattr $C$DW$201, DW_AT_type(*$C$DW$T$230)
    2387                            .dwattr $C$DW$201, DW_AT_name("offset")
    2388                            .dwattr $C$DW$201, DW_AT_TI_symbol_name("offset")
    2389                            .dwattr $C$DW$201, DW_AT_data_member_location[DW_OP_plus_uconst 0x4]
    2390                            .dwattr $C$DW$201, DW_AT_accessibility(DW_ACCESS_public)
    2391                            .dwattr $C$DW$201, DW_AT_decl_file("C:/ti/simplelink_cc13x0_sdk_2_10_00_36/source/ti/grlib/grl
    2392                            .dwattr $C$DW$201, DW_AT_decl_line(0xc4)
    2393                            .dwattr $C$DW$201, DW_AT_decl_column(0x0e)
    2394                    
    2395                    $C$DW$202       .dwtag  DW_TAG_member
    2396                            .dwattr $C$DW$202, DW_AT_type(*$C$DW$T$206)
    2397                            .dwattr $C$DW$202, DW_AT_name("data")
    2398                            .dwattr $C$DW$202, DW_AT_TI_symbol_name("data")
    2399                            .dwattr $C$DW$202, DW_AT_data_member_location[DW_OP_plus_uconst 0xc4]
    2400                            .dwattr $C$DW$202, DW_AT_accessibility(DW_ACCESS_public)
    2401                            .dwattr $C$DW$202, DW_AT_decl_file("C:/ti/simplelink_cc13x0_sdk_2_10_00_36/source/ti/grlib/grl
    2402                            .dwattr $C$DW$202, DW_AT_decl_line(0xc5)
    2403                            .dwattr $C$DW$202, DW_AT_decl_column(0x14)
    2404                    
    2405                            .dwattr $C$DW$T$231, DW_AT_decl_file("C:/ti/simplelink_cc13x0_sdk_2_10_00_36/source/ti/grlib/g
    2406                            .dwattr $C$DW$T$231, DW_AT_decl_line(0xbe)
    2407                            .dwattr $C$DW$T$231, DW_AT_decl_column(0x10)
    2408                            .dwendtag $C$DW$T$231
    2409                    
    2410                    $C$DW$T$192     .dwtag  DW_TAG_typedef
    2411                            .dwattr $C$DW$T$192, DW_AT_name("Graphics_Font")
    2412                            .dwattr $C$DW$T$192, DW_AT_type(*$C$DW$T$231)
    2413                            .dwattr $C$DW$T$192, DW_AT_language(DW_LANG_C)
    2414                            .dwattr $C$DW$T$192, DW_AT_decl_file("C:/ti/simplelink_cc13x0_sdk_2_10_00_36/source/ti/grlib/g
    2415                            .dwattr $C$DW$T$192, DW_AT_decl_line(0xc6)
    2416                            .dwattr $C$DW$T$192, DW_AT_decl_column(0x03)
TI ARM Assembler PC v18.1.1 Wed Apr 25 09:49:07 2018

Tools Copyright (c) 1996-2017 Texas Instruments Incorporated
C:\Users\devops\AppData\Local\Temp\2\{3ABEE735-5D89-419B-B04E-A704033696CA} PAGE   45

    2417                    
    2418                    $C$DW$T$193     .dwtag  DW_TAG_const_type
    2419                            .dwattr $C$DW$T$193, DW_AT_type(*$C$DW$T$192)
    2420                    
    2421                    $C$DW$T$194     .dwtag  DW_TAG_pointer_type
    2422                            .dwattr $C$DW$T$194, DW_AT_type(*$C$DW$T$193)
    2423                            .dwattr $C$DW$T$194, DW_AT_address_class(0x20)
    2424                    
    2425                    
    2426                    $C$DW$T$234     .dwtag  DW_TAG_structure_type
    2427                            .dwattr $C$DW$T$234, DW_AT_name("Graphics_FontEx")
    2428                            .dwattr $C$DW$T$234, DW_AT_byte_size(0x10)
    2429                    $C$DW$203       .dwtag  DW_TAG_member
    2430                            .dwattr $C$DW$203, DW_AT_type(*$C$DW$T$93)
    2431                            .dwattr $C$DW$203, DW_AT_name("format")
    2432                            .dwattr $C$DW$203, DW_AT_TI_symbol_name("format")
    2433                            .dwattr $C$DW$203, DW_AT_data_member_location[DW_OP_plus_uconst 0x0]
    2434                            .dwattr $C$DW$203, DW_AT_accessibility(DW_ACCESS_public)
    2435                            .dwattr $C$DW$203, DW_AT_decl_file("C:/ti/simplelink_cc13x0_sdk_2_10_00_36/source/ti/grlib/grl
    2436                            .dwattr $C$DW$203, DW_AT_decl_line(0xd6)
    2437                            .dwattr $C$DW$203, DW_AT_decl_column(0x0d)
    2438                    
    2439                    $C$DW$204       .dwtag  DW_TAG_member
    2440                            .dwattr $C$DW$204, DW_AT_type(*$C$DW$T$93)
    2441                            .dwattr $C$DW$204, DW_AT_name("maxWidth")
    2442                            .dwattr $C$DW$204, DW_AT_TI_symbol_name("maxWidth")
    2443                            .dwattr $C$DW$204, DW_AT_data_member_location[DW_OP_plus_uconst 0x1]
    2444                            .dwattr $C$DW$204, DW_AT_accessibility(DW_ACCESS_public)
    2445                            .dwattr $C$DW$204, DW_AT_decl_file("C:/ti/simplelink_cc13x0_sdk_2_10_00_36/source/ti/grlib/grl
    2446                            .dwattr $C$DW$204, DW_AT_decl_line(0xd7)
    2447                            .dwattr $C$DW$204, DW_AT_decl_column(0x0d)
    2448                    
    2449                    $C$DW$205       .dwtag  DW_TAG_member
    2450                            .dwattr $C$DW$205, DW_AT_type(*$C$DW$T$93)
    2451                            .dwattr $C$DW$205, DW_AT_name("height")
    2452                            .dwattr $C$DW$205, DW_AT_TI_symbol_name("height")
    2453                            .dwattr $C$DW$205, DW_AT_data_member_location[DW_OP_plus_uconst 0x2]
    2454                            .dwattr $C$DW$205, DW_AT_accessibility(DW_ACCESS_public)
    2455                            .dwattr $C$DW$205, DW_AT_decl_file("C:/ti/simplelink_cc13x0_sdk_2_10_00_36/source/ti/grlib/grl
    2456                            .dwattr $C$DW$205, DW_AT_decl_line(0xd8)
    2457                            .dwattr $C$DW$205, DW_AT_decl_column(0x0d)
    2458                    
    2459                    $C$DW$206       .dwtag  DW_TAG_member
    2460                            .dwattr $C$DW$206, DW_AT_type(*$C$DW$T$93)
    2461                            .dwattr $C$DW$206, DW_AT_name("baseline")
    2462                            .dwattr $C$DW$206, DW_AT_TI_symbol_name("baseline")
    2463                            .dwattr $C$DW$206, DW_AT_data_member_location[DW_OP_plus_uconst 0x3]
    2464                            .dwattr $C$DW$206, DW_AT_accessibility(DW_ACCESS_public)
    2465                            .dwattr $C$DW$206, DW_AT_decl_file("C:/ti/simplelink_cc13x0_sdk_2_10_00_36/source/ti/grlib/grl
    2466                            .dwattr $C$DW$206, DW_AT_decl_line(0xd9)
    2467                            .dwattr $C$DW$206, DW_AT_decl_column(0x0d)
    2468                    
    2469                    $C$DW$207       .dwtag  DW_TAG_member
    2470                            .dwattr $C$DW$207, DW_AT_type(*$C$DW$T$93)
    2471                            .dwattr $C$DW$207, DW_AT_name("first")
TI ARM Assembler PC v18.1.1 Wed Apr 25 09:49:07 2018

Tools Copyright (c) 1996-2017 Texas Instruments Incorporated
C:\Users\devops\AppData\Local\Temp\2\{3ABEE735-5D89-419B-B04E-A704033696CA} PAGE   46

    2472                            .dwattr $C$DW$207, DW_AT_TI_symbol_name("first")
    2473                            .dwattr $C$DW$207, DW_AT_data_member_location[DW_OP_plus_uconst 0x4]
    2474                            .dwattr $C$DW$207, DW_AT_accessibility(DW_ACCESS_public)
    2475                            .dwattr $C$DW$207, DW_AT_decl_file("C:/ti/simplelink_cc13x0_sdk_2_10_00_36/source/ti/grlib/grl
    2476                            .dwattr $C$DW$207, DW_AT_decl_line(0xda)
    2477                            .dwattr $C$DW$207, DW_AT_decl_column(0x0d)
    2478                    
    2479                    $C$DW$208       .dwtag  DW_TAG_member
    2480                            .dwattr $C$DW$208, DW_AT_type(*$C$DW$T$93)
    2481                            .dwattr $C$DW$208, DW_AT_name("last")
    2482                            .dwattr $C$DW$208, DW_AT_TI_symbol_name("last")
    2483                            .dwattr $C$DW$208, DW_AT_data_member_location[DW_OP_plus_uconst 0x5]
    2484                            .dwattr $C$DW$208, DW_AT_accessibility(DW_ACCESS_public)
    2485                            .dwattr $C$DW$208, DW_AT_decl_file("C:/ti/simplelink_cc13x0_sdk_2_10_00_36/source/ti/grlib/grl
    2486                            .dwattr $C$DW$208, DW_AT_decl_line(0xdb)
    2487                            .dwattr $C$DW$208, DW_AT_decl_column(0x0d)
    2488                    
    2489                    $C$DW$209       .dwtag  DW_TAG_member
    2490                            .dwattr $C$DW$209, DW_AT_type(*$C$DW$T$233)
    2491                            .dwattr $C$DW$209, DW_AT_name("offset")
    2492                            .dwattr $C$DW$209, DW_AT_TI_symbol_name("offset")
    2493                            .dwattr $C$DW$209, DW_AT_data_member_location[DW_OP_plus_uconst 0x8]
    2494                            .dwattr $C$DW$209, DW_AT_accessibility(DW_ACCESS_public)
    2495                            .dwattr $C$DW$209, DW_AT_decl_file("C:/ti/simplelink_cc13x0_sdk_2_10_00_36/source/ti/grlib/grl
    2496                            .dwattr $C$DW$209, DW_AT_decl_line(0xdc)
    2497                            .dwattr $C$DW$209, DW_AT_decl_column(0x15)
    2498                    
    2499                    $C$DW$210       .dwtag  DW_TAG_member
    2500                            .dwattr $C$DW$210, DW_AT_type(*$C$DW$T$206)
    2501                            .dwattr $C$DW$210, DW_AT_name("data")
    2502                            .dwattr $C$DW$210, DW_AT_TI_symbol_name("data")
    2503                            .dwattr $C$DW$210, DW_AT_data_member_location[DW_OP_plus_uconst 0xc]
    2504                            .dwattr $C$DW$210, DW_AT_accessibility(DW_ACCESS_public)
    2505                            .dwattr $C$DW$210, DW_AT_decl_file("C:/ti/simplelink_cc13x0_sdk_2_10_00_36/source/ti/grlib/grl
    2506                            .dwattr $C$DW$210, DW_AT_decl_line(0xdd)
    2507                            .dwattr $C$DW$210, DW_AT_decl_column(0x14)
    2508                    
    2509                            .dwattr $C$DW$T$234, DW_AT_decl_file("C:/ti/simplelink_cc13x0_sdk_2_10_00_36/source/ti/grlib/g
    2510                            .dwattr $C$DW$T$234, DW_AT_decl_line(0xd4)
    2511                            .dwattr $C$DW$T$234, DW_AT_decl_column(0x10)
    2512                            .dwendtag $C$DW$T$234
    2513                    
    2514                    $C$DW$T$515     .dwtag  DW_TAG_typedef
    2515                            .dwattr $C$DW$T$515, DW_AT_name("Graphics_FontEx")
    2516                            .dwattr $C$DW$T$515, DW_AT_type(*$C$DW$T$234)
    2517                            .dwattr $C$DW$T$515, DW_AT_language(DW_LANG_C)
    2518                            .dwattr $C$DW$T$515, DW_AT_decl_file("C:/ti/simplelink_cc13x0_sdk_2_10_00_36/source/ti/grlib/g
    2519                            .dwattr $C$DW$T$515, DW_AT_decl_line(0xde)
    2520                            .dwattr $C$DW$T$515, DW_AT_decl_column(0x03)
    2521                    
    2522                    
    2523                    $C$DW$T$235     .dwtag  DW_TAG_structure_type
    2524                            .dwattr $C$DW$T$235, DW_AT_name("Graphics_Image")
    2525                            .dwattr $C$DW$T$235, DW_AT_byte_size(0x10)
    2526                    $C$DW$211       .dwtag  DW_TAG_member
TI ARM Assembler PC v18.1.1 Wed Apr 25 09:49:07 2018

Tools Copyright (c) 1996-2017 Texas Instruments Incorporated
C:\Users\devops\AppData\Local\Temp\2\{3ABEE735-5D89-419B-B04E-A704033696CA} PAGE   47

    2527                            .dwattr $C$DW$211, DW_AT_type(*$C$DW$T$93)
    2528                            .dwattr $C$DW$211, DW_AT_name("bPP")
    2529                            .dwattr $C$DW$211, DW_AT_TI_symbol_name("bPP")
    2530                            .dwattr $C$DW$211, DW_AT_data_member_location[DW_OP_plus_uconst 0x0]
    2531                            .dwattr $C$DW$211, DW_AT_accessibility(DW_ACCESS_public)
    2532                            .dwattr $C$DW$211, DW_AT_decl_file("C:/ti/simplelink_cc13x0_sdk_2_10_00_36/source/ti/grlib/grl
    2533                            .dwattr $C$DW$211, DW_AT_decl_line(0x4f)
    2534                            .dwattr $C$DW$211, DW_AT_decl_column(0x0d)
    2535                    
    2536                    $C$DW$212       .dwtag  DW_TAG_member
    2537                            .dwattr $C$DW$212, DW_AT_type(*$C$DW$T$111)
    2538                            .dwattr $C$DW$212, DW_AT_name("xSize")
    2539                            .dwattr $C$DW$212, DW_AT_TI_symbol_name("xSize")
    2540                            .dwattr $C$DW$212, DW_AT_data_member_location[DW_OP_plus_uconst 0x2]
    2541                            .dwattr $C$DW$212, DW_AT_accessibility(DW_ACCESS_public)
    2542                            .dwattr $C$DW$212, DW_AT_decl_file("C:/ti/simplelink_cc13x0_sdk_2_10_00_36/source/ti/grlib/grl
    2543                            .dwattr $C$DW$212, DW_AT_decl_line(0x50)
    2544                            .dwattr $C$DW$212, DW_AT_decl_column(0x0e)
    2545                    
    2546                    $C$DW$213       .dwtag  DW_TAG_member
    2547                            .dwattr $C$DW$213, DW_AT_type(*$C$DW$T$111)
    2548                            .dwattr $C$DW$213, DW_AT_name("ySize")
    2549                            .dwattr $C$DW$213, DW_AT_TI_symbol_name("ySize")
    2550                            .dwattr $C$DW$213, DW_AT_data_member_location[DW_OP_plus_uconst 0x4]
    2551                            .dwattr $C$DW$213, DW_AT_accessibility(DW_ACCESS_public)
    2552                            .dwattr $C$DW$213, DW_AT_decl_file("C:/ti/simplelink_cc13x0_sdk_2_10_00_36/source/ti/grlib/grl
    2553                            .dwattr $C$DW$213, DW_AT_decl_line(0x51)
    2554                            .dwattr $C$DW$213, DW_AT_decl_column(0x0e)
    2555                    
    2556                    $C$DW$214       .dwtag  DW_TAG_member
    2557                            .dwattr $C$DW$214, DW_AT_type(*$C$DW$T$111)
    2558                            .dwattr $C$DW$214, DW_AT_name("numColors")
    2559                            .dwattr $C$DW$214, DW_AT_TI_symbol_name("numColors")
    2560                            .dwattr $C$DW$214, DW_AT_data_member_location[DW_OP_plus_uconst 0x6]
    2561                            .dwattr $C$DW$214, DW_AT_accessibility(DW_ACCESS_public)
    2562                            .dwattr $C$DW$214, DW_AT_decl_file("C:/ti/simplelink_cc13x0_sdk_2_10_00_36/source/ti/grlib/grl
    2563                            .dwattr $C$DW$214, DW_AT_decl_line(0x52)
    2564                            .dwattr $C$DW$214, DW_AT_decl_column(0x0e)
    2565                    
    2566                    $C$DW$215       .dwtag  DW_TAG_member
    2567                            .dwattr $C$DW$215, DW_AT_type(*$C$DW$T$208)
    2568                            .dwattr $C$DW$215, DW_AT_name("pPalette")
    2569                            .dwattr $C$DW$215, DW_AT_TI_symbol_name("pPalette")
    2570                            .dwattr $C$DW$215, DW_AT_data_member_location[DW_OP_plus_uconst 0x8]
    2571                            .dwattr $C$DW$215, DW_AT_accessibility(DW_ACCESS_public)
    2572                            .dwattr $C$DW$215, DW_AT_decl_file("C:/ti/simplelink_cc13x0_sdk_2_10_00_36/source/ti/grlib/grl
    2573                            .dwattr $C$DW$215, DW_AT_decl_line(0x53)
    2574                            .dwattr $C$DW$215, DW_AT_decl_column(0x17)
    2575                    
    2576                    $C$DW$216       .dwtag  DW_TAG_member
    2577                            .dwattr $C$DW$216, DW_AT_type(*$C$DW$T$206)
    2578                            .dwattr $C$DW$216, DW_AT_name("pPixel")
    2579                            .dwattr $C$DW$216, DW_AT_TI_symbol_name("pPixel")
    2580                            .dwattr $C$DW$216, DW_AT_data_member_location[DW_OP_plus_uconst 0xc]
    2581                            .dwattr $C$DW$216, DW_AT_accessibility(DW_ACCESS_public)
TI ARM Assembler PC v18.1.1 Wed Apr 25 09:49:07 2018

Tools Copyright (c) 1996-2017 Texas Instruments Incorporated
C:\Users\devops\AppData\Local\Temp\2\{3ABEE735-5D89-419B-B04E-A704033696CA} PAGE   48

    2582                            .dwattr $C$DW$216, DW_AT_decl_file("C:/ti/simplelink_cc13x0_sdk_2_10_00_36/source/ti/grlib/grl
    2583                            .dwattr $C$DW$216, DW_AT_decl_line(0x54)
    2584                            .dwattr $C$DW$216, DW_AT_decl_column(0x15)
    2585                    
    2586                            .dwattr $C$DW$T$235, DW_AT_decl_file("C:/ti/simplelink_cc13x0_sdk_2_10_00_36/source/ti/grlib/g
    2587                            .dwattr $C$DW$T$235, DW_AT_decl_line(0x4d)
    2588                            .dwattr $C$DW$T$235, DW_AT_decl_column(0x10)
    2589                            .dwendtag $C$DW$T$235
    2590                    
    2591                    $C$DW$T$516     .dwtag  DW_TAG_typedef
    2592                            .dwattr $C$DW$T$516, DW_AT_name("Graphics_Image")
    2593                            .dwattr $C$DW$T$516, DW_AT_type(*$C$DW$T$235)
    2594                            .dwattr $C$DW$T$516, DW_AT_language(DW_LANG_C)
    2595                            .dwattr $C$DW$T$516, DW_AT_decl_file("C:/ti/simplelink_cc13x0_sdk_2_10_00_36/source/ti/grlib/g
    2596                            .dwattr $C$DW$T$516, DW_AT_decl_line(0x55)
    2597                            .dwattr $C$DW$T$516, DW_AT_decl_column(0x03)
    2598                    
    2599                    
    2600                    $C$DW$T$236     .dwtag  DW_TAG_structure_type
    2601                            .dwattr $C$DW$T$236, DW_AT_name("Graphics_Rectangle")
    2602                            .dwattr $C$DW$T$236, DW_AT_byte_size(0x08)
    2603                    $C$DW$217       .dwtag  DW_TAG_member
    2604                            .dwattr $C$DW$217, DW_AT_type(*$C$DW$T$201)
    2605                            .dwattr $C$DW$217, DW_AT_name("xMin")
    2606                            .dwattr $C$DW$217, DW_AT_TI_symbol_name("xMin")
    2607                            .dwattr $C$DW$217, DW_AT_data_member_location[DW_OP_plus_uconst 0x0]
    2608                            .dwattr $C$DW$217, DW_AT_accessibility(DW_ACCESS_public)
    2609                            .dwattr $C$DW$217, DW_AT_decl_file("C:/ti/simplelink_cc13x0_sdk_2_10_00_36/source/ti/grlib/grl
    2610                            .dwattr $C$DW$217, DW_AT_decl_line(0x60)
    2611                            .dwattr $C$DW$217, DW_AT_decl_column(0x0d)
    2612                    
    2613                    $C$DW$218       .dwtag  DW_TAG_member
    2614                            .dwattr $C$DW$218, DW_AT_type(*$C$DW$T$201)
    2615                            .dwattr $C$DW$218, DW_AT_name("yMin")
    2616                            .dwattr $C$DW$218, DW_AT_TI_symbol_name("yMin")
    2617                            .dwattr $C$DW$218, DW_AT_data_member_location[DW_OP_plus_uconst 0x2]
    2618                            .dwattr $C$DW$218, DW_AT_accessibility(DW_ACCESS_public)
    2619                            .dwattr $C$DW$218, DW_AT_decl_file("C:/ti/simplelink_cc13x0_sdk_2_10_00_36/source/ti/grlib/grl
    2620                            .dwattr $C$DW$218, DW_AT_decl_line(0x61)
    2621                            .dwattr $C$DW$218, DW_AT_decl_column(0x0d)
    2622                    
    2623                    $C$DW$219       .dwtag  DW_TAG_member
    2624                            .dwattr $C$DW$219, DW_AT_type(*$C$DW$T$201)
    2625                            .dwattr $C$DW$219, DW_AT_name("xMax")
    2626                            .dwattr $C$DW$219, DW_AT_TI_symbol_name("xMax")
    2627                            .dwattr $C$DW$219, DW_AT_data_member_location[DW_OP_plus_uconst 0x4]
    2628                            .dwattr $C$DW$219, DW_AT_accessibility(DW_ACCESS_public)
    2629                            .dwattr $C$DW$219, DW_AT_decl_file("C:/ti/simplelink_cc13x0_sdk_2_10_00_36/source/ti/grlib/grl
    2630                            .dwattr $C$DW$219, DW_AT_decl_line(0x62)
    2631                            .dwattr $C$DW$219, DW_AT_decl_column(0x0d)
    2632                    
    2633                    $C$DW$220       .dwtag  DW_TAG_member
    2634                            .dwattr $C$DW$220, DW_AT_type(*$C$DW$T$201)
    2635                            .dwattr $C$DW$220, DW_AT_name("yMax")
    2636                            .dwattr $C$DW$220, DW_AT_TI_symbol_name("yMax")
TI ARM Assembler PC v18.1.1 Wed Apr 25 09:49:07 2018

Tools Copyright (c) 1996-2017 Texas Instruments Incorporated
C:\Users\devops\AppData\Local\Temp\2\{3ABEE735-5D89-419B-B04E-A704033696CA} PAGE   49

    2637                            .dwattr $C$DW$220, DW_AT_data_member_location[DW_OP_plus_uconst 0x6]
    2638                            .dwattr $C$DW$220, DW_AT_accessibility(DW_ACCESS_public)
    2639                            .dwattr $C$DW$220, DW_AT_decl_file("C:/ti/simplelink_cc13x0_sdk_2_10_00_36/source/ti/grlib/grl
    2640                            .dwattr $C$DW$220, DW_AT_decl_line(0x63)
    2641                            .dwattr $C$DW$220, DW_AT_decl_column(0x0d)
    2642                    
    2643                            .dwattr $C$DW$T$236, DW_AT_decl_file("C:/ti/simplelink_cc13x0_sdk_2_10_00_36/source/ti/grlib/g
    2644                            .dwattr $C$DW$T$236, DW_AT_decl_line(0x5e)
    2645                            .dwattr $C$DW$T$236, DW_AT_decl_column(0x10)
    2646                            .dwendtag $C$DW$T$236
    2647                    
    2648                    $C$DW$T$191     .dwtag  DW_TAG_typedef
    2649                            .dwattr $C$DW$T$191, DW_AT_name("Graphics_Rectangle")
    2650                            .dwattr $C$DW$T$191, DW_AT_type(*$C$DW$T$236)
    2651                            .dwattr $C$DW$T$191, DW_AT_language(DW_LANG_C)
    2652                            .dwattr $C$DW$T$191, DW_AT_decl_file("C:/ti/simplelink_cc13x0_sdk_2_10_00_36/source/ti/grlib/g
    2653                            .dwattr $C$DW$T$191, DW_AT_decl_line(0x64)
    2654                            .dwattr $C$DW$T$191, DW_AT_decl_column(0x03)
    2655                    
    2656                    $C$DW$T$215     .dwtag  DW_TAG_const_type
    2657                            .dwattr $C$DW$T$215, DW_AT_type(*$C$DW$T$191)
    2658                    
    2659                    $C$DW$T$216     .dwtag  DW_TAG_pointer_type
    2660                            .dwattr $C$DW$T$216, DW_AT_type(*$C$DW$T$215)
    2661                            .dwattr $C$DW$T$216, DW_AT_address_class(0x20)
    2662                    
    2663                    
    2664                    $C$DW$T$517     .dwtag  DW_TAG_enumeration_type
    2665                            .dwattr $C$DW$T$517, DW_AT_name("LCD_Align")
    2666                            .dwattr $C$DW$T$517, DW_AT_byte_size(0x01)
    2667                    $C$DW$221       .dwtag  DW_TAG_enumerator
    2668                            .dwattr $C$DW$221, DW_AT_name("LCD_ALIGN_LEFT")
    2669                            .dwattr $C$DW$221, DW_AT_const_value(0x00)
    2670                            .dwattr $C$DW$221, DW_AT_decl_file("C:/ti/simplelink_cc13x0_sdk_2_10_00_36/source/ti/display/l
    2671                            .dwattr $C$DW$221, DW_AT_decl_line(0x131)
    2672                            .dwattr $C$DW$221, DW_AT_decl_column(0x05)
    2673                    
    2674                    $C$DW$222       .dwtag  DW_TAG_enumerator
    2675                            .dwattr $C$DW$222, DW_AT_name("LCD_ALIGN_CENTER")
    2676                            .dwattr $C$DW$222, DW_AT_const_value(0x01)
    2677                            .dwattr $C$DW$222, DW_AT_decl_file("C:/ti/simplelink_cc13x0_sdk_2_10_00_36/source/ti/display/l
    2678                            .dwattr $C$DW$222, DW_AT_decl_line(0x132)
    2679                            .dwattr $C$DW$222, DW_AT_decl_column(0x05)
    2680                    
    2681                    $C$DW$223       .dwtag  DW_TAG_enumerator
    2682                            .dwattr $C$DW$223, DW_AT_name("LCD_ALIGN_RIGHT")
    2683                            .dwattr $C$DW$223, DW_AT_const_value(0x02)
    2684                            .dwattr $C$DW$223, DW_AT_decl_file("C:/ti/simplelink_cc13x0_sdk_2_10_00_36/source/ti/display/l
    2685                            .dwattr $C$DW$223, DW_AT_decl_line(0x133)
    2686                            .dwattr $C$DW$223, DW_AT_decl_column(0x05)
    2687                    
    2688                            .dwattr $C$DW$T$517, DW_AT_decl_file("C:/ti/simplelink_cc13x0_sdk_2_10_00_36/source/ti/display
    2689                            .dwattr $C$DW$T$517, DW_AT_decl_line(0x12f)
    2690                            .dwattr $C$DW$T$517, DW_AT_decl_column(0x0e)
    2691                            .dwendtag $C$DW$T$517
TI ARM Assembler PC v18.1.1 Wed Apr 25 09:49:07 2018

Tools Copyright (c) 1996-2017 Texas Instruments Incorporated
C:\Users\devops\AppData\Local\Temp\2\{3ABEE735-5D89-419B-B04E-A704033696CA} PAGE   50

    2692                    
    2693                    $C$DW$T$518     .dwtag  DW_TAG_typedef
    2694                            .dwattr $C$DW$T$518, DW_AT_name("LCD_Align")
    2695                            .dwattr $C$DW$T$518, DW_AT_type(*$C$DW$T$517)
    2696                            .dwattr $C$DW$T$518, DW_AT_language(DW_LANG_C)
    2697                            .dwattr $C$DW$T$518, DW_AT_decl_file("C:/ti/simplelink_cc13x0_sdk_2_10_00_36/source/ti/display
    2698                            .dwattr $C$DW$T$518, DW_AT_decl_line(0x134)
    2699                            .dwattr $C$DW$T$518, DW_AT_decl_column(0x03)
    2700                    
    2701                    
    2702                    $C$DW$T$238     .dwtag  DW_TAG_structure_type
    2703                            .dwattr $C$DW$T$238, DW_AT_name("LCD_Buffer")
    2704                            .dwattr $C$DW$T$238, DW_AT_byte_size(0x24)
    2705                    $C$DW$224       .dwtag  DW_TAG_member
    2706                            .dwattr $C$DW$224, DW_AT_type(*$C$DW$T$173)
    2707                            .dwattr $C$DW$224, DW_AT_name("pcBuffer")
    2708                            .dwattr $C$DW$224, DW_AT_TI_symbol_name("pcBuffer")
    2709                            .dwattr $C$DW$224, DW_AT_data_member_location[DW_OP_plus_uconst 0x0]
    2710                            .dwattr $C$DW$224, DW_AT_accessibility(DW_ACCESS_public)
    2711                            .dwattr $C$DW$224, DW_AT_decl_file("C:/ti/simplelink_cc13x0_sdk_2_10_00_36/source/ti/display/l
    2712                            .dwattr $C$DW$224, DW_AT_decl_line(0x19a)
    2713                            .dwattr $C$DW$224, DW_AT_decl_column(0x1a)
    2714                    
    2715                    $C$DW$225       .dwtag  DW_TAG_member
    2716                            .dwattr $C$DW$225, DW_AT_type(*$C$DW$T$11)
    2717                            .dwattr $C$DW$225, DW_AT_name("bufSize")
    2718                            .dwattr $C$DW$225, DW_AT_TI_symbol_name("bufSize")
    2719                            .dwattr $C$DW$225, DW_AT_data_member_location[DW_OP_plus_uconst 0x4]
    2720                            .dwattr $C$DW$225, DW_AT_accessibility(DW_ACCESS_public)
    2721                            .dwattr $C$DW$225, DW_AT_decl_file("C:/ti/simplelink_cc13x0_sdk_2_10_00_36/source/ti/display/l
    2722                            .dwattr $C$DW$225, DW_AT_decl_line(0x19b)
    2723                            .dwattr $C$DW$225, DW_AT_decl_column(0x19)
    2724                    
    2725                    $C$DW$226       .dwtag  DW_TAG_member
    2726                            .dwattr $C$DW$226, DW_AT_type(*$C$DW$T$237)
    2727                            .dwattr $C$DW$226, DW_AT_name("bufMutex")
    2728                            .dwattr $C$DW$226, DW_AT_TI_symbol_name("bufMutex")
    2729                            .dwattr $C$DW$226, DW_AT_data_member_location[DW_OP_plus_uconst 0x8]
    2730                            .dwattr $C$DW$226, DW_AT_accessibility(DW_ACCESS_public)
    2731                            .dwattr $C$DW$226, DW_AT_decl_file("C:/ti/simplelink_cc13x0_sdk_2_10_00_36/source/ti/display/l
    2732                            .dwattr $C$DW$226, DW_AT_decl_line(0x19c)
    2733                            .dwattr $C$DW$226, DW_AT_decl_column(0x19)
    2734                    
    2735                            .dwattr $C$DW$T$238, DW_AT_decl_file("C:/ti/simplelink_cc13x0_sdk_2_10_00_36/source/ti/display
    2736                            .dwattr $C$DW$T$238, DW_AT_decl_line(0x198)
    2737                            .dwattr $C$DW$T$238, DW_AT_decl_column(0x10)
    2738                            .dwendtag $C$DW$T$238
    2739                    
    2740                    $C$DW$T$251     .dwtag  DW_TAG_typedef
    2741                            .dwattr $C$DW$T$251, DW_AT_name("LCD_Buffer")
    2742                            .dwattr $C$DW$T$251, DW_AT_type(*$C$DW$T$238)
    2743                            .dwattr $C$DW$T$251, DW_AT_language(DW_LANG_C)
    2744                            .dwattr $C$DW$T$251, DW_AT_decl_file("C:/ti/simplelink_cc13x0_sdk_2_10_00_36/source/ti/display
    2745                            .dwattr $C$DW$T$251, DW_AT_decl_line(0x19d)
    2746                            .dwattr $C$DW$T$251, DW_AT_decl_column(0x03)
TI ARM Assembler PC v18.1.1 Wed Apr 25 09:49:07 2018

Tools Copyright (c) 1996-2017 Texas Instruments Incorporated
C:\Users\devops\AppData\Local\Temp\2\{3ABEE735-5D89-419B-B04E-A704033696CA} PAGE   51

    2747                    
    2748                    $C$DW$T$252     .dwtag  DW_TAG_pointer_type
    2749                            .dwattr $C$DW$T$252, DW_AT_type(*$C$DW$T$251)
    2750                            .dwattr $C$DW$T$252, DW_AT_address_class(0x20)
    2751                    
    2752                    
    2753                    $C$DW$T$239     .dwtag  DW_TAG_structure_type
    2754                            .dwattr $C$DW$T$239, DW_AT_name("LCD_Command")
    2755                            .dwattr $C$DW$T$239, DW_AT_byte_size(0x11)
    2756                    $C$DW$227       .dwtag  DW_TAG_member
    2757                            .dwattr $C$DW$227, DW_AT_type(*$C$DW$T$6)
    2758                            .dwattr $C$DW$227, DW_AT_name("displayStartLine")
    2759                            .dwattr $C$DW$227, DW_AT_TI_symbol_name("displayStartLine")
    2760                            .dwattr $C$DW$227, DW_AT_data_member_location[DW_OP_plus_uconst 0x0]
    2761                            .dwattr $C$DW$227, DW_AT_accessibility(DW_ACCESS_public)
    2762                            .dwattr $C$DW$227, DW_AT_decl_file("C:/ti/simplelink_cc13x0_sdk_2_10_00_36/source/ti/display/l
    2763                            .dwattr $C$DW$227, DW_AT_decl_line(0x17a)
    2764                            .dwattr $C$DW$227, DW_AT_decl_column(0x0b)
    2765                    
    2766                    $C$DW$228       .dwtag  DW_TAG_member
    2767                            .dwattr $C$DW$228, DW_AT_type(*$C$DW$T$6)
    2768                            .dwattr $C$DW$228, DW_AT_name("adcSet")
    2769                            .dwattr $C$DW$228, DW_AT_TI_symbol_name("adcSet")
    2770                            .dwattr $C$DW$228, DW_AT_data_member_location[DW_OP_plus_uconst 0x1]
    2771                            .dwattr $C$DW$228, DW_AT_accessibility(DW_ACCESS_public)
    2772                            .dwattr $C$DW$228, DW_AT_decl_file("C:/ti/simplelink_cc13x0_sdk_2_10_00_36/source/ti/display/l
    2773                            .dwattr $C$DW$228, DW_AT_decl_line(0x17b)
    2774                            .dwattr $C$DW$228, DW_AT_decl_column(0x0b)
    2775                    
    2776                    $C$DW$229       .dwtag  DW_TAG_member
    2777                            .dwattr $C$DW$229, DW_AT_type(*$C$DW$T$6)
    2778                            .dwattr $C$DW$229, DW_AT_name("outputMode")
    2779                            .dwattr $C$DW$229, DW_AT_TI_symbol_name("outputMode")
    2780                            .dwattr $C$DW$229, DW_AT_data_member_location[DW_OP_plus_uconst 0x2]
    2781                            .dwattr $C$DW$229, DW_AT_accessibility(DW_ACCESS_public)
    2782                            .dwattr $C$DW$229, DW_AT_decl_file("C:/ti/simplelink_cc13x0_sdk_2_10_00_36/source/ti/display/l
    2783                            .dwattr $C$DW$229, DW_AT_decl_line(0x17c)
    2784                            .dwattr $C$DW$229, DW_AT_decl_column(0x0b)
    2785                    
    2786                    $C$DW$230       .dwtag  DW_TAG_member
    2787                            .dwattr $C$DW$230, DW_AT_type(*$C$DW$T$6)
    2788                            .dwattr $C$DW$230, DW_AT_name("displayType")
    2789                            .dwattr $C$DW$230, DW_AT_TI_symbol_name("displayType")
    2790                            .dwattr $C$DW$230, DW_AT_data_member_location[DW_OP_plus_uconst 0x3]
    2791                            .dwattr $C$DW$230, DW_AT_accessibility(DW_ACCESS_public)
    2792                            .dwattr $C$DW$230, DW_AT_decl_file("C:/ti/simplelink_cc13x0_sdk_2_10_00_36/source/ti/display/l
    2793                            .dwattr $C$DW$230, DW_AT_decl_line(0x17d)
    2794                            .dwattr $C$DW$230, DW_AT_decl_column(0x0b)
    2795                    
    2796                    $C$DW$231       .dwtag  DW_TAG_member
    2797                            .dwattr $C$DW$231, DW_AT_type(*$C$DW$T$6)
    2798                            .dwattr $C$DW$231, DW_AT_name("lcdBias")
    2799                            .dwattr $C$DW$231, DW_AT_TI_symbol_name("lcdBias")
    2800                            .dwattr $C$DW$231, DW_AT_data_member_location[DW_OP_plus_uconst 0x4]
    2801                            .dwattr $C$DW$231, DW_AT_accessibility(DW_ACCESS_public)
TI ARM Assembler PC v18.1.1 Wed Apr 25 09:49:07 2018

Tools Copyright (c) 1996-2017 Texas Instruments Incorporated
C:\Users\devops\AppData\Local\Temp\2\{3ABEE735-5D89-419B-B04E-A704033696CA} PAGE   52

    2802                            .dwattr $C$DW$231, DW_AT_decl_file("C:/ti/simplelink_cc13x0_sdk_2_10_00_36/source/ti/display/l
    2803                            .dwattr $C$DW$231, DW_AT_decl_line(0x17e)
    2804                            .dwattr $C$DW$231, DW_AT_decl_column(0x0b)
    2805                    
    2806                    $C$DW$232       .dwtag  DW_TAG_member
    2807                            .dwattr $C$DW$232, DW_AT_type(*$C$DW$T$6)
    2808                            .dwattr $C$DW$232, DW_AT_name("powerControl")
    2809                            .dwattr $C$DW$232, DW_AT_TI_symbol_name("powerControl")
    2810                            .dwattr $C$DW$232, DW_AT_data_member_location[DW_OP_plus_uconst 0x5]
    2811                            .dwattr $C$DW$232, DW_AT_accessibility(DW_ACCESS_public)
    2812                            .dwattr $C$DW$232, DW_AT_decl_file("C:/ti/simplelink_cc13x0_sdk_2_10_00_36/source/ti/display/l
    2813                            .dwattr $C$DW$232, DW_AT_decl_line(0x17f)
    2814                            .dwattr $C$DW$232, DW_AT_decl_column(0x0b)
    2815                    
    2816                    $C$DW$233       .dwtag  DW_TAG_member
    2817                            .dwattr $C$DW$233, DW_AT_type(*$C$DW$T$6)
    2818                            .dwattr $C$DW$233, DW_AT_name("boosterRadio0")
    2819                            .dwattr $C$DW$233, DW_AT_TI_symbol_name("boosterRadio0")
    2820                            .dwattr $C$DW$233, DW_AT_data_member_location[DW_OP_plus_uconst 0x6]
    2821                            .dwattr $C$DW$233, DW_AT_accessibility(DW_ACCESS_public)
    2822                            .dwattr $C$DW$233, DW_AT_decl_file("C:/ti/simplelink_cc13x0_sdk_2_10_00_36/source/ti/display/l
    2823                            .dwattr $C$DW$233, DW_AT_decl_line(0x180)
    2824                            .dwattr $C$DW$233, DW_AT_decl_column(0x0b)
    2825                    
    2826                    $C$DW$234       .dwtag  DW_TAG_member
    2827                            .dwattr $C$DW$234, DW_AT_type(*$C$DW$T$6)
    2828                            .dwattr $C$DW$234, DW_AT_name("boosterRadio1")
    2829                            .dwattr $C$DW$234, DW_AT_TI_symbol_name("boosterRadio1")
    2830                            .dwattr $C$DW$234, DW_AT_data_member_location[DW_OP_plus_uconst 0x7]
    2831                            .dwattr $C$DW$234, DW_AT_accessibility(DW_ACCESS_public)
    2832                            .dwattr $C$DW$234, DW_AT_decl_file("C:/ti/simplelink_cc13x0_sdk_2_10_00_36/source/ti/display/l
    2833                            .dwattr $C$DW$234, DW_AT_decl_line(0x181)
    2834                            .dwattr $C$DW$234, DW_AT_decl_column(0x0b)
    2835                    
    2836                    $C$DW$235       .dwtag  DW_TAG_member
    2837                            .dwattr $C$DW$235, DW_AT_type(*$C$DW$T$6)
    2838                            .dwattr $C$DW$235, DW_AT_name("contrastSet0")
    2839                            .dwattr $C$DW$235, DW_AT_TI_symbol_name("contrastSet0")
    2840                            .dwattr $C$DW$235, DW_AT_data_member_location[DW_OP_plus_uconst 0x8]
    2841                            .dwattr $C$DW$235, DW_AT_accessibility(DW_ACCESS_public)
    2842                            .dwattr $C$DW$235, DW_AT_decl_file("C:/ti/simplelink_cc13x0_sdk_2_10_00_36/source/ti/display/l
    2843                            .dwattr $C$DW$235, DW_AT_decl_line(0x182)
    2844                            .dwattr $C$DW$235, DW_AT_decl_column(0x0b)
    2845                    
    2846                    $C$DW$236       .dwtag  DW_TAG_member
    2847                            .dwattr $C$DW$236, DW_AT_type(*$C$DW$T$6)
    2848                            .dwattr $C$DW$236, DW_AT_name("contrastSet1")
    2849                            .dwattr $C$DW$236, DW_AT_TI_symbol_name("contrastSet1")
    2850                            .dwattr $C$DW$236, DW_AT_data_member_location[DW_OP_plus_uconst 0x9]
    2851                            .dwattr $C$DW$236, DW_AT_accessibility(DW_ACCESS_public)
    2852                            .dwattr $C$DW$236, DW_AT_decl_file("C:/ti/simplelink_cc13x0_sdk_2_10_00_36/source/ti/display/l
    2853                            .dwattr $C$DW$236, DW_AT_decl_line(0x183)
    2854                            .dwattr $C$DW$236, DW_AT_decl_column(0x0b)
    2855                    
    2856                    $C$DW$237       .dwtag  DW_TAG_member
TI ARM Assembler PC v18.1.1 Wed Apr 25 09:49:07 2018

Tools Copyright (c) 1996-2017 Texas Instruments Incorporated
C:\Users\devops\AppData\Local\Temp\2\{3ABEE735-5D89-419B-B04E-A704033696CA} PAGE   53

    2857                            .dwattr $C$DW$237, DW_AT_type(*$C$DW$T$6)
    2858                            .dwattr $C$DW$237, DW_AT_name("contrastSet2")
    2859                            .dwattr $C$DW$237, DW_AT_TI_symbol_name("contrastSet2")
    2860                            .dwattr $C$DW$237, DW_AT_data_member_location[DW_OP_plus_uconst 0xa]
    2861                            .dwattr $C$DW$237, DW_AT_accessibility(DW_ACCESS_public)
    2862                            .dwattr $C$DW$237, DW_AT_decl_file("C:/ti/simplelink_cc13x0_sdk_2_10_00_36/source/ti/display/l
    2863                            .dwattr $C$DW$237, DW_AT_decl_line(0x184)
    2864                            .dwattr $C$DW$237, DW_AT_decl_column(0x0b)
    2865                    
    2866                    $C$DW$238       .dwtag  DW_TAG_member
    2867                            .dwattr $C$DW$238, DW_AT_type(*$C$DW$T$6)
    2868                            .dwattr $C$DW$238, DW_AT_name("staticIndicator0")
    2869                            .dwattr $C$DW$238, DW_AT_TI_symbol_name("staticIndicator0")
    2870                            .dwattr $C$DW$238, DW_AT_data_member_location[DW_OP_plus_uconst 0xb]
    2871                            .dwattr $C$DW$238, DW_AT_accessibility(DW_ACCESS_public)
    2872                            .dwattr $C$DW$238, DW_AT_decl_file("C:/ti/simplelink_cc13x0_sdk_2_10_00_36/source/ti/display/l
    2873                            .dwattr $C$DW$238, DW_AT_decl_line(0x185)
    2874                            .dwattr $C$DW$238, DW_AT_decl_column(0x0b)
    2875                    
    2876                    $C$DW$239       .dwtag  DW_TAG_member
    2877                            .dwattr $C$DW$239, DW_AT_type(*$C$DW$T$6)
    2878                            .dwattr $C$DW$239, DW_AT_name("staticIndicator1")
    2879                            .dwattr $C$DW$239, DW_AT_TI_symbol_name("staticIndicator1")
    2880                            .dwattr $C$DW$239, DW_AT_data_member_location[DW_OP_plus_uconst 0xc]
    2881                            .dwattr $C$DW$239, DW_AT_accessibility(DW_ACCESS_public)
    2882                            .dwattr $C$DW$239, DW_AT_decl_file("C:/ti/simplelink_cc13x0_sdk_2_10_00_36/source/ti/display/l
    2883                            .dwattr $C$DW$239, DW_AT_decl_line(0x186)
    2884                            .dwattr $C$DW$239, DW_AT_decl_column(0x0b)
    2885                    
    2886                    $C$DW$240       .dwtag  DW_TAG_member
    2887                            .dwattr $C$DW$240, DW_AT_type(*$C$DW$T$6)
    2888                            .dwattr $C$DW$240, DW_AT_name("displayEn")
    2889                            .dwattr $C$DW$240, DW_AT_TI_symbol_name("displayEn")
    2890                            .dwattr $C$DW$240, DW_AT_data_member_location[DW_OP_plus_uconst 0xd]
    2891                            .dwattr $C$DW$240, DW_AT_accessibility(DW_ACCESS_public)
    2892                            .dwattr $C$DW$240, DW_AT_decl_file("C:/ti/simplelink_cc13x0_sdk_2_10_00_36/source/ti/display/l
    2893                            .dwattr $C$DW$240, DW_AT_decl_line(0x187)
    2894                            .dwattr $C$DW$240, DW_AT_decl_column(0x0b)
    2895                    
    2896                    $C$DW$241       .dwtag  DW_TAG_member
    2897                            .dwattr $C$DW$241, DW_AT_type(*$C$DW$T$6)
    2898                            .dwattr $C$DW$241, DW_AT_name("setPage")
    2899                            .dwattr $C$DW$241, DW_AT_TI_symbol_name("setPage")
    2900                            .dwattr $C$DW$241, DW_AT_data_member_location[DW_OP_plus_uconst 0xe]
    2901                            .dwattr $C$DW$241, DW_AT_accessibility(DW_ACCESS_public)
    2902                            .dwattr $C$DW$241, DW_AT_decl_file("C:/ti/simplelink_cc13x0_sdk_2_10_00_36/source/ti/display/l
    2903                            .dwattr $C$DW$241, DW_AT_decl_line(0x188)
    2904                            .dwattr $C$DW$241, DW_AT_decl_column(0x0b)
    2905                    
    2906                    $C$DW$242       .dwtag  DW_TAG_member
    2907                            .dwattr $C$DW$242, DW_AT_type(*$C$DW$T$6)
    2908                            .dwattr $C$DW$242, DW_AT_name("columnHi")
    2909                            .dwattr $C$DW$242, DW_AT_TI_symbol_name("columnHi")
    2910                            .dwattr $C$DW$242, DW_AT_data_member_location[DW_OP_plus_uconst 0xf]
    2911                            .dwattr $C$DW$242, DW_AT_accessibility(DW_ACCESS_public)
TI ARM Assembler PC v18.1.1 Wed Apr 25 09:49:07 2018

Tools Copyright (c) 1996-2017 Texas Instruments Incorporated
C:\Users\devops\AppData\Local\Temp\2\{3ABEE735-5D89-419B-B04E-A704033696CA} PAGE   54

    2912                            .dwattr $C$DW$242, DW_AT_decl_file("C:/ti/simplelink_cc13x0_sdk_2_10_00_36/source/ti/display/l
    2913                            .dwattr $C$DW$242, DW_AT_decl_line(0x189)
    2914                            .dwattr $C$DW$242, DW_AT_decl_column(0x0b)
    2915                    
    2916                    $C$DW$243       .dwtag  DW_TAG_member
    2917                            .dwattr $C$DW$243, DW_AT_type(*$C$DW$T$6)
    2918                            .dwattr $C$DW$243, DW_AT_name("columnLo")
    2919                            .dwattr $C$DW$243, DW_AT_TI_symbol_name("columnLo")
    2920                            .dwattr $C$DW$243, DW_AT_data_member_location[DW_OP_plus_uconst 0x10]
    2921                            .dwattr $C$DW$243, DW_AT_accessibility(DW_ACCESS_public)
    2922                            .dwattr $C$DW$243, DW_AT_decl_file("C:/ti/simplelink_cc13x0_sdk_2_10_00_36/source/ti/display/l
    2923                            .dwattr $C$DW$243, DW_AT_decl_line(0x18a)
    2924                            .dwattr $C$DW$243, DW_AT_decl_column(0x0b)
    2925                    
    2926                            .dwattr $C$DW$T$239, DW_AT_decl_file("C:/ti/simplelink_cc13x0_sdk_2_10_00_36/source/ti/display
    2927                            .dwattr $C$DW$T$239, DW_AT_decl_line(0x178)
    2928                            .dwattr $C$DW$T$239, DW_AT_decl_column(0x10)
    2929                            .dwendtag $C$DW$T$239
    2930                    
    2931                    $C$DW$T$246     .dwtag  DW_TAG_typedef
    2932                            .dwattr $C$DW$T$246, DW_AT_name("LCD_Command")
    2933                            .dwattr $C$DW$T$246, DW_AT_type(*$C$DW$T$239)
    2934                            .dwattr $C$DW$T$246, DW_AT_language(DW_LANG_C)
    2935                            .dwattr $C$DW$T$246, DW_AT_decl_file("C:/ti/simplelink_cc13x0_sdk_2_10_00_36/source/ti/display
    2936                            .dwattr $C$DW$T$246, DW_AT_decl_line(0x18b)
    2937                            .dwattr $C$DW$T$246, DW_AT_decl_column(0x03)
    2938                    
    2939                    $C$DW$T$247     .dwtag  DW_TAG_const_type
    2940                            .dwattr $C$DW$T$247, DW_AT_type(*$C$DW$T$246)
    2941                    
    2942                    $C$DW$T$248     .dwtag  DW_TAG_pointer_type
    2943                            .dwattr $C$DW$T$248, DW_AT_type(*$C$DW$T$247)
    2944                            .dwattr $C$DW$T$248, DW_AT_address_class(0x20)
    2945                    
    2946                    
    2947                    $C$DW$T$245     .dwtag  DW_TAG_structure_type
    2948                            .dwattr $C$DW$T$245, DW_AT_name("LCD_Config")
    2949                            .dwattr $C$DW$T$245, DW_AT_byte_size(0x08)
    2950                    $C$DW$244       .dwtag  DW_TAG_member
    2951                            .dwattr $C$DW$244, DW_AT_type(*$C$DW$T$241)
    2952                            .dwattr $C$DW$244, DW_AT_name("object")
    2953                            .dwattr $C$DW$244, DW_AT_TI_symbol_name("object")
    2954                            .dwattr $C$DW$244, DW_AT_data_member_location[DW_OP_plus_uconst 0x0]
    2955                            .dwattr $C$DW$244, DW_AT_accessibility(DW_ACCESS_public)
    2956                            .dwattr $C$DW$244, DW_AT_decl_file("C:/ti/simplelink_cc13x0_sdk_2_10_00_36/source/ti/display/l
    2957                            .dwattr $C$DW$244, DW_AT_decl_line(0x1d6)
    2958                            .dwattr $C$DW$244, DW_AT_decl_column(0x1a)
    2959                    
    2960                    $C$DW$245       .dwtag  DW_TAG_member
    2961                            .dwattr $C$DW$245, DW_AT_type(*$C$DW$T$244)
    2962                            .dwattr $C$DW$245, DW_AT_name("hwAttrs")
    2963                            .dwattr $C$DW$245, DW_AT_TI_symbol_name("hwAttrs")
    2964                            .dwattr $C$DW$245, DW_AT_data_member_location[DW_OP_plus_uconst 0x4]
    2965                            .dwattr $C$DW$245, DW_AT_accessibility(DW_ACCESS_public)
    2966                            .dwattr $C$DW$245, DW_AT_decl_file("C:/ti/simplelink_cc13x0_sdk_2_10_00_36/source/ti/display/l
TI ARM Assembler PC v18.1.1 Wed Apr 25 09:49:07 2018

Tools Copyright (c) 1996-2017 Texas Instruments Incorporated
C:\Users\devops\AppData\Local\Temp\2\{3ABEE735-5D89-419B-B04E-A704033696CA} PAGE   55

    2967                            .dwattr $C$DW$245, DW_AT_decl_line(0x1d8)
    2968                            .dwattr $C$DW$245, DW_AT_decl_column(0x1a)
    2969                    
    2970                            .dwattr $C$DW$T$245, DW_AT_decl_file("C:/ti/simplelink_cc13x0_sdk_2_10_00_36/source/ti/display
    2971                            .dwattr $C$DW$T$245, DW_AT_decl_line(0x1d3)
    2972                            .dwattr $C$DW$T$245, DW_AT_decl_column(0x10)
    2973                            .dwendtag $C$DW$T$245
    2974                    
    2975                    $C$DW$T$519     .dwtag  DW_TAG_typedef
    2976                            .dwattr $C$DW$T$519, DW_AT_name("LCD_Config")
    2977                            .dwattr $C$DW$T$519, DW_AT_type(*$C$DW$T$245)
    2978                            .dwattr $C$DW$T$519, DW_AT_language(DW_LANG_C)
    2979                            .dwattr $C$DW$T$519, DW_AT_decl_file("C:/ti/simplelink_cc13x0_sdk_2_10_00_36/source/ti/display
    2980                            .dwattr $C$DW$T$519, DW_AT_decl_line(0x1d9)
    2981                            .dwattr $C$DW$T$519, DW_AT_decl_column(0x03)
    2982                    
    2983                    $C$DW$T$520     .dwtag  DW_TAG_pointer_type
    2984                            .dwattr $C$DW$T$520, DW_AT_type(*$C$DW$T$245)
    2985                            .dwattr $C$DW$T$520, DW_AT_address_class(0x20)
    2986                    
    2987                    $C$DW$T$521     .dwtag  DW_TAG_typedef
    2988                            .dwattr $C$DW$T$521, DW_AT_name("LCD_Handle")
    2989                            .dwattr $C$DW$T$521, DW_AT_type(*$C$DW$T$520)
    2990                            .dwattr $C$DW$T$521, DW_AT_language(DW_LANG_C)
    2991                            .dwattr $C$DW$T$521, DW_AT_decl_file("C:/ti/simplelink_cc13x0_sdk_2_10_00_36/source/ti/display
    2992                            .dwattr $C$DW$T$521, DW_AT_decl_line(0x126)
    2993                            .dwattr $C$DW$T$521, DW_AT_decl_column(0x1e)
    2994                    
    2995                    
    2996                    $C$DW$T$249     .dwtag  DW_TAG_structure_type
    2997                            .dwattr $C$DW$T$249, DW_AT_name("LCD_HWAttrs")
    2998                            .dwattr $C$DW$T$249, DW_AT_byte_size(0x08)
    2999                    $C$DW$246       .dwtag  DW_TAG_member
    3000                            .dwattr $C$DW$246, DW_AT_type(*$C$DW$T$248)
    3001                            .dwattr $C$DW$246, DW_AT_name("LCD_initCmd")
    3002                            .dwattr $C$DW$246, DW_AT_TI_symbol_name("LCD_initCmd")
    3003                            .dwattr $C$DW$246, DW_AT_data_member_location[DW_OP_plus_uconst 0x0]
    3004                            .dwattr $C$DW$246, DW_AT_accessibility(DW_ACCESS_public)
    3005                            .dwattr $C$DW$246, DW_AT_decl_file("C:/ti/simplelink_cc13x0_sdk_2_10_00_36/source/ti/display/l
    3006                            .dwattr $C$DW$246, DW_AT_decl_line(0x1c1)
    3007                            .dwattr $C$DW$246, DW_AT_decl_column(0x18)
