TI ARM Assembler PC v18.1.1 Wed Apr 25 09:49:01 2018

Tools Copyright (c) 1996-2017 Texas Instruments Incorporated
C:\Users\devops\AppData\Local\Temp\2\{EAE5C80A-95F4-4830-8AD5-3F5837318C3E} PAGE    1

       1                    ;******************************************************************************
       2                    ;* TI ARM C/C++ Codegen                                        PC v18.1.1.LTS *
       3                    ;* Date/Time created: Wed Apr 25 09:49:01 2018                                *
       4                    ;******************************************************************************
       5                            .compiler_opts --abi=eabi --arm_vmrs_si_workaround=off --code_state=16 --diag_wrap=off --embed
       6 00000000                   .thumb
       7                    
       8                    $C$DW$CU        .dwtag  DW_TAG_compile_unit
       9                            .dwattr $C$DW$CU, DW_AT_name("../Application/ICall/icall_cc2650.c")
      10                            .dwattr $C$DW$CU, DW_AT_producer("TI TI ARM C/C++ Codegen PC v18.1.1.LTS Copyright (c) 1996-20
      11                            .dwattr $C$DW$CU, DW_AT_TI_version(0x01)
      12                            .dwattr $C$DW$CU, DW_AT_comp_dir("C:\ti\workspace1\sensor_cc1350lp\sensor_cc1350lp")
      13                    
      14                    $C$DW$1 .dwtag  DW_TAG_subprogram
      15                            .dwattr $C$DW$1, DW_AT_name("halAssertHandler")
      16                            .dwattr $C$DW$1, DW_AT_TI_symbol_name("halAssertHandler")
      17                            .dwattr $C$DW$1, DW_AT_declaration
      18                            .dwattr $C$DW$1, DW_AT_external
      19                            .dwattr $C$DW$1, DW_AT_decl_file("C:/ti/simplelink_cc13x0_sdk_2_10_00_36/source/ti/ti154stack/
      20                            .dwattr $C$DW$1, DW_AT_decl_line(0xdd)
      21                            .dwattr $C$DW$1, DW_AT_decl_column(0x0d)
      22                            .dwendtag $C$DW$1
      23                    
      24                    
      25                    $C$DW$2 .dwtag  DW_TAG_subprogram
      26                            .dwattr $C$DW$2, DW_AT_name("Power_setConstraint")
      27                            .dwattr $C$DW$2, DW_AT_TI_symbol_name("Power_setConstraint")
      28                            .dwattr $C$DW$2, DW_AT_type(*$C$DW$T$86)
      29                            .dwattr $C$DW$2, DW_AT_declaration
      30                            .dwattr $C$DW$2, DW_AT_external
      31                            .dwattr $C$DW$2, DW_AT_decl_file("C:/ti/simplelink_cc13x0_sdk_2_10_00_36/source/ti/drivers/Pow
      32                            .dwattr $C$DW$2, DW_AT_decl_line(0x1b6)
      33                            .dwattr $C$DW$2, DW_AT_decl_column(0x0e)
      34                    $C$DW$3 .dwtag  DW_TAG_formal_parameter
      35                            .dwattr $C$DW$3, DW_AT_type(*$C$DW$T$84)
      36                    
      37                            .dwendtag $C$DW$2
      38                    
      39                    
      40                    $C$DW$4 .dwtag  DW_TAG_subprogram
      41                            .dwattr $C$DW$4, DW_AT_name("Power_setDependency")
      42                            .dwattr $C$DW$4, DW_AT_TI_symbol_name("Power_setDependency")
      43                            .dwattr $C$DW$4, DW_AT_type(*$C$DW$T$86)
      44                            .dwattr $C$DW$4, DW_AT_declaration
      45                            .dwattr $C$DW$4, DW_AT_external
      46                            .dwattr $C$DW$4, DW_AT_decl_file("C:/ti/simplelink_cc13x0_sdk_2_10_00_36/source/ti/drivers/Pow
      47                            .dwattr $C$DW$4, DW_AT_decl_line(0x1da)
      48                            .dwattr $C$DW$4, DW_AT_decl_column(0x0e)
      49                    $C$DW$5 .dwtag  DW_TAG_formal_parameter
      50                            .dwattr $C$DW$5, DW_AT_type(*$C$DW$T$84)
      51                    
      52                            .dwendtag $C$DW$4
      53                    
      54                    
      55                    $C$DW$6 .dwtag  DW_TAG_subprogram
TI ARM Assembler PC v18.1.1 Wed Apr 25 09:49:01 2018

Tools Copyright (c) 1996-2017 Texas Instruments Incorporated
C:\Users\devops\AppData\Local\Temp\2\{EAE5C80A-95F4-4830-8AD5-3F5837318C3E} PAGE    2

      56                            .dwattr $C$DW$6, DW_AT_name("Power_releaseConstraint")
      57                            .dwattr $C$DW$6, DW_AT_TI_symbol_name("Power_releaseConstraint")
      58                            .dwattr $C$DW$6, DW_AT_type(*$C$DW$T$86)
      59                            .dwattr $C$DW$6, DW_AT_declaration
      60                            .dwattr $C$DW$6, DW_AT_external
      61                            .dwattr $C$DW$6, DW_AT_decl_file("C:/ti/simplelink_cc13x0_sdk_2_10_00_36/source/ti/drivers/Pow
      62                            .dwattr $C$DW$6, DW_AT_decl_line(0x181)
      63                            .dwattr $C$DW$6, DW_AT_decl_column(0x0e)
      64                    $C$DW$7 .dwtag  DW_TAG_formal_parameter
      65                            .dwattr $C$DW$7, DW_AT_type(*$C$DW$T$84)
      66                    
      67                            .dwendtag $C$DW$6
      68                    
      69                    
      70                    $C$DW$8 .dwtag  DW_TAG_subprogram
      71                            .dwattr $C$DW$8, DW_AT_name("Power_releaseDependency")
      72                            .dwattr $C$DW$8, DW_AT_TI_symbol_name("Power_releaseDependency")
      73                            .dwattr $C$DW$8, DW_AT_type(*$C$DW$T$86)
      74                            .dwattr $C$DW$8, DW_AT_declaration
      75                            .dwattr $C$DW$8, DW_AT_external
      76                            .dwattr $C$DW$8, DW_AT_decl_file("C:/ti/simplelink_cc13x0_sdk_2_10_00_36/source/ti/drivers/Pow
      77                            .dwattr $C$DW$8, DW_AT_decl_line(0x19a)
      78                            .dwattr $C$DW$8, DW_AT_decl_column(0x0e)
      79                    $C$DW$9 .dwtag  DW_TAG_formal_parameter
      80                            .dwattr $C$DW$9, DW_AT_type(*$C$DW$T$84)
      81                    
      82                            .dwendtag $C$DW$8
      83                    
      84                    
      85                    $C$DW$10        .dwtag  DW_TAG_subprogram
      86                            .dwattr $C$DW$10, DW_AT_name("ICall_enterCSImpl")
      87                            .dwattr $C$DW$10, DW_AT_TI_symbol_name("ICall_enterCSImpl")
      88                            .dwattr $C$DW$10, DW_AT_type(*$C$DW$T$141)
      89                            .dwattr $C$DW$10, DW_AT_declaration
      90                            .dwattr $C$DW$10, DW_AT_external
      91                            .dwattr $C$DW$10, DW_AT_decl_file("C:/ti/simplelink_cc13x0_sdk_2_10_00_36/source/ti/ti154stack
      92                            .dwattr $C$DW$10, DW_AT_decl_line(0x3c)
      93                            .dwattr $C$DW$10, DW_AT_decl_column(0x16)
      94                            .dwendtag $C$DW$10
      95                    
      96                    
      97                    $C$DW$11        .dwtag  DW_TAG_subprogram
      98                            .dwattr $C$DW$11, DW_AT_name("ICall_leaveCSImpl")
      99                            .dwattr $C$DW$11, DW_AT_TI_symbol_name("ICall_leaveCSImpl")
     100                            .dwattr $C$DW$11, DW_AT_declaration
     101                            .dwattr $C$DW$11, DW_AT_external
     102                            .dwattr $C$DW$11, DW_AT_decl_file("C:/ti/simplelink_cc13x0_sdk_2_10_00_36/source/ti/ti154stack
     103                            .dwattr $C$DW$11, DW_AT_decl_line(0x3d)
     104                            .dwattr $C$DW$11, DW_AT_decl_column(0x0d)
     105                    $C$DW$12        .dwtag  DW_TAG_formal_parameter
     106                            .dwattr $C$DW$12, DW_AT_type(*$C$DW$T$141)
     107                    
     108                            .dwendtag $C$DW$11
     109                    
     110 00000000                   .sect   ".const:events$1"
TI ARM Assembler PC v18.1.1 Wed Apr 25 09:49:01 2018

Tools Copyright (c) 1996-2017 Texas Instruments Incorporated
C:\Users\devops\AppData\Local\Temp\2\{EAE5C80A-95F4-4830-8AD5-3F5837318C3E} PAGE    3

     111                            .clink
     112                            .align  4
     113                            .elfsym events$1,SYM_SIZE(4)
     114 00000000           events$1:
     115 00000000 0000000F          .bits   15,32                   ; events$1[0] @ 0
     116                    
     117                    
     118                    $C$DW$13        .dwtag  DW_TAG_subprogram
     119                            .dwattr $C$DW$13, DW_AT_name("ICall_mallocImpl")
     120                            .dwattr $C$DW$13, DW_AT_TI_symbol_name("ICall_mallocImpl")
     121                            .dwattr $C$DW$13, DW_AT_type(*$C$DW$T$3)
     122                            .dwattr $C$DW$13, DW_AT_declaration
     123                            .dwattr $C$DW$13, DW_AT_external
     124                            .dwattr $C$DW$13, DW_AT_decl_file("C:/ti/simplelink_cc13x0_sdk_2_10_00_36/source/ti/ti154stack
     125                            .dwattr $C$DW$13, DW_AT_decl_line(0x3e)
     126                            .dwattr $C$DW$13, DW_AT_decl_column(0x0e)
     127                    $C$DW$14        .dwtag  DW_TAG_formal_parameter
     128                            .dwattr $C$DW$14, DW_AT_type(*$C$DW$T$84)
     129                    
     130                            .dwendtag $C$DW$13
     131                    
     132                    
     133                    $C$DW$15        .dwtag  DW_TAG_subprogram
     134                            .dwattr $C$DW$15, DW_AT_name("ICall_freeImpl")
     135                            .dwattr $C$DW$15, DW_AT_TI_symbol_name("ICall_freeImpl")
     136                            .dwattr $C$DW$15, DW_AT_declaration
     137                            .dwattr $C$DW$15, DW_AT_external
     138                            .dwattr $C$DW$15, DW_AT_decl_file("C:/ti/simplelink_cc13x0_sdk_2_10_00_36/source/ti/ti154stack
     139                            .dwattr $C$DW$15, DW_AT_decl_line(0x3f)
     140                            .dwattr $C$DW$15, DW_AT_decl_column(0x0d)
     141                    $C$DW$16        .dwtag  DW_TAG_formal_parameter
     142                            .dwattr $C$DW$16, DW_AT_type(*$C$DW$T$3)
     143                    
     144                            .dwendtag $C$DW$15
     145                    
     146                    
     147                    $C$DW$17        .dwtag  DW_TAG_subprogram
     148                            .dwattr $C$DW$17, DW_AT_name("Power_registerNotify")
     149                            .dwattr $C$DW$17, DW_AT_TI_symbol_name("Power_registerNotify")
     150                            .dwattr $C$DW$17, DW_AT_type(*$C$DW$T$86)
     151                            .dwattr $C$DW$17, DW_AT_declaration
     152                            .dwattr $C$DW$17, DW_AT_external
     153                            .dwattr $C$DW$17, DW_AT_decl_file("C:/ti/simplelink_cc13x0_sdk_2_10_00_36/source/ti/drivers/Po
     154                            .dwattr $C$DW$17, DW_AT_decl_line(0x159)
     155                            .dwattr $C$DW$17, DW_AT_decl_column(0x0e)
     156                    $C$DW$18        .dwtag  DW_TAG_formal_parameter
     157                            .dwattr $C$DW$18, DW_AT_type(*$C$DW$T$188)
     158                    
     159                    $C$DW$19        .dwtag  DW_TAG_formal_parameter
     160                            .dwattr $C$DW$19, DW_AT_type(*$C$DW$T$84)
     161                    
     162                    $C$DW$20        .dwtag  DW_TAG_formal_parameter
     163                            .dwattr $C$DW$20, DW_AT_type(*$C$DW$T$89)
     164                    
     165                    $C$DW$21        .dwtag  DW_TAG_formal_parameter
TI ARM Assembler PC v18.1.1 Wed Apr 25 09:49:01 2018

Tools Copyright (c) 1996-2017 Texas Instruments Incorporated
C:\Users\devops\AppData\Local\Temp\2\{EAE5C80A-95F4-4830-8AD5-3F5837318C3E} PAGE    4

     166                            .dwattr $C$DW$21, DW_AT_type(*$C$DW$T$49)
     167                    
     168                            .dwendtag $C$DW$17
     169                    
     170                    
     171                    $C$DW$22        .dwtag  DW_TAG_subprogram
     172                            .dwattr $C$DW$22, DW_AT_name("PowerCC26XX_isStableXOSC_HF")
     173                            .dwattr $C$DW$22, DW_AT_TI_symbol_name("PowerCC26XX_isStableXOSC_HF")
     174                            .dwattr $C$DW$22, DW_AT_type(*$C$DW$T$47)
     175                            .dwattr $C$DW$22, DW_AT_declaration
     176                            .dwattr $C$DW$22, DW_AT_external
     177                            .dwattr $C$DW$22, DW_AT_decl_file("C:/ti/simplelink_cc13x0_sdk_2_10_00_36/source/ti/drivers/po
     178                            .dwattr $C$DW$22, DW_AT_decl_line(0x24c)
     179                            .dwattr $C$DW$22, DW_AT_decl_column(0x06)
     180                            .dwendtag $C$DW$22
     181                    
     182                    
     183                    $C$DW$23        .dwtag  DW_TAG_subprogram
     184                            .dwattr $C$DW$23, DW_AT_name("PowerCC26XX_switchXOSC_HF")
     185                            .dwattr $C$DW$23, DW_AT_TI_symbol_name("PowerCC26XX_switchXOSC_HF")
     186                            .dwattr $C$DW$23, DW_AT_declaration
     187                            .dwattr $C$DW$23, DW_AT_external
     188                            .dwattr $C$DW$23, DW_AT_decl_file("C:/ti/simplelink_cc13x0_sdk_2_10_00_36/source/ti/drivers/po
     189                            .dwattr $C$DW$23, DW_AT_decl_line(0x25c)
     190                            .dwattr $C$DW$23, DW_AT_decl_column(0x06)
     191                            .dwendtag $C$DW$23
     192                    
     193                    
     194                    $C$DW$24        .dwtag  DW_TAG_subprogram
     195                            .dwattr $C$DW$24, DW_AT_name("Power_getTransitionState")
     196                            .dwattr $C$DW$24, DW_AT_TI_symbol_name("Power_getTransitionState")
     197                            .dwattr $C$DW$24, DW_AT_type(*$C$DW$T$84)
     198                            .dwattr $C$DW$24, DW_AT_declaration
     199                            .dwattr $C$DW$24, DW_AT_external
     200                            .dwattr $C$DW$24, DW_AT_decl_file("C:/ti/simplelink_cc13x0_sdk_2_10_00_36/source/ti/drivers/Po
     201                            .dwattr $C$DW$24, DW_AT_decl_line(0x103)
     202                            .dwattr $C$DW$24, DW_AT_decl_column(0x0f)
     203                            .dwendtag $C$DW$24
     204                    
     205                    
     206                    $C$DW$25        .dwtag  DW_TAG_subprogram
     207                            .dwattr $C$DW$25, DW_AT_name("PowerCC26XX_getXoscStartupTime")
     208                            .dwattr $C$DW$25, DW_AT_TI_symbol_name("PowerCC26XX_getXoscStartupTime")
     209                            .dwattr $C$DW$25, DW_AT_type(*$C$DW$T$45)
     210                            .dwattr $C$DW$25, DW_AT_declaration
     211                            .dwattr $C$DW$25, DW_AT_external
     212                            .dwattr $C$DW$25, DW_AT_decl_file("C:/ti/simplelink_cc13x0_sdk_2_10_00_36/source/ti/drivers/po
     213                            .dwattr $C$DW$25, DW_AT_decl_line(0x220)
     214                            .dwattr $C$DW$25, DW_AT_decl_column(0x0a)
     215                    $C$DW$26        .dwtag  DW_TAG_formal_parameter
     216                            .dwattr $C$DW$26, DW_AT_type(*$C$DW$T$45)
     217                    
     218                            .dwendtag $C$DW$25
     219                    
     220 00000000                   .sect   ".data:$O1$$", RW
TI ARM Assembler PC v18.1.1 Wed Apr 25 09:49:01 2018

Tools Copyright (c) 1996-2017 Texas Instruments Incorporated
C:\Users\devops\AppData\Local\Temp\2\{EAE5C80A-95F4-4830-8AD5-3F5837318C3E} PAGE    5

     221                            .clink
     222                            .align  4
     223                            .elfsym ||$O1$$||,SYM_SIZE(8)
     224 00000000           ||$O1$$||:
     225 00000000 00000000          .bits   0,8                     ; $O1$$.ICallPlatform_pwrActivityCount @ 0
     226 00000000 00000000          .bits   0,24
     227 00000004 00000006          .bits   6,32                    ; $O1$$.ICallPlatform_pwrCfgACAction @ 32
     228                    
     229                    
     230                    ;*********************************************************************
     231                    ;* GROUPED GLOBALS FOR $O1$$                                         *
     232                    ;*********************************************************************
     233          00000000! ICallPlatform_pwrActivityCount: .set    ||$O1$$||+0
     234                    $C$DW$27        .dwtag  DW_TAG_variable
     235                            .dwattr $C$DW$27, DW_AT_name("ICallPlatform_pwrActivityCount")
     236                            .dwattr $C$DW$27, DW_AT_TI_symbol_name("ICallPlatform_pwrActivityCount")
     237                            .dwattr $C$DW$27, DW_AT_type(*$C$DW$T$36)
     238                            .dwattr $C$DW$27, DW_AT_location[DW_OP_addr ICallPlatform_pwrActivityCount]
     239                            .dwattr $C$DW$27, DW_AT_decl_file("../Application/ICall/icall_cc2650.c")
     240                            .dwattr $C$DW$27, DW_AT_decl_line(0x51)
     241                            .dwattr $C$DW$27, DW_AT_decl_column(0x16)
     242                    
     243          00000004! ICallPlatform_pwrCfgACAction:   .set    ||$O1$$||+4
     244                    $C$DW$28        .dwtag  DW_TAG_variable
     245                            .dwattr $C$DW$28, DW_AT_name("ICallPlatform_pwrCfgACAction")
     246                            .dwattr $C$DW$28, DW_AT_TI_symbol_name("ICallPlatform_pwrCfgACAction")
     247                            .dwattr $C$DW$28, DW_AT_type(*$C$DW$T$320)
     248                            .dwattr $C$DW$28, DW_AT_location[DW_OP_addr ICallPlatform_pwrCfgACAction]
     249                            .dwattr $C$DW$28, DW_AT_decl_file("../Application/ICall/icall_cc2650.c")
     250                            .dwattr $C$DW$28, DW_AT_decl_line(0x57)
     251                            .dwattr $C$DW$28, DW_AT_decl_column(0x22)
     252                    
     253                    ;       C:\ti\ccsv8\tools\compiler\ti-cgt-arm_18.1.1.LTS\bin\armopt.exe C:/ti/workspace1/sensor_cc1350
     254 00000000                   .sect   ".text:ICallPlatform_pwrDispenseImpl"
     255                            .clink
     256                            .thumbfunc ICallPlatform_pwrDispenseImpl
     257 00000000                   .thumb
     258                    
     259                    $C$DW$29        .dwtag  DW_TAG_subprogram
     260                            .dwattr $C$DW$29, DW_AT_name("ICallPlatform_pwrDispenseImpl")
     261                            .dwattr $C$DW$29, DW_AT_low_pc(ICallPlatform_pwrDispenseImpl)
     262                            .dwattr $C$DW$29, DW_AT_high_pc(0x00)
     263                            .dwattr $C$DW$29, DW_AT_TI_symbol_name("ICallPlatform_pwrDispenseImpl")
     264                            .dwattr $C$DW$29, DW_AT_TI_begin_file("../Application/ICall/icall_cc2650.c")
     265                            .dwattr $C$DW$29, DW_AT_TI_begin_line(0x9c)
     266                            .dwattr $C$DW$29, DW_AT_TI_begin_column(0x0d)
     267                            .dwattr $C$DW$29, DW_AT_decl_file("../Application/ICall/icall_cc2650.c")
     268                            .dwattr $C$DW$29, DW_AT_decl_line(0x9c)
     269                            .dwattr $C$DW$29, DW_AT_decl_column(0x0d)
     270                            .dwattr $C$DW$29, DW_AT_TI_max_frame_size(0x10)
     271                            .dwpsn  file "../Application/ICall/icall_cc2650.c",line 157,column 1,is_stmt,address ICallPlat
     272                    
     273                            .dwfde $C$DW$CIE, ICallPlatform_pwrDispenseImpl
     274                    $C$DW$30        .dwtag  DW_TAG_formal_parameter
     275                            .dwattr $C$DW$30, DW_AT_name("bitmap")
TI ARM Assembler PC v18.1.1 Wed Apr 25 09:49:01 2018

Tools Copyright (c) 1996-2017 Texas Instruments Incorporated
C:\Users\devops\AppData\Local\Temp\2\{EAE5C80A-95F4-4830-8AD5-3F5837318C3E} PAGE    6

     276                            .dwattr $C$DW$30, DW_AT_TI_symbol_name("bitmap")
     277                            .dwattr $C$DW$30, DW_AT_type(*$C$DW$T$120)
     278                            .dwattr $C$DW$30, DW_AT_location[DW_OP_reg0]
     279                    
     280                    
     281                    ;*****************************************************************************
     282                    ;* FUNCTION NAME: ICallPlatform_pwrDispenseImpl                              *
     283                    ;*                                                                           *
     284                    ;*   Regs Modified     : A1,A2,A3,A4,V1,V2,V9,SP,LR,SR                       *
     285                    ;*   Regs Used         : A1,A2,A3,A4,V1,V2,V9,SP,LR,SR                       *
     286                    ;*   Local Frame Size  : 0 Args + 0 Auto + 12 Save = 12 byte                 *
     287                    ;*****************************************************************************
     288                    ICallPlatform_pwrDispenseImpl:
     289                    ;* --------------------------------------------------------------------------*
     290                    ;* V1    assigned to bitmap
     291                    $C$DW$31        .dwtag  DW_TAG_variable
     292                            .dwattr $C$DW$31, DW_AT_name("bitmap")
     293                            .dwattr $C$DW$31, DW_AT_TI_symbol_name("bitmap")
     294                            .dwattr $C$DW$31, DW_AT_type(*$C$DW$T$120)
     295                            .dwattr $C$DW$31, DW_AT_location[DW_OP_reg4]
     296                    
     297                    ;* A1    assigned to pos
     298                    $C$DW$32        .dwtag  DW_TAG_variable
     299                            .dwattr $C$DW$32, DW_AT_name("pos")
     300                            .dwattr $C$DW$32, DW_AT_TI_symbol_name("pos")
     301                            .dwattr $C$DW$32, DW_AT_type(*$C$DW$T$10)
     302                            .dwattr $C$DW$32, DW_AT_location[DW_OP_reg0]
     303                    
     304                            .dwcfi  cfa_offset, 0
     305 00000000 B538              PUSH      {A4, V1, V2, LR}      ; [DPU_V7M3_PIPE]  ; [ORIG 16-BIT INS]
     306                            .dwcfi  cfa_offset, 16
     307                            .dwcfi  save_reg_to_mem, 14, -4
     308                            .dwcfi  save_reg_to_mem, 5, -8
     309                            .dwcfi  save_reg_to_mem, 4, -12
     310                            .dwcfi  save_reg_to_mem, 3, -16
     311 00000002 4604              MOV       V1, A1                ; [DPU_V7M3_PIPE] |157|  ; [ORIG 16-BIT INS]
     312                            .dwpsn  file "../Application/ICall/icall_cc2650.c",line 168,column 5,is_stmt,isa 1
     313 00000004 2501              MOVS      V2, #1                ; [DPU_V7M3_PIPE] |168|  ; [ORIG 16-BIT INS]
     314 00000006 E00D              B         ||$C$L3||             ; [DPU_V7M3_PIPE]  ; [ORIG 16-BIT INS]
     315                            ; BRANCH OCCURS {||$C$L3||}      ; [] 
     316                    ;* --------------------------------------------------------------------------*
     317 00000008           ||$C$L1||:    
     318                            .dwpsn  file "../Application/ICall/icall_cc2650.c",line 167,column 5,is_stmt,isa 1
     319 00000008 001FF1C0          RSB       A1, A1, #31           ; [DPU_V7M3_PIPE] |167|  ; [KEEP 32-BIT INS]
     320                            .dwpsn  file "../Application/ICall/icall_cc2650.c",line 168,column 5,is_stmt,isa 1
     321 0000000c F100FA05          LSL       A2, V2, A1            ; [DPU_V7M3_PIPE] |168|  ; [KEEP 32-BIT INS]
     322                            .dwpsn  file "../Application/ICall/icall_cc2650.c",line 169,column 5,is_stmt,isa 1
     323 00000010 2805              CMP       A1, #5                ; [DPU_V7M3_PIPE] |169|  ; [ORIG 16-BIT INS]
     324                            .dwpsn  file "../Application/ICall/icall_cc2650.c",line 168,column 5,is_stmt,isa 1
     325 00000012 0404EA81          EOR       V1, A2, V1            ; [DPU_V7M3_PIPE] |168|  ; [KEEP 32-BIT INS]
     326                            .dwpsn  file "../Application/ICall/icall_cc2650.c",line 169,column 5,is_stmt,isa 1
     327 00000016 DB03              BLT       ||$C$L2||             ; [DPU_V7M3_PIPE] |169|  ; [ORIG 16-BIT INS]
     328                            ; BRANCHCC OCCURS {||$C$L2||}    ; [] |169| 
     329                    ;* --------------------------------------------------------------------------*
     330                            .dwpsn  file "../Application/ICall/icall_cc2650.c",line 175,column 7,is_stmt,isa 1
TI ARM Assembler PC v18.1.1 Wed Apr 25 09:49:01 2018

Tools Copyright (c) 1996-2017 Texas Instruments Incorporated
C:\Users\devops\AppData\Local\Temp\2\{EAE5C80A-95F4-4830-8AD5-3F5837318C3E} PAGE    7

     331 00000018 1F40              SUBS      A1, A1, #5            ; [DPU_V7M3_PIPE] |175|  ; [ORIG 16-BIT INS]
     332                    $C$DW$33        .dwtag  DW_TAG_TI_branch
     333                            .dwattr $C$DW$33, DW_AT_low_pc(0x00)
     334                            .dwattr $C$DW$33, DW_AT_name("Power_releaseDependency")
     335                            .dwattr $C$DW$33, DW_AT_TI_call
     336                    
     337 0000001a FFFEF7FF!         BL        Power_releaseDependency ; [DPU_V7M3_PIPE] |175|  ; [KEEP 32-BIT INS]
     338                            ; CALL OCCURS {Power_releaseDependency }  ; [] |175| 
     339                            .dwpsn  file "../Application/ICall/icall_cc2650.c",line 163,column 13,is_stmt,isa 1
     340 0000001e E001              B         ||$C$L3||             ; [DPU_V7M3_PIPE] |163|  ; [ORIG 16-BIT INS]
     341                            ; BRANCH OCCURS {||$C$L3||}      ; [] |163| 
     342                    ;* --------------------------------------------------------------------------*
     343 00000020           ||$C$L2||:    
     344                            .dwpsn  file "../Application/ICall/icall_cc2650.c",line 171,column 7,is_stmt,isa 1
     345                    $C$DW$34        .dwtag  DW_TAG_TI_branch
     346                            .dwattr $C$DW$34, DW_AT_low_pc(0x00)
     347                            .dwattr $C$DW$34, DW_AT_name("Power_releaseConstraint")
     348                            .dwattr $C$DW$34, DW_AT_TI_call
     349                    
     350 00000020 FFFEF7FF!         BL        Power_releaseConstraint ; [DPU_V7M3_PIPE] |171|  ; [KEEP 32-BIT INS]
     351                            ; CALL OCCURS {Power_releaseConstraint }  ; [] |171| 
     352                    ;* --------------------------------------------------------------------------*
     353                    ;*   BEGIN LOOP ||$C$L3||
     354                    ;* --------------------------------------------------------------------------*
     355 00000024           ||$C$L3||:    
     356                            .dwpsn  file "../Application/ICall/icall_cc2650.c",line 163,column 13,is_stmt,isa 1
     357 00000024 F084FAB4          CLZ       A1,V1                 ; [DPU_V7M3_PIPE] |163|  ; [KEEP 32-BIT INS]
     358 00000028 2820              CMP       A1, #32               ; [DPU_V7M3_PIPE] |163|  ; [ORIG 16-BIT INS]
     359 0000002a D1ED              BNE       ||$C$L1||             ; [DPU_V7M3_PIPE] |163|  ; [ORIG 16-BIT INS]
     360                            ; BRANCHCC OCCURS {||$C$L1||}    ; [] |163| 
     361                    ;* --------------------------------------------------------------------------*
     362                    $C$DW$35        .dwtag  DW_TAG_TI_branch
     363                            .dwattr $C$DW$35, DW_AT_low_pc(0x00)
     364                            .dwattr $C$DW$35, DW_AT_TI_return
     365                    
     366 0000002c BD38              POP       {A4, V1, V2, PC}      ; [DPU_V7M3_PIPE]  ; [ORIG 16-BIT INS]
     367                            .dwcfi  cfa_offset, 0
     368                            .dwcfi  restore_reg, 5
     369                            .dwcfi  restore_reg, 4
     370                            .dwcfi  restore_reg, 3
     371                            ; BRANCH OCCURS                  ; [] 
     372                            .dwattr $C$DW$29, DW_AT_TI_end_file("../Application/ICall/icall_cc2650.c")
     373                            .dwattr $C$DW$29, DW_AT_TI_end_line(0xb2)
     374                            .dwattr $C$DW$29, DW_AT_TI_end_column(0x01)
     375                            .dwendentry
     376                            .dwendtag $C$DW$29
     377                    
     378 00000000                   .sect   ".text:ICallPlatform_pwrRequireImpl"
     379                            .clink
     380                            .thumbfunc ICallPlatform_pwrRequireImpl
     381 00000000                   .thumb
     382                    
     383                    $C$DW$36        .dwtag  DW_TAG_subprogram
     384                            .dwattr $C$DW$36, DW_AT_name("ICallPlatform_pwrRequireImpl")
     385                            .dwattr $C$DW$36, DW_AT_low_pc(ICallPlatform_pwrRequireImpl)
TI ARM Assembler PC v18.1.1 Wed Apr 25 09:49:01 2018

Tools Copyright (c) 1996-2017 Texas Instruments Incorporated
C:\Users\devops\AppData\Local\Temp\2\{EAE5C80A-95F4-4830-8AD5-3F5837318C3E} PAGE    8

     386                            .dwattr $C$DW$36, DW_AT_high_pc(0x00)
     387                            .dwattr $C$DW$36, DW_AT_TI_symbol_name("ICallPlatform_pwrRequireImpl")
     388                            .dwattr $C$DW$36, DW_AT_TI_begin_file("../Application/ICall/icall_cc2650.c")
     389                            .dwattr $C$DW$36, DW_AT_TI_begin_line(0x7e)
     390                            .dwattr $C$DW$36, DW_AT_TI_begin_column(0x0d)
     391                            .dwattr $C$DW$36, DW_AT_decl_file("../Application/ICall/icall_cc2650.c")
     392                            .dwattr $C$DW$36, DW_AT_decl_line(0x7e)
     393                            .dwattr $C$DW$36, DW_AT_decl_column(0x0d)
     394                            .dwattr $C$DW$36, DW_AT_TI_max_frame_size(0x10)
     395                            .dwpsn  file "../Application/ICall/icall_cc2650.c",line 127,column 1,is_stmt,address ICallPlat
     396                    
     397                            .dwfde $C$DW$CIE, ICallPlatform_pwrRequireImpl
     398                    $C$DW$37        .dwtag  DW_TAG_formal_parameter
     399                            .dwattr $C$DW$37, DW_AT_name("bitmap")
     400                            .dwattr $C$DW$37, DW_AT_TI_symbol_name("bitmap")
     401                            .dwattr $C$DW$37, DW_AT_type(*$C$DW$T$120)
     402                            .dwattr $C$DW$37, DW_AT_location[DW_OP_reg0]
     403                    
     404                    
     405                    ;*****************************************************************************
     406                    ;* FUNCTION NAME: ICallPlatform_pwrRequireImpl                               *
     407                    ;*                                                                           *
     408                    ;*   Regs Modified     : A1,A2,A3,A4,V1,V2,V9,SP,LR,SR                       *
     409                    ;*   Regs Used         : A1,A2,A3,A4,V1,V2,V9,SP,LR,SR                       *
     410                    ;*   Local Frame Size  : 0 Args + 0 Auto + 12 Save = 12 byte                 *
     411                    ;*****************************************************************************
     412                    ICallPlatform_pwrRequireImpl:
     413                    ;* --------------------------------------------------------------------------*
     414                    ;* V1    assigned to bitmap
     415                    $C$DW$38        .dwtag  DW_TAG_variable
     416                            .dwattr $C$DW$38, DW_AT_name("bitmap")
     417                            .dwattr $C$DW$38, DW_AT_TI_symbol_name("bitmap")
     418                            .dwattr $C$DW$38, DW_AT_type(*$C$DW$T$120)
     419                            .dwattr $C$DW$38, DW_AT_location[DW_OP_reg4]
     420                    
     421                    ;* A1    assigned to pos
     422                    $C$DW$39        .dwtag  DW_TAG_variable
     423                            .dwattr $C$DW$39, DW_AT_name("pos")
     424                            .dwattr $C$DW$39, DW_AT_TI_symbol_name("pos")
     425                            .dwattr $C$DW$39, DW_AT_type(*$C$DW$T$10)
     426                            .dwattr $C$DW$39, DW_AT_location[DW_OP_reg0]
     427                    
     428                            .dwcfi  cfa_offset, 0
     429 00000000 B538              PUSH      {A4, V1, V2, LR}      ; [DPU_V7M3_PIPE]  ; [ORIG 16-BIT INS]
     430                            .dwcfi  cfa_offset, 16
     431                            .dwcfi  save_reg_to_mem, 14, -4
     432                            .dwcfi  save_reg_to_mem, 5, -8
     433                            .dwcfi  save_reg_to_mem, 4, -12
     434                            .dwcfi  save_reg_to_mem, 3, -16
     435 00000002 4604              MOV       V1, A1                ; [DPU_V7M3_PIPE] |127|  ; [ORIG 16-BIT INS]
     436                            .dwpsn  file "../Application/ICall/icall_cc2650.c",line 138,column 5,is_stmt,isa 1
     437 00000004 2501              MOVS      V2, #1                ; [DPU_V7M3_PIPE] |138|  ; [ORIG 16-BIT INS]
     438 00000006 E00D              B         ||$C$L6||             ; [DPU_V7M3_PIPE]  ; [ORIG 16-BIT INS]
     439                            ; BRANCH OCCURS {||$C$L6||}      ; [] 
     440                    ;* --------------------------------------------------------------------------*
TI ARM Assembler PC v18.1.1 Wed Apr 25 09:49:01 2018

Tools Copyright (c) 1996-2017 Texas Instruments Incorporated
C:\Users\devops\AppData\Local\Temp\2\{EAE5C80A-95F4-4830-8AD5-3F5837318C3E} PAGE    9

     441 00000008           ||$C$L4||:    
     442                            .dwpsn  file "../Application/ICall/icall_cc2650.c",line 137,column 5,is_stmt,isa 1
     443 00000008 001FF1C0          RSB       A1, A1, #31           ; [DPU_V7M3_PIPE] |137|  ; [KEEP 32-BIT INS]
     444                            .dwpsn  file "../Application/ICall/icall_cc2650.c",line 138,column 5,is_stmt,isa 1
     445 0000000c F100FA05          LSL       A2, V2, A1            ; [DPU_V7M3_PIPE] |138|  ; [KEEP 32-BIT INS]
     446                            .dwpsn  file "../Application/ICall/icall_cc2650.c",line 139,column 5,is_stmt,isa 1
     447 00000010 2805              CMP       A1, #5                ; [DPU_V7M3_PIPE] |139|  ; [ORIG 16-BIT INS]
     448                            .dwpsn  file "../Application/ICall/icall_cc2650.c",line 138,column 5,is_stmt,isa 1
     449 00000012 0404EA81          EOR       V1, A2, V1            ; [DPU_V7M3_PIPE] |138|  ; [KEEP 32-BIT INS]
     450                            .dwpsn  file "../Application/ICall/icall_cc2650.c",line 139,column 5,is_stmt,isa 1
     451 00000016 DB03              BLT       ||$C$L5||             ; [DPU_V7M3_PIPE] |139|  ; [ORIG 16-BIT INS]
     452                            ; BRANCHCC OCCURS {||$C$L5||}    ; [] |139| 
     453                    ;* --------------------------------------------------------------------------*
     454                            .dwpsn  file "../Application/ICall/icall_cc2650.c",line 145,column 7,is_stmt,isa 1
     455 00000018 1F40              SUBS      A1, A1, #5            ; [DPU_V7M3_PIPE] |145|  ; [ORIG 16-BIT INS]
     456                    $C$DW$40        .dwtag  DW_TAG_TI_branch
     457                            .dwattr $C$DW$40, DW_AT_low_pc(0x00)
     458                            .dwattr $C$DW$40, DW_AT_name("Power_setDependency")
     459                            .dwattr $C$DW$40, DW_AT_TI_call
     460                    
     461 0000001a FFFEF7FF!         BL        Power_setDependency   ; [DPU_V7M3_PIPE] |145|  ; [KEEP 32-BIT INS]
     462                            ; CALL OCCURS {Power_setDependency }  ; [] |145| 
     463                            .dwpsn  file "../Application/ICall/icall_cc2650.c",line 133,column 13,is_stmt,isa 1
     464 0000001e E001              B         ||$C$L6||             ; [DPU_V7M3_PIPE] |133|  ; [ORIG 16-BIT INS]
     465                            ; BRANCH OCCURS {||$C$L6||}      ; [] |133| 
     466                    ;* --------------------------------------------------------------------------*
     467 00000020           ||$C$L5||:    
     468                            .dwpsn  file "../Application/ICall/icall_cc2650.c",line 141,column 7,is_stmt,isa 1
     469                    $C$DW$41        .dwtag  DW_TAG_TI_branch
     470                            .dwattr $C$DW$41, DW_AT_low_pc(0x00)
     471                            .dwattr $C$DW$41, DW_AT_name("Power_setConstraint")
     472                            .dwattr $C$DW$41, DW_AT_TI_call
     473                    
     474 00000020 FFFEF7FF!         BL        Power_setConstraint   ; [DPU_V7M3_PIPE] |141|  ; [KEEP 32-BIT INS]
     475                            ; CALL OCCURS {Power_setConstraint }  ; [] |141| 
     476                    ;* --------------------------------------------------------------------------*
     477                    ;*   BEGIN LOOP ||$C$L6||
     478                    ;* --------------------------------------------------------------------------*
     479 00000024           ||$C$L6||:    
     480                            .dwpsn  file "../Application/ICall/icall_cc2650.c",line 133,column 13,is_stmt,isa 1
     481 00000024 F084FAB4          CLZ       A1,V1                 ; [DPU_V7M3_PIPE] |133|  ; [KEEP 32-BIT INS]
     482 00000028 2820              CMP       A1, #32               ; [DPU_V7M3_PIPE] |133|  ; [ORIG 16-BIT INS]
     483 0000002a D1ED              BNE       ||$C$L4||             ; [DPU_V7M3_PIPE] |133|  ; [ORIG 16-BIT INS]
     484                            ; BRANCHCC OCCURS {||$C$L4||}    ; [] |133| 
     485                    ;* --------------------------------------------------------------------------*
     486                    $C$DW$42        .dwtag  DW_TAG_TI_branch
     487                            .dwattr $C$DW$42, DW_AT_low_pc(0x00)
     488                            .dwattr $C$DW$42, DW_AT_TI_return
     489                    
     490 0000002c BD38              POP       {A4, V1, V2, PC}      ; [DPU_V7M3_PIPE]  ; [ORIG 16-BIT INS]
     491                            .dwcfi  cfa_offset, 0
     492                            .dwcfi  restore_reg, 5
     493                            .dwcfi  restore_reg, 4
     494                            .dwcfi  restore_reg, 3
     495                            ; BRANCH OCCURS                  ; [] 
TI ARM Assembler PC v18.1.1 Wed Apr 25 09:49:01 2018

Tools Copyright (c) 1996-2017 Texas Instruments Incorporated
C:\Users\devops\AppData\Local\Temp\2\{EAE5C80A-95F4-4830-8AD5-3F5837318C3E} PAGE   10

     496                            .dwattr $C$DW$36, DW_AT_TI_end_file("../Application/ICall/icall_cc2650.c")
     497                            .dwattr $C$DW$36, DW_AT_TI_end_line(0x94)
     498                            .dwattr $C$DW$36, DW_AT_TI_end_column(0x01)
     499                            .dwendentry
     500                            .dwendtag $C$DW$36
     501                    
     502 00000000                   .sect   ".text:ICallPlatform_pwrUpdActivityCounter"
     503                            .clink
     504                            .thumbfunc ICallPlatform_pwrUpdActivityCounter
     505 00000000                   .thumb
     506                            .global ICallPlatform_pwrUpdActivityCounter
     507                    
     508                    $C$DW$43        .dwtag  DW_TAG_subprogram
     509                            .dwattr $C$DW$43, DW_AT_name("ICallPlatform_pwrUpdActivityCounter")
     510                            .dwattr $C$DW$43, DW_AT_low_pc(ICallPlatform_pwrUpdActivityCounter)
     511                            .dwattr $C$DW$43, DW_AT_high_pc(0x00)
     512                            .dwattr $C$DW$43, DW_AT_TI_symbol_name("ICallPlatform_pwrUpdActivityCounter")
     513                            .dwattr $C$DW$43, DW_AT_external
     514                            .dwattr $C$DW$43, DW_AT_type(*$C$DW$T$99)
     515                            .dwattr $C$DW$43, DW_AT_TI_begin_file("../Application/ICall/icall_cc2650.c")
     516                            .dwattr $C$DW$43, DW_AT_TI_begin_line(0xb6)
     517                            .dwattr $C$DW$43, DW_AT_TI_begin_column(0x01)
     518                            .dwattr $C$DW$43, DW_AT_decl_file("../Application/ICall/icall_cc2650.c")
     519                            .dwattr $C$DW$43, DW_AT_decl_line(0xb6)
     520                            .dwattr $C$DW$43, DW_AT_decl_column(0x01)
     521                            .dwattr $C$DW$43, DW_AT_TI_max_frame_size(0x10)
     522                            .dwpsn  file "../Application/ICall/icall_cc2650.c",line 183,column 1,is_stmt,address ICallPlat
     523                    
     524                            .dwfde $C$DW$CIE, ICallPlatform_pwrUpdActivityCounter
     525                    $C$DW$44        .dwtag  DW_TAG_formal_parameter
     526                            .dwattr $C$DW$44, DW_AT_name("args")
     527                            .dwattr $C$DW$44, DW_AT_TI_symbol_name("args")
     528                            .dwattr $C$DW$44, DW_AT_type(*$C$DW$T$245)
     529                            .dwattr $C$DW$44, DW_AT_location[DW_OP_reg0]
     530                    
     531                    
     532                    ;*****************************************************************************
     533                    ;* FUNCTION NAME: ICallPlatform_pwrUpdActivityCounter                        *
     534                    ;*                                                                           *
     535                    ;*   Regs Modified     : A1,A2,A3,A4,V1,V2,V9,SP,LR,SR                       *
     536                    ;*   Regs Used         : A1,A2,A3,A4,V1,V2,V9,SP,LR,SR                       *
     537                    ;*   Local Frame Size  : 0 Args + 0 Auto + 12 Save = 12 byte                 *
     538                    ;*****************************************************************************
     539                    ICallPlatform_pwrUpdActivityCounter:
     540                    ;* --------------------------------------------------------------------------*
     541                    ;* V1    assigned to $O$K14
     542                    ;* V1    assigned to $O$K14
     543                    ;* A1    assigned to $O$v1
     544                    ;* A2    assigned to $O$v1
     545                    ;* V2    assigned to args
     546                    $C$DW$45        .dwtag  DW_TAG_variable
     547                            .dwattr $C$DW$45, DW_AT_name("args")
     548                            .dwattr $C$DW$45, DW_AT_TI_symbol_name("args")
     549                            .dwattr $C$DW$45, DW_AT_type(*$C$DW$T$398)
     550                            .dwattr $C$DW$45, DW_AT_location[DW_OP_reg5]
TI ARM Assembler PC v18.1.1 Wed Apr 25 09:49:01 2018

Tools Copyright (c) 1996-2017 Texas Instruments Incorporated
C:\Users\devops\AppData\Local\Temp\2\{EAE5C80A-95F4-4830-8AD5-3F5837318C3E} PAGE   11

     551                    
     552                    ;* V2    assigned to state
     553                    $C$DW$46        .dwtag  DW_TAG_variable
     554                            .dwattr $C$DW$46, DW_AT_name("state")
     555                            .dwattr $C$DW$46, DW_AT_TI_symbol_name("state")
     556                            .dwattr $C$DW$46, DW_AT_type(*$C$DW$T$141)
     557                            .dwattr $C$DW$46, DW_AT_location[DW_OP_reg5]
     558                    
     559                    ;* A1    assigned to state
     560                    $C$DW$47        .dwtag  DW_TAG_variable
     561                            .dwattr $C$DW$47, DW_AT_name("state")
     562                            .dwattr $C$DW$47, DW_AT_TI_symbol_name("state")
     563                            .dwattr $C$DW$47, DW_AT_type(*$C$DW$T$141)
     564                            .dwattr $C$DW$47, DW_AT_location[DW_OP_reg0]
     565                    
     566                            .dwcfi  cfa_offset, 0
     567 00000000 B538              PUSH      {A4, V1, V2, LR}      ; [DPU_V7M3_PIPE]  ; [ORIG 16-BIT INS]
     568                            .dwcfi  cfa_offset, 16
     569                            .dwcfi  save_reg_to_mem, 14, -4
     570                            .dwcfi  save_reg_to_mem, 5, -8
     571                            .dwcfi  save_reg_to_mem, 4, -12
     572                            .dwcfi  save_reg_to_mem, 3, -16
     573 00000002 4605              MOV       V2, A1                ; [DPU_V7M3_PIPE] |183|  ; [ORIG 16-BIT INS]
     574                            .dwpsn  file "../Application/ICall/icall_cc2650.c",line 184,column 3,is_stmt,isa 1
     575 00000004 2001              MOVS      A1, #1                ; [DPU_V7M3_PIPE] |184|  ; [ORIG 16-BIT INS]
     576                            .dwpsn  file "../Application/ICall/icall_cc2650.c",line 189,column 5,is_stmt,isa 1
     577 00000006 4C1A              LDR       V1, $C$CON1           ; [DPU_V7M3_PIPE] |189|  ; [ORIG 16-BIT INS]
     578                            .dwpsn  file "../Application/ICall/icall_cc2650.c",line 184,column 3,is_stmt,isa 1
     579 00000008 7168              STRB      A1, [V2, #5]          ; [DPU_V7M3_PIPE] |184|  ; [ORIG 16-BIT INS]
     580                            .dwpsn  file "../Application/ICall/icall_cc2650.c",line 185,column 3,is_stmt,isa 1
     581 0000000a 7928              LDRB      A1, [V2, #4]          ; [DPU_V7M3_PIPE] |185|  ; [ORIG 16-BIT INS]
     582 0000000c B9B0              CBNZ      A1, ||$C$L8||         ; []  ; [ORIG 16-BIT INS]
     583                            ; BRANCHCC OCCURS {||$C$L8||}    ; [] |185| 
     584                    ;* --------------------------------------------------------------------------*
     585                            .dwpsn  file "../Application/ICall/icall_cc2650.c",line 207,column 25,is_stmt,isa 1
     586                    $C$DW$48        .dwtag  DW_TAG_TI_branch
     587                            .dwattr $C$DW$48, DW_AT_low_pc(0x00)
     588                            .dwattr $C$DW$48, DW_AT_name("ICall_enterCSImpl")
     589                            .dwattr $C$DW$48, DW_AT_TI_call
     590                    
     591 0000000e FFFEF7FF!         BL        ICall_enterCSImpl     ; [DPU_V7M3_PIPE] |207|  ; [KEEP 32-BIT INS]
     592                            ; CALL OCCURS {ICall_enterCSImpl }  ; [] |207| 
     593                            .dwpsn  file "../Application/ICall/icall_cc2650.c",line 208,column 5,is_stmt,isa 1
     594 00000012 7821              LDRB      A2, [V1, #0]          ; [DPU_V7M3_PIPE] |208|  ; [ORIG 16-BIT INS]
     595 00000014 2900              CMP       A2, #0                ; [DPU_V7M3_PIPE] |208|  ; [ORIG 16-BIT INS]
     596 00000016 BF04              ITT       EQ                    ; [DPU_V7M3_PIPE]  ; [ORIG 16-BIT INS]
     597                            .dwpsn  file "../Application/ICall/icall_cc2650.c",line 212,column 7,is_stmt,isa 1
     598 00000018 0407F06F          MVNEQ     V1, #7                ; [DPU_V7M3_PIPE] |212|  ; [KEEP 32-BIT INS]
     599 0000001c 1C05              MOVEQ     V2, A1                ; [DPU_V7M3_PIPE] |212|  ; [ORIG 16-BIT INS]
     600 0000001e D015              BEQ       ||$C$L9||             ; [DPU_V7M3_PIPE] |212|  ; [ORIG 16-BIT INS]
     601                            ; BRANCHCC OCCURS {||$C$L9||}    ; [] |212| 
     602                    ;* --------------------------------------------------------------------------*
     603                            .dwpsn  file "../Application/ICall/icall_cc2650.c",line 214,column 5,is_stmt,isa 1
     604 00000020 1E49              SUBS      A2, A2, #1            ; [DPU_V7M3_PIPE] |214|  ; [ORIG 16-BIT INS]
     605 00000022 B2C9              UXTB      A2, A2                ; [DPU_V7M3_PIPE] |214|  ; [ORIG 16-BIT INS]
TI ARM Assembler PC v18.1.1 Wed Apr 25 09:49:01 2018

Tools Copyright (c) 1996-2017 Texas Instruments Incorporated
C:\Users\devops\AppData\Local\Temp\2\{EAE5C80A-95F4-4830-8AD5-3F5837318C3E} PAGE   12

     606 00000024 7021              STRB      A2, [V1, #0]          ; [DPU_V7M3_PIPE] |214|  ; [ORIG 16-BIT INS]
     607 00000026 B939              CBNZ      A2, ||$C$L7||         ; []  ; [ORIG 16-BIT INS]
     608                            .dwpsn  file "../Application/ICall/icall_cc2650.c",line 215,column 5,is_stmt,isa 1
     609                            ; BRANCHCC OCCURS {||$C$L7||}    ; [] |215| 
     610                    ;* --------------------------------------------------------------------------*
     611                            .dwpsn  file "../Application/ICall/icall_cc2650.c",line 219,column 7,is_stmt,isa 1
     612                    $C$DW$49        .dwtag  DW_TAG_TI_branch
     613                            .dwattr $C$DW$49, DW_AT_low_pc(0x00)
     614                            .dwattr $C$DW$49, DW_AT_name("ICall_leaveCSImpl")
     615                            .dwattr $C$DW$49, DW_AT_TI_call
     616                    
     617 00000028 FFFEF7FF!         BL        ICall_leaveCSImpl     ; [DPU_V7M3_PIPE] |219|  ; [KEEP 32-BIT INS]
     618                            ; CALL OCCURS {ICall_leaveCSImpl }  ; [] |219| 
     619                            .dwpsn  file "../Application/ICall/icall_cc2650.c",line 220,column 7,is_stmt,isa 1
     620 0000002c 6860              LDR       A1, [V1, #4]          ; [DPU_V7M3_PIPE] |220|  ; [ORIG 16-BIT INS]
     621                    $C$DW$50        .dwtag  DW_TAG_TI_branch
     622                            .dwattr $C$DW$50, DW_AT_low_pc(0x00)
     623                            .dwattr $C$DW$50, DW_AT_name("ICallPlatform_pwrDispenseImpl")
     624                            .dwattr $C$DW$50, DW_AT_TI_call
     625                    
     626 0000002e FFFEF7FF!         BL        ICallPlatform_pwrDispenseImpl ; [DPU_V7M3_PIPE] |220|  ; [KEEP 32-BIT INS]
     627                            ; CALL OCCURS {ICallPlatform_pwrDispenseImpl }  ; [] |220| 
     628                            .dwpsn  file "../Application/ICall/icall_cc2650.c",line 221,column 7,is_stmt,isa 1
     629 00000032 2000              MOVS      A1, #0                ; [DPU_V7M3_PIPE] |221|  ; [ORIG 16-BIT INS]
     630 00000034 7168              STRB      A1, [V2, #5]          ; [DPU_V7M3_PIPE] |221|  ; [ORIG 16-BIT INS]
     631                            .dwpsn  file "../Application/ICall/icall_cc2650.c",line 222,column 5,is_stmt,isa 1
     632 00000036 E018              B         ||$C$L12||            ; [DPU_V7M3_PIPE] |222|  ; [ORIG 16-BIT INS]
     633                            ; BRANCH OCCURS {||$C$L12||}     ; [] |222| 
     634                    ;* --------------------------------------------------------------------------*
     635 00000038           ||$C$L7||:    
     636 00000038 4605              MOV       V2, A1                ; [DPU_V7M3_PIPE]  ; [ORIG 16-BIT INS]
     637                            .dwpsn  file "../Application/ICall/icall_cc2650.c",line 225,column 7,is_stmt,isa 1
     638 0000003a E013              B         ||$C$L11||            ; [DPU_V7M3_PIPE] |225|  ; [ORIG 16-BIT INS]
     639                            ; BRANCH OCCURS {||$C$L11||}     ; [] |225| 
     640                    ;* --------------------------------------------------------------------------*
     641 0000003c           ||$C$L8||:    
     642                            .dwpsn  file "../Application/ICall/icall_cc2650.c",line 188,column 25,is_stmt,isa 1
     643                    $C$DW$51        .dwtag  DW_TAG_TI_branch
     644                            .dwattr $C$DW$51, DW_AT_low_pc(0x00)
     645                            .dwattr $C$DW$51, DW_AT_name("ICall_enterCSImpl")
     646                            .dwattr $C$DW$51, DW_AT_TI_call
     647                    
     648 0000003c FFFEF7FF!         BL        ICall_enterCSImpl     ; [DPU_V7M3_PIPE] |188|  ; [KEEP 32-BIT INS]
     649                            ; CALL OCCURS {ICall_enterCSImpl }  ; [] |188| 
     650 00000040 4605              MOV       V2, A1                ; [DPU_V7M3_PIPE] |188|  ; [ORIG 16-BIT INS]
     651                            .dwpsn  file "../Application/ICall/icall_cc2650.c",line 189,column 5,is_stmt,isa 1
     652 00000042 7820              LDRB      A1, [V1, #0]          ; [DPU_V7M3_PIPE] |189|  ; [ORIG 16-BIT INS]
     653 00000044 28FF              CMP       A1, #255              ; [DPU_V7M3_PIPE] |189|  ; [ORIG 16-BIT INS]
     654 00000046 D105              BNE       ||$C$L10||            ; [DPU_V7M3_PIPE] |189|  ; [ORIG 16-BIT INS]
     655                            ; BRANCHCC OCCURS {||$C$L10||}   ; [] |189| 
     656                    ;* --------------------------------------------------------------------------*
     657                            .dwpsn  file "../Application/ICall/icall_cc2650.c",line 193,column 7,is_stmt,isa 1
     658 00000048 0406F06F          MVN       V1, #6                ; [DPU_V7M3_PIPE] |193|  ; [KEEP 32-BIT INS]
     659                    ;* --------------------------------------------------------------------------*
     660 0000004c           ||$C$L9||:    
TI ARM Assembler PC v18.1.1 Wed Apr 25 09:49:01 2018

Tools Copyright (c) 1996-2017 Texas Instruments Incorporated
C:\Users\devops\AppData\Local\Temp\2\{EAE5C80A-95F4-4830-8AD5-3F5837318C3E} PAGE   13

     661                            .dwpsn  file "../Application/ICall/icall_cc2650.c",line 192,column 7,is_stmt,isa 1
     662 0000004c 4628              MOV       A1, V2                ; [DPU_V7M3_PIPE] |192|  ; [ORIG 16-BIT INS]
     663                    $C$DW$52        .dwtag  DW_TAG_TI_branch
     664                            .dwattr $C$DW$52, DW_AT_low_pc(0x00)
     665                            .dwattr $C$DW$52, DW_AT_name("ICall_leaveCSImpl")
     666                            .dwattr $C$DW$52, DW_AT_TI_call
     667                    
     668 0000004e FFFEF7FF!         BL        ICall_leaveCSImpl     ; [DPU_V7M3_PIPE] |192|  ; [KEEP 32-BIT INS]
     669                            ; CALL OCCURS {ICall_leaveCSImpl }  ; [] |192| 
     670                            .dwpsn  file "../Application/ICall/icall_cc2650.c",line 193,column 7,is_stmt,isa 1
     671 00000052 E00B              B         ||$C$L13||            ; [DPU_V7M3_PIPE] |193|  ; [ORIG 16-BIT INS]
     672                            ; BRANCH OCCURS {||$C$L13||}     ; [] |193| 
     673                    ;* --------------------------------------------------------------------------*
     674 00000054           ||$C$L10||:    
     675                            .dwpsn  file "../Application/ICall/icall_cc2650.c",line 195,column 5,is_stmt,isa 1
     676 00000054 1C40              ADDS      A1, A1, #1            ; [DPU_V7M3_PIPE] |195|  ; [ORIG 16-BIT INS]
     677 00000056 B2C0              UXTB      A1, A1                ; [DPU_V7M3_PIPE] |195|  ; [ORIG 16-BIT INS]
     678                            .dwpsn  file "../Application/ICall/icall_cc2650.c",line 196,column 5,is_stmt,isa 1
     679 00000058 2801              CMP       A1, #1                ; [DPU_V7M3_PIPE] |196|  ; [ORIG 16-BIT INS]
     680                            .dwpsn  file "../Application/ICall/icall_cc2650.c",line 195,column 5,is_stmt,isa 1
     681 0000005a 7020              STRB      A1, [V1, #0]          ; [DPU_V7M3_PIPE] |195|  ; [ORIG 16-BIT INS]
     682                            .dwpsn  file "../Application/ICall/icall_cc2650.c",line 196,column 5,is_stmt,isa 1
     683 0000005c D102              BNE       ||$C$L11||            ; [DPU_V7M3_PIPE] |196|  ; [ORIG 16-BIT INS]
     684                            ; BRANCHCC OCCURS {||$C$L11||}   ; [] |196| 
     685                    ;* --------------------------------------------------------------------------*
     686                            .dwpsn  file "../Application/ICall/icall_cc2650.c",line 200,column 7,is_stmt,isa 1
     687 0000005e 6860              LDR       A1, [V1, #4]          ; [DPU_V7M3_PIPE] |200|  ; [ORIG 16-BIT INS]
     688                    $C$DW$53        .dwtag  DW_TAG_TI_branch
     689                            .dwattr $C$DW$53, DW_AT_low_pc(0x00)
     690                            .dwattr $C$DW$53, DW_AT_name("ICallPlatform_pwrRequireImpl")
     691                            .dwattr $C$DW$53, DW_AT_TI_call
     692                    
     693 00000060 FFFEF7FF!         BL        ICallPlatform_pwrRequireImpl ; [DPU_V7M3_PIPE] |200|  ; [KEEP 32-BIT INS]
     694                            ; CALL OCCURS {ICallPlatform_pwrRequireImpl }  ; [] |200| 
     695                    ;* --------------------------------------------------------------------------*
     696 00000064           ||$C$L11||:    
     697                            .dwpsn  file "../Application/ICall/icall_cc2650.c",line 202,column 5,is_stmt,isa 1
     698 00000064 4628              MOV       A1, V2                ; [DPU_V7M3_PIPE] |202|  ; [ORIG 16-BIT INS]
     699                    $C$DW$54        .dwtag  DW_TAG_TI_branch
     700                            .dwattr $C$DW$54, DW_AT_low_pc(0x00)
     701                            .dwattr $C$DW$54, DW_AT_name("ICall_leaveCSImpl")
     702                            .dwattr $C$DW$54, DW_AT_TI_call
     703                    
     704 00000066 FFFEF7FF!         BL        ICall_leaveCSImpl     ; [DPU_V7M3_PIPE] |202|  ; [KEEP 32-BIT INS]
     705                            ; CALL OCCURS {ICall_leaveCSImpl }  ; [] |202| 
     706                    ;* --------------------------------------------------------------------------*
     707 0000006a           ||$C$L12||:    
     708                            .dwpsn  file "../Application/ICall/icall_cc2650.c",line 228,column 3,is_stmt,isa 1
     709 0000006a 2400              MOVS      V1, #0                ; [DPU_V7M3_PIPE] |228|  ; [ORIG 16-BIT INS]
     710                    ;* --------------------------------------------------------------------------*
     711 0000006c           ||$C$L13||:    
     712 0000006c 4620              MOV       A1, V1                ; [DPU_V7M3_PIPE] |228|  ; [ORIG 16-BIT INS]
     713                    $C$DW$55        .dwtag  DW_TAG_TI_branch
     714                            .dwattr $C$DW$55, DW_AT_low_pc(0x00)
     715                            .dwattr $C$DW$55, DW_AT_TI_return
TI ARM Assembler PC v18.1.1 Wed Apr 25 09:49:01 2018

Tools Copyright (c) 1996-2017 Texas Instruments Incorporated
C:\Users\devops\AppData\Local\Temp\2\{EAE5C80A-95F4-4830-8AD5-3F5837318C3E} PAGE   14

     716                    
     717 0000006e BD38              POP       {A4, V1, V2, PC}      ; [DPU_V7M3_PIPE]  ; [ORIG 16-BIT INS]
     718                            .dwcfi  cfa_offset, 0
     719                            .dwcfi  restore_reg, 5
     720                            .dwcfi  restore_reg, 4
     721                            .dwcfi  restore_reg, 3
     722                            ; BRANCH OCCURS                  ; [] 
     723                            .dwattr $C$DW$43, DW_AT_TI_end_file("../Application/ICall/icall_cc2650.c")
     724                            .dwattr $C$DW$43, DW_AT_TI_end_line(0xe5)
     725                            .dwattr $C$DW$43, DW_AT_TI_end_column(0x01)
     726                            .dwendentry
     727                            .dwendtag $C$DW$43
     728                    
     729 00000000                   .sect   ".text:ICallPlatform_pwrSwitchXOSCHF"
     730                            .clink
     731                            .thumbfunc ICallPlatform_pwrSwitchXOSCHF
     732 00000000                   .thumb
     733                            .global ICallPlatform_pwrSwitchXOSCHF
     734                    
     735                    $C$DW$56        .dwtag  DW_TAG_subprogram
     736                            .dwattr $C$DW$56, DW_AT_name("ICallPlatform_pwrSwitchXOSCHF")
     737                            .dwattr $C$DW$56, DW_AT_low_pc(ICallPlatform_pwrSwitchXOSCHF)
     738                            .dwattr $C$DW$56, DW_AT_high_pc(0x00)
     739                            .dwattr $C$DW$56, DW_AT_TI_symbol_name("ICallPlatform_pwrSwitchXOSCHF")
     740                            .dwattr $C$DW$56, DW_AT_external
     741                            .dwattr $C$DW$56, DW_AT_type(*$C$DW$T$99)
     742                            .dwattr $C$DW$56, DW_AT_TI_begin_file("../Application/ICall/icall_cc2650.c")
     743                            .dwattr $C$DW$56, DW_AT_TI_begin_line(0x14d)
     744                            .dwattr $C$DW$56, DW_AT_TI_begin_column(0x01)
     745                            .dwattr $C$DW$56, DW_AT_decl_file("../Application/ICall/icall_cc2650.c")
     746                            .dwattr $C$DW$56, DW_AT_decl_line(0x14d)
     747                            .dwattr $C$DW$56, DW_AT_decl_column(0x01)
     748                            .dwattr $C$DW$56, DW_AT_TI_max_frame_size(0x08)
     749                            .dwpsn  file "../Application/ICall/icall_cc2650.c",line 334,column 1,is_stmt,address ICallPlat
     750                    
     751                            .dwfde $C$DW$CIE, ICallPlatform_pwrSwitchXOSCHF
     752                    $C$DW$57        .dwtag  DW_TAG_formal_parameter
     753                            .dwattr $C$DW$57, DW_AT_name("args")
     754                            .dwattr $C$DW$57, DW_AT_TI_symbol_name("args")
     755                            .dwattr $C$DW$57, DW_AT_type(*$C$DW$T$100)
     756                            .dwattr $C$DW$57, DW_AT_location[DW_OP_reg0]
     757                    
     758                    
     759                    ;*****************************************************************************
     760                    ;* FUNCTION NAME: ICallPlatform_pwrSwitchXOSCHF                              *
     761                    ;*                                                                           *
     762                    ;*   Regs Modified     : A1,A2,A3,A4,V9,SP,LR,SR                             *
     763                    ;*   Regs Used         : A1,A2,A3,A4,V9,SP,LR,SR                             *
     764                    ;*   Local Frame Size  : 0 Args + 0 Auto + 4 Save = 4 byte                   *
     765                    ;*****************************************************************************
     766 00000000           ICallPlatform_pwrSwitchXOSCHF:
     767                    ;* --------------------------------------------------------------------------*
     768                            .dwcfi  cfa_offset, 0
     769 00000000 B508              PUSH      {A4, LR}              ; [DPU_V7M3_PIPE]  ; [ORIG 16-BIT INS]
     770                            .dwcfi  cfa_offset, 8
TI ARM Assembler PC v18.1.1 Wed Apr 25 09:49:01 2018

Tools Copyright (c) 1996-2017 Texas Instruments Incorporated
C:\Users\devops\AppData\Local\Temp\2\{EAE5C80A-95F4-4830-8AD5-3F5837318C3E} PAGE   15

     771                            .dwcfi  save_reg_to_mem, 14, -4
     772                            .dwcfi  save_reg_to_mem, 3, -8
     773                            .dwpsn  file "../Application/ICall/icall_cc2650.c",line 335,column 3,is_stmt,isa 1
     774                    $C$DW$58        .dwtag  DW_TAG_TI_branch
     775                            .dwattr $C$DW$58, DW_AT_low_pc(0x00)
     776                            .dwattr $C$DW$58, DW_AT_name("PowerCC26XX_switchXOSC_HF")
     777                            .dwattr $C$DW$58, DW_AT_TI_call
     778                    
     779 00000002 FFFEF7FF!         BL        PowerCC26XX_switchXOSC_HF ; [DPU_V7M3_PIPE] |335|  ; [KEEP 32-BIT INS]
     780                            ; CALL OCCURS {PowerCC26XX_switchXOSC_HF }  ; [] |335| 
     781                            .dwpsn  file "../Application/ICall/icall_cc2650.c",line 336,column 3,is_stmt,isa 1
     782 00000006 2000              MOVS      A1, #0                ; [DPU_V7M3_PIPE] |336|  ; [ORIG 16-BIT INS]
     783                    $C$DW$59        .dwtag  DW_TAG_TI_branch
     784                            .dwattr $C$DW$59, DW_AT_low_pc(0x00)
     785                            .dwattr $C$DW$59, DW_AT_TI_return
     786                    
     787 00000008 BD08              POP       {A4, PC}              ; [DPU_V7M3_PIPE]  ; [ORIG 16-BIT INS]
     788                            .dwcfi  cfa_offset, 0
     789                            .dwcfi  restore_reg, 3
     790                            ; BRANCH OCCURS                  ; [] 
     791                            .dwattr $C$DW$56, DW_AT_TI_end_file("../Application/ICall/icall_cc2650.c")
     792                            .dwattr $C$DW$56, DW_AT_TI_end_line(0x151)
     793                            .dwattr $C$DW$56, DW_AT_TI_end_column(0x01)
     794                            .dwendentry
     795                            .dwendtag $C$DW$56
     796                    
     797 00000000                   .sect   ".text:ICallPlatform_pwrRequire"
     798                            .clink
     799                            .thumbfunc ICallPlatform_pwrRequire
     800 00000000                   .thumb
     801                            .global ICallPlatform_pwrRequire
     802                    
     803                    $C$DW$60        .dwtag  DW_TAG_subprogram
     804                            .dwattr $C$DW$60, DW_AT_name("ICallPlatform_pwrRequire")
     805                            .dwattr $C$DW$60, DW_AT_low_pc(ICallPlatform_pwrRequire)
     806                            .dwattr $C$DW$60, DW_AT_high_pc(0x00)
     807                            .dwattr $C$DW$60, DW_AT_TI_symbol_name("ICallPlatform_pwrRequire")
     808                            .dwattr $C$DW$60, DW_AT_external
     809                            .dwattr $C$DW$60, DW_AT_type(*$C$DW$T$99)
     810                            .dwattr $C$DW$60, DW_AT_TI_begin_file("../Application/ICall/icall_cc2650.c")
     811                            .dwattr $C$DW$60, DW_AT_TI_begin_line(0x103)
     812                            .dwattr $C$DW$60, DW_AT_TI_begin_column(0x01)
     813                            .dwattr $C$DW$60, DW_AT_decl_file("../Application/ICall/icall_cc2650.c")
     814                            .dwattr $C$DW$60, DW_AT_decl_line(0x103)
     815                            .dwattr $C$DW$60, DW_AT_decl_column(0x01)
     816                            .dwattr $C$DW$60, DW_AT_TI_max_frame_size(0x08)
     817                            .dwpsn  file "../Application/ICall/icall_cc2650.c",line 260,column 1,is_stmt,address ICallPlat
     818                    
     819                            .dwfde $C$DW$CIE, ICallPlatform_pwrRequire
     820                    $C$DW$61        .dwtag  DW_TAG_formal_parameter
     821                            .dwattr $C$DW$61, DW_AT_name("args")
     822                            .dwattr $C$DW$61, DW_AT_TI_symbol_name("args")
     823                            .dwattr $C$DW$61, DW_AT_type(*$C$DW$T$248)
     824                            .dwattr $C$DW$61, DW_AT_location[DW_OP_reg0]
     825                    
TI ARM Assembler PC v18.1.1 Wed Apr 25 09:49:01 2018

Tools Copyright (c) 1996-2017 Texas Instruments Incorporated
C:\Users\devops\AppData\Local\Temp\2\{EAE5C80A-95F4-4830-8AD5-3F5837318C3E} PAGE   16

     826                    
     827                    ;*****************************************************************************
     828                    ;* FUNCTION NAME: ICallPlatform_pwrRequire                                   *
     829                    ;*                                                                           *
     830                    ;*   Regs Modified     : A1,A2,A3,A4,V9,SP,LR,SR                             *
     831                    ;*   Regs Used         : A1,A2,A3,A4,V9,SP,LR,SR                             *
     832                    ;*   Local Frame Size  : 0 Args + 0 Auto + 4 Save = 4 byte                   *
     833                    ;*****************************************************************************
     834                    ICallPlatform_pwrRequire:
     835                    ;* --------------------------------------------------------------------------*
     836                    ;* A1    assigned to $O$C1
     837                    ;* A1    assigned to args
     838                    $C$DW$62        .dwtag  DW_TAG_variable
     839                            .dwattr $C$DW$62, DW_AT_name("args")
     840                            .dwattr $C$DW$62, DW_AT_TI_symbol_name("args")
     841                            .dwattr $C$DW$62, DW_AT_type(*$C$DW$T$384)
     842                            .dwattr $C$DW$62, DW_AT_location[DW_OP_reg0]
     843                    
     844                            .dwcfi  cfa_offset, 0
     845 00000000 B508              PUSH      {A4, LR}              ; [DPU_V7M3_PIPE]  ; [ORIG 16-BIT INS]
     846                            .dwcfi  cfa_offset, 8
     847                            .dwcfi  save_reg_to_mem, 14, -4
     848                            .dwcfi  save_reg_to_mem, 3, -8
     849                            .dwpsn  file "../Application/ICall/icall_cc2650.c",line 261,column 3,is_stmt,isa 1
     850 00000002 6840              LDR       A1, [A1, #4]          ; [DPU_V7M3_PIPE] |261|  ; [ORIG 16-BIT INS]
     851 00000004 4F7FF010          TST       A1, #-16777216        ; [DPU_V7M3_PIPE] |261|  ; [KEEP 32-BIT INS]
     852 00000008 BF18              IT        NE                    ; [DPU_V7M3_PIPE]  ; [ORIG 16-BIT INS]
     853                            .dwpsn  file "../Application/ICall/icall_cc2650.c",line 263,column 5,is_stmt,isa 1
     854 0000000a 0002F06F          MVNNE     A1, #2                ; [DPU_V7M3_PIPE] |263|  ; [KEEP 32-BIT INS]
     855 0000000e D102              BNE       ||$C$L14||            ; [DPU_V7M3_PIPE] |263|  ; [ORIG 16-BIT INS]
     856                            ; BRANCHCC OCCURS {||$C$L14||}   ; [] |263| 
     857                    ;* --------------------------------------------------------------------------*
     858                            .dwpsn  file "../Application/ICall/icall_cc2650.c",line 266,column 3,is_stmt,isa 1
     859                    $C$DW$63        .dwtag  DW_TAG_TI_branch
     860                            .dwattr $C$DW$63, DW_AT_low_pc(0x00)
     861                            .dwattr $C$DW$63, DW_AT_name("ICallPlatform_pwrRequireImpl")
     862                            .dwattr $C$DW$63, DW_AT_TI_call
     863                    
     864 00000010 FFFEF7FF!         BL        ICallPlatform_pwrRequireImpl ; [DPU_V7M3_PIPE] |266|  ; [KEEP 32-BIT INS]
     865                            ; CALL OCCURS {ICallPlatform_pwrRequireImpl }  ; [] |266| 
     866                            .dwpsn  file "../Application/ICall/icall_cc2650.c",line 268,column 3,is_stmt,isa 1
     867 00000014 2000              MOVS      A1, #0                ; [DPU_V7M3_PIPE] |268|  ; [ORIG 16-BIT INS]
     868                    ;* --------------------------------------------------------------------------*
     869                    ||$C$L14||:    
     870                    $C$DW$64        .dwtag  DW_TAG_TI_branch
     871                            .dwattr $C$DW$64, DW_AT_low_pc(0x00)
     872                            .dwattr $C$DW$64, DW_AT_TI_return
     873                    
     874 00000016 BD08              POP       {A4, PC}              ; [DPU_V7M3_PIPE]  ; [ORIG 16-BIT INS]
     875                            .dwcfi  cfa_offset, 0
     876                            .dwcfi  restore_reg, 3
     877                            ; BRANCH OCCURS                  ; [] 
     878                            .dwattr $C$DW$60, DW_AT_TI_end_file("../Application/ICall/icall_cc2650.c")
     879                            .dwattr $C$DW$60, DW_AT_TI_end_line(0x10d)
     880                            .dwattr $C$DW$60, DW_AT_TI_end_column(0x01)
TI ARM Assembler PC v18.1.1 Wed Apr 25 09:49:01 2018

Tools Copyright (c) 1996-2017 Texas Instruments Incorporated
C:\Users\devops\AppData\Local\Temp\2\{EAE5C80A-95F4-4830-8AD5-3F5837318C3E} PAGE   17

     881                            .dwendentry
     882                            .dwendtag $C$DW$60
     883                    
     884 00000000                   .sect   ".text:ICallPlatform_pwrRegisterNotify"
     885                            .clink
     886                            .thumbfunc ICallPlatform_pwrRegisterNotify
     887 00000000                   .thumb
     888                            .global ICallPlatform_pwrRegisterNotify
     889                    
     890                    $C$DW$65        .dwtag  DW_TAG_subprogram
     891                            .dwattr $C$DW$65, DW_AT_name("ICallPlatform_pwrRegisterNotify")
     892                            .dwattr $C$DW$65, DW_AT_low_pc(ICallPlatform_pwrRegisterNotify)
     893                            .dwattr $C$DW$65, DW_AT_high_pc(0x00)
     894                            .dwattr $C$DW$65, DW_AT_TI_symbol_name("ICallPlatform_pwrRegisterNotify")
     895                            .dwattr $C$DW$65, DW_AT_external
     896                            .dwattr $C$DW$65, DW_AT_type(*$C$DW$T$99)
     897                            .dwattr $C$DW$65, DW_AT_TI_begin_file("../Application/ICall/icall_cc2650.c")
     898                            .dwattr $C$DW$65, DW_AT_TI_begin_line(0x11f)
     899                            .dwattr $C$DW$65, DW_AT_TI_begin_column(0x01)
     900                            .dwattr $C$DW$65, DW_AT_decl_file("../Application/ICall/icall_cc2650.c")
     901                            .dwattr $C$DW$65, DW_AT_decl_line(0x11f)
     902                            .dwattr $C$DW$65, DW_AT_decl_column(0x01)
     903                            .dwattr $C$DW$65, DW_AT_TI_max_frame_size(0x08)
     904                            .dwpsn  file "../Application/ICall/icall_cc2650.c",line 288,column 1,is_stmt,address ICallPlat
     905                    
     906                            .dwfde $C$DW$CIE, ICallPlatform_pwrRegisterNotify
     907                    $C$DW$66        .dwtag  DW_TAG_variable
     908                            .dwattr $C$DW$66, DW_AT_name("events")
     909                            .dwattr $C$DW$66, DW_AT_TI_symbol_name("events$1")
     910                            .dwattr $C$DW$66, DW_AT_type(*$C$DW$T$322)
     911                            .dwattr $C$DW$66, DW_AT_location[DW_OP_addr events$1]
     912                    
     913                    $C$DW$67        .dwtag  DW_TAG_formal_parameter
     914                            .dwattr $C$DW$67, DW_AT_name("args")
     915                            .dwattr $C$DW$67, DW_AT_TI_symbol_name("args")
     916                            .dwattr $C$DW$67, DW_AT_type(*$C$DW$T$251)
     917                            .dwattr $C$DW$67, DW_AT_location[DW_OP_reg0]
     918                    
     919                    
     920                    ;*****************************************************************************
     921                    ;* FUNCTION NAME: ICallPlatform_pwrRegisterNotify                            *
     922                    ;*                                                                           *
     923                    ;*   Regs Modified     : A1,A2,A3,A4,V1,V9,SP,LR,SR                          *
     924                    ;*   Regs Used         : A1,A2,A3,A4,V1,V9,SP,LR,SR                          *
     925                    ;*   Local Frame Size  : 0 Args + 0 Auto + 8 Save = 8 byte                   *
     926                    ;*****************************************************************************
     927                    ICallPlatform_pwrRegisterNotify:
     928                    ;* --------------------------------------------------------------------------*
     929                    ;* A1    assigned to $O$obj_0
     930                    ;* V1    assigned to args
     931                    $C$DW$68        .dwtag  DW_TAG_variable
     932                            .dwattr $C$DW$68, DW_AT_name("args")
     933                            .dwattr $C$DW$68, DW_AT_TI_symbol_name("args")
     934                            .dwattr $C$DW$68, DW_AT_type(*$C$DW$T$395)
     935                            .dwattr $C$DW$68, DW_AT_location[DW_OP_reg4]
TI ARM Assembler PC v18.1.1 Wed Apr 25 09:49:01 2018

Tools Copyright (c) 1996-2017 Texas Instruments Incorporated
C:\Users\devops\AppData\Local\Temp\2\{EAE5C80A-95F4-4830-8AD5-3F5837318C3E} PAGE   18

     936                    
     937                            .dwcfi  cfa_offset, 0
     938 00000000 B510              PUSH      {V1, LR}              ; [DPU_V7M3_PIPE]  ; [ORIG 16-BIT INS]
     939                            .dwcfi  cfa_offset, 8
     940                            .dwcfi  save_reg_to_mem, 14, -4
     941                            .dwcfi  save_reg_to_mem, 4, -8
     942 00000002 4604              MOV       V1, A1                ; [DPU_V7M3_PIPE] |288|  ; [ORIG 16-BIT INS]
     943                            .dwpsn  file "../Application/ICall/icall_cc2650.c",line 300,column 3,is_stmt,isa 1
     944 00000004 68A1              LDR       A2, [V1, #8]          ; [DPU_V7M3_PIPE] |300|  ; [ORIG 16-BIT INS]
     945 00000006 6860              LDR       A1, [V1, #4]          ; [DPU_V7M3_PIPE] |300|  ; [ORIG 16-BIT INS]
     946 00000008 6008              STR       A1, [A2, #0]          ; [DPU_V7M3_PIPE] |300|  ; [ORIG 16-BIT INS]
     947                            .dwpsn  file "../Application/ICall/icall_cc2650.c",line 303,column 5,is_stmt,isa 1
     948 0000000a 2014              MOVS      A1, #20               ; [DPU_V7M3_PIPE] |303|  ; [ORIG 16-BIT INS]
     949                    $C$DW$69        .dwtag  DW_TAG_TI_branch
     950                            .dwattr $C$DW$69, DW_AT_low_pc(0x00)
     951                            .dwattr $C$DW$69, DW_AT_name("ICall_mallocImpl")
     952                            .dwattr $C$DW$69, DW_AT_TI_call
     953                    
     954 0000000c FFFEF7FF!         BL        ICall_mallocImpl      ; [DPU_V7M3_PIPE] |303|  ; [KEEP 32-BIT INS]
     955                            ; CALL OCCURS {ICall_mallocImpl }  ; [] |303| 
     956 00000010 B138              CBZ       A1, ||$C$L15||        ; []  ; [ORIG 16-BIT INS]
     957                            .dwpsn  file "../Application/ICall/icall_cc2650.c",line 304,column 5,is_stmt,isa 1
     958                            ; BRANCHCC OCCURS {||$C$L15||}   ; [] |304| 
     959                    ;* --------------------------------------------------------------------------*
     960                            .dwcfi  remember_state
     961                            .dwpsn  file "../Application/ICall/icall_cc2650.c",line 316,column 5,is_stmt,isa 1
     962 00000012 4905              LDR       A2, $C$CON2           ; [DPU_V7M3_PIPE] |316|  ; [ORIG 16-BIT INS]
     963 00000014 68A3              LDR       A4, [V1, #8]          ; [DPU_V7M3_PIPE] |316|  ; [ORIG 16-BIT INS]
     964 00000016 4A05              LDR       A3, $C$CON3           ; [DPU_V7M3_PIPE] |316|  ; [ORIG 16-BIT INS]
     965 00000018 6809              LDR       A2, [A2, #0]          ; [DPU_V7M3_PIPE] |316|  ; [ORIG 16-BIT INS]
     966                    $C$DW$70        .dwtag  DW_TAG_TI_branch
     967                            .dwattr $C$DW$70, DW_AT_low_pc(0x00)
     968                            .dwattr $C$DW$70, DW_AT_name("Power_registerNotify")
     969                            .dwattr $C$DW$70, DW_AT_TI_call
     970                    
     971 0000001a FFFEF7FF!         BL        Power_registerNotify  ; [DPU_V7M3_PIPE] |316|  ; [KEEP 32-BIT INS]
     972                            ; CALL OCCURS {Power_registerNotify }  ; [] |316| 
     973                            .dwpsn  file "../Application/ICall/icall_cc2650.c",line 320,column 3,is_stmt,isa 1
     974 0000001e 2000              MOVS      A1, #0                ; [DPU_V7M3_PIPE] |320|  ; [ORIG 16-BIT INS]
     975                    $C$DW$71        .dwtag  DW_TAG_TI_branch
     976                            .dwattr $C$DW$71, DW_AT_low_pc(0x00)
     977                            .dwattr $C$DW$71, DW_AT_TI_return
     978                    
     979 00000020 BD10              POP       {V1, PC}              ; [DPU_V7M3_PIPE]  ; [ORIG 16-BIT INS]
     980                            .dwcfi  cfa_offset, 0
     981                            .dwcfi  restore_reg, 4
     982                            ; BRANCH OCCURS                  ; [] 
     983                            .dwcfi  restore_state
     984                    ;* --------------------------------------------------------------------------*
     985 00000022           ||$C$L15||:    
     986                            .dwpsn  file "../Application/ICall/icall_cc2650.c",line 311,column 7,is_stmt,isa 1
     987 00000022 0003F06F          MVN       A1, #3                ; [DPU_V7M3_PIPE] |311|  ; [KEEP 32-BIT INS]
     988                    ;* --------------------------------------------------------------------------*
     989                    $C$DW$72        .dwtag  DW_TAG_TI_branch
     990                            .dwattr $C$DW$72, DW_AT_low_pc(0x00)
TI ARM Assembler PC v18.1.1 Wed Apr 25 09:49:01 2018

Tools Copyright (c) 1996-2017 Texas Instruments Incorporated
C:\Users\devops\AppData\Local\Temp\2\{EAE5C80A-95F4-4830-8AD5-3F5837318C3E} PAGE   19

     991                            .dwattr $C$DW$72, DW_AT_TI_return
     992                    
     993 00000026 BD10              POP       {V1, PC}              ; [DPU_V7M3_PIPE]  ; [ORIG 16-BIT INS]
     994                            .dwcfi  cfa_offset, 0
     995                            .dwcfi  restore_reg, 4
     996                            ; BRANCH OCCURS                  ; [] 
     997                            .dwattr $C$DW$65, DW_AT_TI_end_file("../Application/ICall/icall_cc2650.c")
     998                            .dwattr $C$DW$65, DW_AT_TI_end_line(0x141)
     999                            .dwattr $C$DW$65, DW_AT_TI_end_column(0x01)
    1000                            .dwendentry
    1001                            .dwendtag $C$DW$65
    1002                    
    1003 00000000                   .sect   ".text:ICallPlatform_pwrNotify"
    1004                            .clink
    1005                            .thumbfunc ICallPlatform_pwrNotify
    1006 00000000                   .thumb
    1007                    
    1008                    $C$DW$73        .dwtag  DW_TAG_subprogram
    1009                            .dwattr $C$DW$73, DW_AT_name("ICallPlatform_pwrNotify")
    1010                            .dwattr $C$DW$73, DW_AT_low_pc(ICallPlatform_pwrNotify)
    1011                            .dwattr $C$DW$73, DW_AT_high_pc(0x00)
    1012                            .dwattr $C$DW$73, DW_AT_TI_symbol_name("ICallPlatform_pwrNotify")
    1013                            .dwattr $C$DW$73, DW_AT_type(*$C$DW$T$116)
    1014                            .dwattr $C$DW$73, DW_AT_TI_begin_file("../Application/ICall/icall_cc2650.c")
    1015                            .dwattr $C$DW$73, DW_AT_TI_begin_line(0x5d)
    1016                            .dwattr $C$DW$73, DW_AT_TI_begin_column(0x01)
    1017                            .dwattr $C$DW$73, DW_AT_decl_file("../Application/ICall/icall_cc2650.c")
    1018                            .dwattr $C$DW$73, DW_AT_decl_line(0x5d)
    1019                            .dwattr $C$DW$73, DW_AT_decl_column(0x01)
    1020                            .dwattr $C$DW$73, DW_AT_TI_max_frame_size(0x08)
    1021                            .dwpsn  file "../Application/ICall/icall_cc2650.c",line 95,column 1,is_stmt,address ICallPlatf
    1022                    
    1023                            .dwfde $C$DW$CIE, ICallPlatform_pwrNotify
    1024                    $C$DW$74        .dwtag  DW_TAG_formal_parameter
    1025                            .dwattr $C$DW$74, DW_AT_name("eventType")
    1026                            .dwattr $C$DW$74, DW_AT_TI_symbol_name("eventType")
    1027                            .dwattr $C$DW$74, DW_AT_type(*$C$DW$T$11)
    1028                            .dwattr $C$DW$74, DW_AT_location[DW_OP_reg0]
    1029                    
    1030                    $C$DW$75        .dwtag  DW_TAG_formal_parameter
    1031                            .dwattr $C$DW$75, DW_AT_name("eventArg")
    1032                            .dwattr $C$DW$75, DW_AT_TI_symbol_name("eventArg")
    1033                            .dwattr $C$DW$75, DW_AT_type(*$C$DW$T$49)
    1034                            .dwattr $C$DW$75, DW_AT_location[DW_OP_reg1]
    1035                    
    1036                    $C$DW$76        .dwtag  DW_TAG_formal_parameter
    1037                            .dwattr $C$DW$76, DW_AT_name("clientArg")
    1038                            .dwattr $C$DW$76, DW_AT_TI_symbol_name("clientArg")
    1039                            .dwattr $C$DW$76, DW_AT_type(*$C$DW$T$49)
    1040                            .dwattr $C$DW$76, DW_AT_location[DW_OP_reg2]
    1041                    
    1042                    
    1043                    ;*****************************************************************************
    1044                    ;* FUNCTION NAME: ICallPlatform_pwrNotify                                    *
    1045                    ;*                                                                           *
TI ARM Assembler PC v18.1.1 Wed Apr 25 09:49:01 2018

Tools Copyright (c) 1996-2017 Texas Instruments Incorporated
C:\Users\devops\AppData\Local\Temp\2\{EAE5C80A-95F4-4830-8AD5-3F5837318C3E} PAGE   20

    1046                    ;*   Regs Modified     : A1,A2,A3,A4,V1,V9,SP,LR,SR                          *
    1047                    ;*   Regs Used         : A1,A2,A3,A4,V1,V9,SP,LR,SR                          *
    1048                    ;*   Local Frame Size  : 0 Args + 0 Auto + 8 Save = 8 byte                   *
    1049                    ;*****************************************************************************
    1050                    ICallPlatform_pwrNotify:
    1051                    ;* --------------------------------------------------------------------------*
    1052                    ;* V1    assigned to data
    1053                    $C$DW$77        .dwtag  DW_TAG_variable
    1054                            .dwattr $C$DW$77, DW_AT_name("data")
    1055                            .dwattr $C$DW$77, DW_AT_TI_symbol_name("data")
    1056                            .dwattr $C$DW$77, DW_AT_type(*$C$DW$T$134)
    1057                            .dwattr $C$DW$77, DW_AT_location[DW_OP_reg4]
    1058                    
    1059                    ;* A1    assigned to transition
    1060                    $C$DW$78        .dwtag  DW_TAG_variable
    1061                            .dwattr $C$DW$78, DW_AT_name("transition")
    1062                            .dwattr $C$DW$78, DW_AT_TI_symbol_name("transition")
    1063                            .dwattr $C$DW$78, DW_AT_type(*$C$DW$T$127)
    1064                            .dwattr $C$DW$78, DW_AT_location[DW_OP_reg0]
    1065                    
    1066                            .dwcfi  cfa_offset, 0
    1067 00000000 B510              PUSH      {V1, LR}              ; [DPU_V7M3_PIPE]  ; [ORIG 16-BIT INS]
    1068                            .dwcfi  cfa_offset, 8
    1069                            .dwcfi  save_reg_to_mem, 14, -4
    1070                            .dwcfi  save_reg_to_mem, 4, -8
    1071                            .dwpsn  file "../Application/ICall/icall_cc2650.c",line 98,column 3,is_stmt,isa 1
    1072 00000002 1E40              SUBS      A1, A1, #1            ; [DPU_V7M3_PIPE] |98|  ; [ORIG 16-BIT INS]
    1073                            .dwpsn  file "../Application/ICall/icall_cc2650.c",line 95,column 1,is_stmt,isa 1
    1074 00000004 4614              MOV       V1, A3                ; [DPU_V7M3_PIPE] |95|  ; [ORIG 16-BIT INS]
    1075                            .dwpsn  file "../Application/ICall/icall_cc2650.c",line 98,column 3,is_stmt,isa 1
    1076 00000006 D00E              BEQ       ||$C$L19||            ; [DPU_V7M3_PIPE] |98|  ; [ORIG 16-BIT INS]
    1077                            ; BRANCHCC OCCURS {||$C$L19||}   ; [] |98| 
    1078                    ;* --------------------------------------------------------------------------*
    1079 00000008 1E40              SUBS      A1, A1, #1            ; [DPU_V7M3_PIPE] |98|  ; [ORIG 16-BIT INS]
    1080 0000000a D00A              BEQ       ||$C$L18||            ; [DPU_V7M3_PIPE] |98|  ; [ORIG 16-BIT INS]
    1081                            ; BRANCHCC OCCURS {||$C$L18||}   ; [] |98| 
    1082                    ;* --------------------------------------------------------------------------*
    1083 0000000c 1E80              SUBS      A1, A1, #2            ; [DPU_V7M3_PIPE] |98|  ; [ORIG 16-BIT INS]
    1084 0000000e D006              BEQ       ||$C$L17||            ; [DPU_V7M3_PIPE] |98|  ; [ORIG 16-BIT INS]
    1085                            ; BRANCHCC OCCURS {||$C$L17||}   ; [] |98| 
    1086                    ;* --------------------------------------------------------------------------*
    1087 00000010 1F00              SUBS      A1, A1, #4            ; [DPU_V7M3_PIPE] |98|  ; [ORIG 16-BIT INS]
    1088 00000012 D002              BEQ       ||$C$L16||            ; [DPU_V7M3_PIPE] |98|  ; [ORIG 16-BIT INS]
    1089                            ; BRANCHCC OCCURS {||$C$L16||}   ; [] |98| 
    1090                    ;* --------------------------------------------------------------------------*
    1091                            .dwpsn  file "../Application/ICall/icall_cc2650.c",line 113,column 5,is_stmt,isa 1
    1092                    $C$DW$79        .dwtag  DW_TAG_TI_branch
    1093                            .dwattr $C$DW$79, DW_AT_low_pc(0x00)
    1094                            .dwattr $C$DW$79, DW_AT_name("halAssertHandler")
    1095                            .dwattr $C$DW$79, DW_AT_TI_call
    1096                    
    1097 00000014 FFFEF7FF!         BL        halAssertHandler      ; [DPU_V7M3_PIPE] |113|  ; [KEEP 32-BIT INS]
    1098                            ; CALL OCCURS {halAssertHandler }  ; [] |113| 
    1099                            .dwpsn  file "../Application/ICall/icall_cc2650.c",line 114,column 5,is_stmt,isa 1
    1100 00000018 E006              B         ||$C$L20||            ; [DPU_V7M3_PIPE] |114|  ; [ORIG 16-BIT INS]
TI ARM Assembler PC v18.1.1 Wed Apr 25 09:49:01 2018

Tools Copyright (c) 1996-2017 Texas Instruments Incorporated
C:\Users\devops\AppData\Local\Temp\2\{EAE5C80A-95F4-4830-8AD5-3F5837318C3E} PAGE   21

    1101                            ; BRANCH OCCURS {||$C$L20||}     ; [] |114| 
    1102                    ;* --------------------------------------------------------------------------*
    1103 0000001a           ||$C$L16||:    
    1104                            .dwpsn  file "../Application/ICall/icall_cc2650.c",line 110,column 5,is_stmt,isa 1
    1105 0000001a 2005              MOVS      A1, #5                ; [DPU_V7M3_PIPE] |110|  ; [ORIG 16-BIT INS]
    1106                            .dwpsn  file "../Application/ICall/icall_cc2650.c",line 111,column 5,is_stmt,isa 1
    1107 0000001c E004              B         ||$C$L20||            ; [DPU_V7M3_PIPE] |111|  ; [ORIG 16-BIT INS]
    1108                            ; BRANCH OCCURS {||$C$L20||}     ; [] |111| 
    1109                    ;* --------------------------------------------------------------------------*
    1110 0000001e           ||$C$L17||:    
    1111                            .dwpsn  file "../Application/ICall/icall_cc2650.c",line 101,column 5,is_stmt,isa 1
    1112 0000001e 2000              MOVS      A1, #0                ; [DPU_V7M3_PIPE] |101|  ; [ORIG 16-BIT INS]
    1113                            .dwpsn  file "../Application/ICall/icall_cc2650.c",line 102,column 5,is_stmt,isa 1
    1114 00000020 E002              B         ||$C$L20||            ; [DPU_V7M3_PIPE] |102|  ; [ORIG 16-BIT INS]
    1115                            ; BRANCH OCCURS {||$C$L20||}     ; [] |102| 
    1116                    ;* --------------------------------------------------------------------------*
    1117 00000022           ||$C$L18||:    
    1118                            .dwpsn  file "../Application/ICall/icall_cc2650.c",line 107,column 5,is_stmt,isa 1
    1119 00000022 2004              MOVS      A1, #4                ; [DPU_V7M3_PIPE] |107|  ; [ORIG 16-BIT INS]
    1120                            .dwpsn  file "../Application/ICall/icall_cc2650.c",line 108,column 5,is_stmt,isa 1
    1121 00000024 E000              B         ||$C$L20||            ; [DPU_V7M3_PIPE] |108|  ; [ORIG 16-BIT INS]
    1122                            ; BRANCH OCCURS {||$C$L20||}     ; [] |108| 
    1123                    ;* --------------------------------------------------------------------------*
    1124 00000026           ||$C$L19||:    
    1125                            .dwpsn  file "../Application/ICall/icall_cc2650.c",line 104,column 5,is_stmt,isa 1
    1126 00000026 2002              MOVS      A1, #2                ; [DPU_V7M3_PIPE] |104|  ; [ORIG 16-BIT INS]
    1127                    ;* --------------------------------------------------------------------------*
    1128 00000028           ||$C$L20||:    
    1129                            .dwpsn  file "../Application/ICall/icall_cc2650.c",line 116,column 3,is_stmt,isa 1
    1130 00000028 6822              LDR       A3, [V1, #0]          ; [DPU_V7M3_PIPE] |116|  ; [ORIG 16-BIT INS]
    1131 0000002a 4621              MOV       A2, V1                ; [DPU_V7M3_PIPE] |116|  ; [ORIG 16-BIT INS]
    1132                    $C$DW$80        .dwtag  DW_TAG_TI_branch
    1133                            .dwattr $C$DW$80, DW_AT_low_pc(0x00)
    1134                            .dwattr $C$DW$80, DW_AT_TI_call
    1135                            .dwattr $C$DW$80, DW_AT_TI_indirect
    1136                    
    1137 0000002c 4790              BLX       A3                    ; [DPU_V7M3_PIPE] |116|  ; [ORIG 16-BIT INS]
    1138                            ; CALL OCCURS {}                 ; [] |116| 
    1139                            .dwpsn  file "../Application/ICall/icall_cc2650.c",line 117,column 3,is_stmt,isa 1
    1140 0000002e 2000              MOVS      A1, #0                ; [DPU_V7M3_PIPE] |117|  ; [ORIG 16-BIT INS]
    1141                    $C$DW$81        .dwtag  DW_TAG_TI_branch
    1142                            .dwattr $C$DW$81, DW_AT_low_pc(0x00)
    1143                            .dwattr $C$DW$81, DW_AT_TI_return
    1144                    
    1145 00000030 BD10              POP       {V1, PC}              ; [DPU_V7M3_PIPE]  ; [ORIG 16-BIT INS]
    1146                            .dwcfi  cfa_offset, 0
    1147                            .dwcfi  restore_reg, 4
    1148                            ; BRANCH OCCURS                  ; [] 
    1149                            .dwattr $C$DW$73, DW_AT_TI_end_file("../Application/ICall/icall_cc2650.c")
    1150                            .dwattr $C$DW$73, DW_AT_TI_end_line(0x76)
    1151                            .dwattr $C$DW$73, DW_AT_TI_end_column(0x01)
    1152                            .dwendentry
    1153                            .dwendtag $C$DW$73
    1154                    
    1155 00000000                   .sect   ".text:ICallPlatform_pwrIsStableXOSCHF"
TI ARM Assembler PC v18.1.1 Wed Apr 25 09:49:01 2018

Tools Copyright (c) 1996-2017 Texas Instruments Incorporated
C:\Users\devops\AppData\Local\Temp\2\{EAE5C80A-95F4-4830-8AD5-3F5837318C3E} PAGE   22

    1156                            .clink
    1157                            .thumbfunc ICallPlatform_pwrIsStableXOSCHF
    1158 00000000                   .thumb
    1159                            .global ICallPlatform_pwrIsStableXOSCHF
    1160                    
    1161                    $C$DW$82        .dwtag  DW_TAG_subprogram
    1162                            .dwattr $C$DW$82, DW_AT_name("ICallPlatform_pwrIsStableXOSCHF")
    1163                            .dwattr $C$DW$82, DW_AT_low_pc(ICallPlatform_pwrIsStableXOSCHF)
    1164                            .dwattr $C$DW$82, DW_AT_high_pc(0x00)
    1165                            .dwattr $C$DW$82, DW_AT_TI_symbol_name("ICallPlatform_pwrIsStableXOSCHF")
    1166                            .dwattr $C$DW$82, DW_AT_external
    1167                            .dwattr $C$DW$82, DW_AT_type(*$C$DW$T$99)
    1168                            .dwattr $C$DW$82, DW_AT_TI_begin_file("../Application/ICall/icall_cc2650.c")
    1169                            .dwattr $C$DW$82, DW_AT_TI_begin_line(0x145)
    1170                            .dwattr $C$DW$82, DW_AT_TI_begin_column(0x01)
    1171                            .dwattr $C$DW$82, DW_AT_decl_file("../Application/ICall/icall_cc2650.c")
    1172                            .dwattr $C$DW$82, DW_AT_decl_line(0x145)
    1173                            .dwattr $C$DW$82, DW_AT_decl_column(0x01)
    1174                            .dwattr $C$DW$82, DW_AT_TI_max_frame_size(0x08)
    1175                            .dwpsn  file "../Application/ICall/icall_cc2650.c",line 326,column 1,is_stmt,address ICallPlat
    1176                    
    1177                            .dwfde $C$DW$CIE, ICallPlatform_pwrIsStableXOSCHF
    1178                    $C$DW$83        .dwtag  DW_TAG_formal_parameter
    1179                            .dwattr $C$DW$83, DW_AT_name("args")
    1180                            .dwattr $C$DW$83, DW_AT_TI_symbol_name("args")
    1181                            .dwattr $C$DW$83, DW_AT_type(*$C$DW$T$254)
    1182                            .dwattr $C$DW$83, DW_AT_location[DW_OP_reg0]
    1183                    
    1184                    
    1185                    ;*****************************************************************************
    1186                    ;* FUNCTION NAME: ICallPlatform_pwrIsStableXOSCHF                            *
    1187                    ;*                                                                           *
    1188                    ;*   Regs Modified     : A1,A2,A3,A4,V1,V9,SP,LR,SR                          *
    1189                    ;*   Regs Used         : A1,A2,A3,A4,V1,V9,SP,LR,SR                          *
    1190                    ;*   Local Frame Size  : 0 Args + 0 Auto + 8 Save = 8 byte                   *
    1191                    ;*****************************************************************************
    1192                    ICallPlatform_pwrIsStableXOSCHF:
    1193                    ;* --------------------------------------------------------------------------*
    1194                    ;* V1    assigned to args
    1195                    $C$DW$84        .dwtag  DW_TAG_variable
    1196                            .dwattr $C$DW$84, DW_AT_name("args")
    1197                            .dwattr $C$DW$84, DW_AT_TI_symbol_name("args")
    1198                            .dwattr $C$DW$84, DW_AT_type(*$C$DW$T$379)
    1199                            .dwattr $C$DW$84, DW_AT_location[DW_OP_reg4]
    1200                    
    1201                            .dwcfi  cfa_offset, 0
    1202 00000000 B510              PUSH      {V1, LR}              ; [DPU_V7M3_PIPE]  ; [ORIG 16-BIT INS]
    1203                            .dwcfi  cfa_offset, 8
    1204                            .dwcfi  save_reg_to_mem, 14, -4
    1205                            .dwcfi  save_reg_to_mem, 4, -8
    1206 00000002 4604              MOV       V1, A1                ; [DPU_V7M3_PIPE] |326|  ; [ORIG 16-BIT INS]
    1207                            .dwpsn  file "../Application/ICall/icall_cc2650.c",line 327,column 3,is_stmt,isa 1
    1208                    $C$DW$85        .dwtag  DW_TAG_TI_branch
    1209                            .dwattr $C$DW$85, DW_AT_low_pc(0x00)
    1210                            .dwattr $C$DW$85, DW_AT_name("PowerCC26XX_isStableXOSC_HF")
TI ARM Assembler PC v18.1.1 Wed Apr 25 09:49:01 2018

Tools Copyright (c) 1996-2017 Texas Instruments Incorporated
C:\Users\devops\AppData\Local\Temp\2\{EAE5C80A-95F4-4830-8AD5-3F5837318C3E} PAGE   23

    1211                            .dwattr $C$DW$85, DW_AT_TI_call
    1212                    
    1213 00000004 FFFEF7FF!         BL        PowerCC26XX_isStableXOSC_HF ; [DPU_V7M3_PIPE] |327|  ; [KEEP 32-BIT INS]
    1214                            ; CALL OCCURS {PowerCC26XX_isStableXOSC_HF }  ; [] |327| 
    1215 00000008 7120              STRB      A1, [V1, #4]          ; [DPU_V7M3_PIPE] |327|  ; [ORIG 16-BIT INS]
    1216                            .dwpsn  file "../Application/ICall/icall_cc2650.c",line 328,column 3,is_stmt,isa 1
    1217 0000000a 2000              MOVS      A1, #0                ; [DPU_V7M3_PIPE] |328|  ; [ORIG 16-BIT INS]
    1218                    $C$DW$86        .dwtag  DW_TAG_TI_branch
    1219                            .dwattr $C$DW$86, DW_AT_low_pc(0x00)
    1220                            .dwattr $C$DW$86, DW_AT_TI_return
    1221                    
    1222 0000000c BD10              POP       {V1, PC}              ; [DPU_V7M3_PIPE]  ; [ORIG 16-BIT INS]
    1223                            .dwcfi  cfa_offset, 0
    1224                            .dwcfi  restore_reg, 4
    1225                            ; BRANCH OCCURS                  ; [] 
    1226                            .dwattr $C$DW$82, DW_AT_TI_end_file("../Application/ICall/icall_cc2650.c")
    1227                            .dwattr $C$DW$82, DW_AT_TI_end_line(0x149)
    1228                            .dwattr $C$DW$82, DW_AT_TI_end_column(0x01)
    1229                            .dwendentry
    1230                            .dwendtag $C$DW$82
    1231                    
    1232 00000000                   .sect   ".text:ICallPlatform_pwrGetXOSCStartupTime"
    1233                            .clink
    1234                            .thumbfunc ICallPlatform_pwrGetXOSCStartupTime
    1235 00000000                   .thumb
    1236                            .global ICallPlatform_pwrGetXOSCStartupTime
    1237                    
    1238                    $C$DW$87        .dwtag  DW_TAG_subprogram
    1239                            .dwattr $C$DW$87, DW_AT_name("ICallPlatform_pwrGetXOSCStartupTime")
    1240                            .dwattr $C$DW$87, DW_AT_low_pc(ICallPlatform_pwrGetXOSCStartupTime)
    1241                            .dwattr $C$DW$87, DW_AT_high_pc(0x00)
    1242                            .dwattr $C$DW$87, DW_AT_TI_symbol_name("ICallPlatform_pwrGetXOSCStartupTime")
    1243                            .dwattr $C$DW$87, DW_AT_external
    1244                            .dwattr $C$DW$87, DW_AT_type(*$C$DW$T$99)
    1245                            .dwattr $C$DW$87, DW_AT_TI_begin_file("../Application/ICall/icall_cc2650.c")
    1246                            .dwattr $C$DW$87, DW_AT_TI_begin_line(0x15d)
    1247                            .dwattr $C$DW$87, DW_AT_TI_begin_column(0x01)
    1248                            .dwattr $C$DW$87, DW_AT_decl_file("../Application/ICall/icall_cc2650.c")
    1249                            .dwattr $C$DW$87, DW_AT_decl_line(0x15d)
    1250                            .dwattr $C$DW$87, DW_AT_decl_column(0x01)
    1251                            .dwattr $C$DW$87, DW_AT_TI_max_frame_size(0x08)
    1252                            .dwpsn  file "../Application/ICall/icall_cc2650.c",line 350,column 1,is_stmt,address ICallPlat
    1253                    
    1254                            .dwfde $C$DW$CIE, ICallPlatform_pwrGetXOSCStartupTime
    1255                    $C$DW$88        .dwtag  DW_TAG_formal_parameter
    1256                            .dwattr $C$DW$88, DW_AT_name("args")
    1257                            .dwattr $C$DW$88, DW_AT_TI_symbol_name("args")
    1258                            .dwattr $C$DW$88, DW_AT_type(*$C$DW$T$261)
    1259                            .dwattr $C$DW$88, DW_AT_location[DW_OP_reg0]
    1260                    
    1261                    
    1262                    ;*****************************************************************************
    1263                    ;* FUNCTION NAME: ICallPlatform_pwrGetXOSCStartupTime                        *
    1264                    ;*                                                                           *
    1265                    ;*   Regs Modified     : A1,A2,A3,A4,V1,V9,SP,LR,SR                          *
TI ARM Assembler PC v18.1.1 Wed Apr 25 09:49:01 2018

Tools Copyright (c) 1996-2017 Texas Instruments Incorporated
C:\Users\devops\AppData\Local\Temp\2\{EAE5C80A-95F4-4830-8AD5-3F5837318C3E} PAGE   24

    1266                    ;*   Regs Used         : A1,A2,A3,A4,V1,V9,SP,LR,SR                          *
    1267                    ;*   Local Frame Size  : 0 Args + 0 Auto + 8 Save = 8 byte                   *
    1268                    ;*****************************************************************************
    1269                    ICallPlatform_pwrGetXOSCStartupTime:
    1270                    ;* --------------------------------------------------------------------------*
    1271                    ;* V1    assigned to args
    1272                    $C$DW$89        .dwtag  DW_TAG_variable
    1273                            .dwattr $C$DW$89, DW_AT_name("args")
    1274                            .dwattr $C$DW$89, DW_AT_TI_symbol_name("args")
    1275                            .dwattr $C$DW$89, DW_AT_type(*$C$DW$T$390)
    1276                            .dwattr $C$DW$89, DW_AT_location[DW_OP_reg4]
    1277                    
    1278                            .dwcfi  cfa_offset, 0
    1279 00000000 B510              PUSH      {V1, LR}              ; [DPU_V7M3_PIPE]  ; [ORIG 16-BIT INS]
    1280                            .dwcfi  cfa_offset, 8
    1281                            .dwcfi  save_reg_to_mem, 14, -4
    1282                            .dwcfi  save_reg_to_mem, 4, -8
    1283 00000002 4604              MOV       V1, A1                ; [DPU_V7M3_PIPE] |350|  ; [ORIG 16-BIT INS]
    1284                            .dwpsn  file "../Application/ICall/icall_cc2650.c",line 351,column 3,is_stmt,isa 1
    1285 00000004 6860              LDR       A1, [V1, #4]          ; [DPU_V7M3_PIPE] |351|  ; [ORIG 16-BIT INS]
    1286                    $C$DW$90        .dwtag  DW_TAG_TI_branch
    1287                            .dwattr $C$DW$90, DW_AT_low_pc(0x00)
    1288                            .dwattr $C$DW$90, DW_AT_name("PowerCC26XX_getXoscStartupTime")
    1289                            .dwattr $C$DW$90, DW_AT_TI_call
    1290                    
    1291 00000006 FFFEF7FF!         BL        PowerCC26XX_getXoscStartupTime ; [DPU_V7M3_PIPE] |351|  ; [KEEP 32-BIT INS]
    1292                            ; CALL OCCURS {PowerCC26XX_getXoscStartupTime }  ; [] |351| 
    1293 0000000a 60A0              STR       A1, [V1, #8]          ; [DPU_V7M3_PIPE] |351|  ; [ORIG 16-BIT INS]
    1294                            .dwpsn  file "../Application/ICall/icall_cc2650.c",line 352,column 3,is_stmt,isa 1
    1295 0000000c 2000              MOVS      A1, #0                ; [DPU_V7M3_PIPE] |352|  ; [ORIG 16-BIT INS]
    1296                    $C$DW$91        .dwtag  DW_TAG_TI_branch
    1297                            .dwattr $C$DW$91, DW_AT_low_pc(0x00)
    1298                            .dwattr $C$DW$91, DW_AT_TI_return
    1299                    
    1300 0000000e BD10              POP       {V1, PC}              ; [DPU_V7M3_PIPE]  ; [ORIG 16-BIT INS]
    1301                            .dwcfi  cfa_offset, 0
    1302                            .dwcfi  restore_reg, 4
    1303                            ; BRANCH OCCURS                  ; [] 
    1304                            .dwattr $C$DW$87, DW_AT_TI_end_file("../Application/ICall/icall_cc2650.c")
    1305                            .dwattr $C$DW$87, DW_AT_TI_end_line(0x161)
    1306                            .dwattr $C$DW$87, DW_AT_TI_end_column(0x01)
    1307                            .dwendentry
    1308                            .dwendtag $C$DW$87
    1309                    
    1310 00000000                   .sect   ".text:ICallPlatform_pwrGetTransitionState"
    1311                            .clink
    1312                            .thumbfunc ICallPlatform_pwrGetTransitionState
    1313 00000000                   .thumb
    1314                            .global ICallPlatform_pwrGetTransitionState
    1315                    
    1316                    $C$DW$92        .dwtag  DW_TAG_subprogram
    1317                            .dwattr $C$DW$92, DW_AT_name("ICallPlatform_pwrGetTransitionState")
    1318                            .dwattr $C$DW$92, DW_AT_low_pc(ICallPlatform_pwrGetTransitionState)
    1319                            .dwattr $C$DW$92, DW_AT_high_pc(0x00)
    1320                            .dwattr $C$DW$92, DW_AT_TI_symbol_name("ICallPlatform_pwrGetTransitionState")
TI ARM Assembler PC v18.1.1 Wed Apr 25 09:49:01 2018

Tools Copyright (c) 1996-2017 Texas Instruments Incorporated
C:\Users\devops\AppData\Local\Temp\2\{EAE5C80A-95F4-4830-8AD5-3F5837318C3E} PAGE   25

    1321                            .dwattr $C$DW$92, DW_AT_external
    1322                            .dwattr $C$DW$92, DW_AT_type(*$C$DW$T$99)
    1323                            .dwattr $C$DW$92, DW_AT_TI_begin_file("../Application/ICall/icall_cc2650.c")
    1324                            .dwattr $C$DW$92, DW_AT_TI_begin_line(0x155)
    1325                            .dwattr $C$DW$92, DW_AT_TI_begin_column(0x01)
    1326                            .dwattr $C$DW$92, DW_AT_decl_file("../Application/ICall/icall_cc2650.c")
    1327                            .dwattr $C$DW$92, DW_AT_decl_line(0x155)
    1328                            .dwattr $C$DW$92, DW_AT_decl_column(0x01)
    1329                            .dwattr $C$DW$92, DW_AT_TI_max_frame_size(0x08)
    1330                            .dwpsn  file "../Application/ICall/icall_cc2650.c",line 342,column 1,is_stmt,address ICallPlat
    1331                    
    1332                            .dwfde $C$DW$CIE, ICallPlatform_pwrGetTransitionState
    1333                    $C$DW$93        .dwtag  DW_TAG_formal_parameter
    1334                            .dwattr $C$DW$93, DW_AT_name("args")
    1335                            .dwattr $C$DW$93, DW_AT_TI_symbol_name("args")
    1336                            .dwattr $C$DW$93, DW_AT_type(*$C$DW$T$258)
    1337                            .dwattr $C$DW$93, DW_AT_location[DW_OP_reg0]
    1338                    
    1339                    
    1340                    ;*****************************************************************************
    1341                    ;* FUNCTION NAME: ICallPlatform_pwrGetTransitionState                        *
    1342                    ;*                                                                           *
    1343                    ;*   Regs Modified     : A1,A2,A3,A4,V1,V9,SP,LR,SR                          *
    1344                    ;*   Regs Used         : A1,A2,A3,A4,V1,V9,SP,LR,SR                          *
    1345                    ;*   Local Frame Size  : 0 Args + 0 Auto + 8 Save = 8 byte                   *
    1346                    ;*****************************************************************************
    1347                    ICallPlatform_pwrGetTransitionState:
    1348                    ;* --------------------------------------------------------------------------*
    1349                    ;* V1    assigned to args
    1350                    $C$DW$94        .dwtag  DW_TAG_variable
    1351                            .dwattr $C$DW$94, DW_AT_name("args")
    1352                            .dwattr $C$DW$94, DW_AT_TI_symbol_name("args")
    1353                            .dwattr $C$DW$94, DW_AT_type(*$C$DW$T$387)
    1354                            .dwattr $C$DW$94, DW_AT_location[DW_OP_reg4]
    1355                    
    1356                            .dwcfi  cfa_offset, 0
    1357 00000000 B510              PUSH      {V1, LR}              ; [DPU_V7M3_PIPE]  ; [ORIG 16-BIT INS]
    1358                            .dwcfi  cfa_offset, 8
    1359                            .dwcfi  save_reg_to_mem, 14, -4
    1360                            .dwcfi  save_reg_to_mem, 4, -8
    1361 00000002 4604              MOV       V1, A1                ; [DPU_V7M3_PIPE] |342|  ; [ORIG 16-BIT INS]
    1362                            .dwpsn  file "../Application/ICall/icall_cc2650.c",line 343,column 3,is_stmt,isa 1
    1363                    $C$DW$95        .dwtag  DW_TAG_TI_branch
    1364                            .dwattr $C$DW$95, DW_AT_low_pc(0x00)
    1365                            .dwattr $C$DW$95, DW_AT_name("Power_getTransitionState")
    1366                            .dwattr $C$DW$95, DW_AT_TI_call
    1367                    
    1368 00000004 FFFEF7FF!         BL        Power_getTransitionState ; [DPU_V7M3_PIPE] |343|  ; [KEEP 32-BIT INS]
    1369                            ; CALL OCCURS {Power_getTransitionState }  ; [] |343| 
    1370 00000008 6060              STR       A1, [V1, #4]          ; [DPU_V7M3_PIPE] |343|  ; [ORIG 16-BIT INS]
    1371                            .dwpsn  file "../Application/ICall/icall_cc2650.c",line 344,column 3,is_stmt,isa 1
    1372 0000000a 2000              MOVS      A1, #0                ; [DPU_V7M3_PIPE] |344|  ; [ORIG 16-BIT INS]
    1373                    $C$DW$96        .dwtag  DW_TAG_TI_branch
    1374                            .dwattr $C$DW$96, DW_AT_low_pc(0x00)
    1375                            .dwattr $C$DW$96, DW_AT_TI_return
TI ARM Assembler PC v18.1.1 Wed Apr 25 09:49:01 2018

Tools Copyright (c) 1996-2017 Texas Instruments Incorporated
C:\Users\devops\AppData\Local\Temp\2\{EAE5C80A-95F4-4830-8AD5-3F5837318C3E} PAGE   26

    1376                    
    1377 0000000c BD10              POP       {V1, PC}              ; [DPU_V7M3_PIPE]  ; [ORIG 16-BIT INS]
    1378                            .dwcfi  cfa_offset, 0
    1379                            .dwcfi  restore_reg, 4
    1380                            ; BRANCH OCCURS                  ; [] 
    1381                            .dwattr $C$DW$92, DW_AT_TI_end_file("../Application/ICall/icall_cc2650.c")
    1382                            .dwattr $C$DW$92, DW_AT_TI_end_line(0x159)
    1383                            .dwattr $C$DW$92, DW_AT_TI_end_column(0x01)
    1384                            .dwendentry
    1385                            .dwendtag $C$DW$92
    1386                    
    1387 00000000                   .sect   ".text:ICallPlatform_pwrDispense"
    1388                            .clink
    1389                            .thumbfunc ICallPlatform_pwrDispense
    1390 00000000                   .thumb
    1391                            .global ICallPlatform_pwrDispense
    1392                    
    1393                    $C$DW$97        .dwtag  DW_TAG_subprogram
    1394                            .dwattr $C$DW$97, DW_AT_name("ICallPlatform_pwrDispense")
    1395                            .dwattr $C$DW$97, DW_AT_low_pc(ICallPlatform_pwrDispense)
    1396                            .dwattr $C$DW$97, DW_AT_high_pc(0x00)
    1397                            .dwattr $C$DW$97, DW_AT_TI_symbol_name("ICallPlatform_pwrDispense")
    1398                            .dwattr $C$DW$97, DW_AT_external
    1399                            .dwattr $C$DW$97, DW_AT_type(*$C$DW$T$99)
    1400                            .dwattr $C$DW$97, DW_AT_TI_begin_file("../Application/ICall/icall_cc2650.c")
    1401                            .dwattr $C$DW$97, DW_AT_TI_begin_line(0x111)
    1402                            .dwattr $C$DW$97, DW_AT_TI_begin_column(0x01)
    1403                            .dwattr $C$DW$97, DW_AT_decl_file("../Application/ICall/icall_cc2650.c")
    1404                            .dwattr $C$DW$97, DW_AT_decl_line(0x111)
    1405                            .dwattr $C$DW$97, DW_AT_decl_column(0x01)
    1406                            .dwattr $C$DW$97, DW_AT_TI_max_frame_size(0x08)
    1407                            .dwpsn  file "../Application/ICall/icall_cc2650.c",line 274,column 1,is_stmt,address ICallPlat
    1408                    
    1409                            .dwfde $C$DW$CIE, ICallPlatform_pwrDispense
    1410                    $C$DW$98        .dwtag  DW_TAG_formal_parameter
    1411                            .dwattr $C$DW$98, DW_AT_name("args")
    1412                            .dwattr $C$DW$98, DW_AT_TI_symbol_name("args")
    1413                            .dwattr $C$DW$98, DW_AT_type(*$C$DW$T$248)
    1414                            .dwattr $C$DW$98, DW_AT_location[DW_OP_reg0]
    1415                    
    1416                    
    1417                    ;*****************************************************************************
    1418                    ;* FUNCTION NAME: ICallPlatform_pwrDispense                                  *
    1419                    ;*                                                                           *
    1420                    ;*   Regs Modified     : A1,A2,A3,A4,V9,SP,LR,SR                             *
    1421                    ;*   Regs Used         : A1,A2,A3,A4,V9,SP,LR,SR                             *
    1422                    ;*   Local Frame Size  : 0 Args + 0 Auto + 4 Save = 4 byte                   *
    1423                    ;*****************************************************************************
    1424                    ICallPlatform_pwrDispense:
    1425                    ;* --------------------------------------------------------------------------*
    1426                    ;* A1    assigned to $O$C1
    1427                    ;* A1    assigned to args
    1428                    $C$DW$99        .dwtag  DW_TAG_variable
    1429                            .dwattr $C$DW$99, DW_AT_name("args")
    1430                            .dwattr $C$DW$99, DW_AT_TI_symbol_name("args")
TI ARM Assembler PC v18.1.1 Wed Apr 25 09:49:01 2018

Tools Copyright (c) 1996-2017 Texas Instruments Incorporated
C:\Users\devops\AppData\Local\Temp\2\{EAE5C80A-95F4-4830-8AD5-3F5837318C3E} PAGE   27

    1431                            .dwattr $C$DW$99, DW_AT_type(*$C$DW$T$384)
    1432                            .dwattr $C$DW$99, DW_AT_location[DW_OP_reg0]
    1433                    
    1434                            .dwcfi  cfa_offset, 0
    1435 00000000 B508              PUSH      {A4, LR}              ; [DPU_V7M3_PIPE]  ; [ORIG 16-BIT INS]
    1436                            .dwcfi  cfa_offset, 8
    1437                            .dwcfi  save_reg_to_mem, 14, -4
    1438                            .dwcfi  save_reg_to_mem, 3, -8
    1439                            .dwpsn  file "../Application/ICall/icall_cc2650.c",line 275,column 3,is_stmt,isa 1
    1440 00000002 6840              LDR       A1, [A1, #4]          ; [DPU_V7M3_PIPE] |275|  ; [ORIG 16-BIT INS]
    1441 00000004 4F7FF010          TST       A1, #-16777216        ; [DPU_V7M3_PIPE] |275|  ; [KEEP 32-BIT INS]
    1442 00000008 BF18              IT        NE                    ; [DPU_V7M3_PIPE]  ; [ORIG 16-BIT INS]
    1443                            .dwpsn  file "../Application/ICall/icall_cc2650.c",line 277,column 5,is_stmt,isa 1
    1444 0000000a 0002F06F          MVNNE     A1, #2                ; [DPU_V7M3_PIPE] |277|  ; [KEEP 32-BIT INS]
    1445 0000000e D102              BNE       ||$C$L21||            ; [DPU_V7M3_PIPE] |277|  ; [ORIG 16-BIT INS]
    1446                            ; BRANCHCC OCCURS {||$C$L21||}   ; [] |277| 
    1447                    ;* --------------------------------------------------------------------------*
    1448                            .dwpsn  file "../Application/ICall/icall_cc2650.c",line 280,column 3,is_stmt,isa 1
    1449                    $C$DW$100       .dwtag  DW_TAG_TI_branch
    1450                            .dwattr $C$DW$100, DW_AT_low_pc(0x00)
    1451                            .dwattr $C$DW$100, DW_AT_name("ICallPlatform_pwrDispenseImpl")
    1452                            .dwattr $C$DW$100, DW_AT_TI_call
    1453                    
    1454 00000010 FFFEF7FF!         BL        ICallPlatform_pwrDispenseImpl ; [DPU_V7M3_PIPE] |280|  ; [KEEP 32-BIT INS]
    1455                            ; CALL OCCURS {ICallPlatform_pwrDispenseImpl }  ; [] |280| 
    1456                            .dwpsn  file "../Application/ICall/icall_cc2650.c",line 282,column 3,is_stmt,isa 1
    1457 00000014 2000              MOVS      A1, #0                ; [DPU_V7M3_PIPE] |282|  ; [ORIG 16-BIT INS]
    1458                    ;* --------------------------------------------------------------------------*
    1459                    ||$C$L21||:    
    1460                    $C$DW$101       .dwtag  DW_TAG_TI_branch
    1461                            .dwattr $C$DW$101, DW_AT_low_pc(0x00)
    1462                            .dwattr $C$DW$101, DW_AT_TI_return
    1463                    
    1464 00000016 BD08              POP       {A4, PC}              ; [DPU_V7M3_PIPE]  ; [ORIG 16-BIT INS]
    1465                            .dwcfi  cfa_offset, 0
    1466                            .dwcfi  restore_reg, 3
    1467                            ; BRANCH OCCURS                  ; [] 
    1468                            .dwattr $C$DW$97, DW_AT_TI_end_file("../Application/ICall/icall_cc2650.c")
    1469                            .dwattr $C$DW$97, DW_AT_TI_end_line(0x11b)
    1470                            .dwattr $C$DW$97, DW_AT_TI_end_column(0x01)
    1471                            .dwendentry
    1472                            .dwendtag $C$DW$97
    1473                    
    1474 00000000                   .sect   ".text:ICallPlatform_pwrConfigACAction"
    1475                            .clink
    1476                            .thumbfunc ICallPlatform_pwrConfigACAction
    1477 00000000                   .thumb
    1478                            .global ICallPlatform_pwrConfigACAction
    1479                    
    1480                    $C$DW$102       .dwtag  DW_TAG_subprogram
    1481                            .dwattr $C$DW$102, DW_AT_name("ICallPlatform_pwrConfigACAction")
    1482                            .dwattr $C$DW$102, DW_AT_low_pc(ICallPlatform_pwrConfigACAction)
    1483                            .dwattr $C$DW$102, DW_AT_high_pc(0x00)
    1484                            .dwattr $C$DW$102, DW_AT_TI_symbol_name("ICallPlatform_pwrConfigACAction")
    1485                            .dwattr $C$DW$102, DW_AT_external
TI ARM Assembler PC v18.1.1 Wed Apr 25 09:49:01 2018

Tools Copyright (c) 1996-2017 Texas Instruments Incorporated
C:\Users\devops\AppData\Local\Temp\2\{EAE5C80A-95F4-4830-8AD5-3F5837318C3E} PAGE   28

    1486                            .dwattr $C$DW$102, DW_AT_type(*$C$DW$T$99)
    1487                            .dwattr $C$DW$102, DW_AT_TI_begin_file("../Application/ICall/icall_cc2650.c")
    1488                            .dwattr $C$DW$102, DW_AT_TI_begin_line(0xe9)
    1489                            .dwattr $C$DW$102, DW_AT_TI_begin_column(0x01)
    1490                            .dwattr $C$DW$102, DW_AT_decl_file("../Application/ICall/icall_cc2650.c")
    1491                            .dwattr $C$DW$102, DW_AT_decl_line(0xe9)
    1492                            .dwattr $C$DW$102, DW_AT_decl_column(0x01)
    1493                            .dwattr $C$DW$102, DW_AT_TI_max_frame_size(0x10)
    1494                            .dwpsn  file "../Application/ICall/icall_cc2650.c",line 234,column 1,is_stmt,address ICallPlat
    1495                    
    1496                            .dwfde $C$DW$CIE, ICallPlatform_pwrConfigACAction
    1497                    $C$DW$103       .dwtag  DW_TAG_formal_parameter
    1498                            .dwattr $C$DW$103, DW_AT_name("args")
    1499                            .dwattr $C$DW$103, DW_AT_TI_symbol_name("args")
    1500                            .dwattr $C$DW$103, DW_AT_type(*$C$DW$T$248)
    1501                            .dwattr $C$DW$103, DW_AT_location[DW_OP_reg0]
    1502                    
    1503                    
    1504                    ;*****************************************************************************
    1505                    ;* FUNCTION NAME: ICallPlatform_pwrConfigACAction                            *
    1506                    ;*                                                                           *
    1507                    ;*   Regs Modified     : A1,A2,A3,A4,V1,V2,V3,V9,SP,LR,SR                    *
    1508                    ;*   Regs Used         : A1,A2,A3,A4,V1,V2,V3,V9,SP,LR,SR                    *
    1509                    ;*   Local Frame Size  : 0 Args + 0 Auto + 16 Save = 16 byte                 *
    1510                    ;*****************************************************************************
    1511                    ICallPlatform_pwrConfigACAction:
    1512                    ;* --------------------------------------------------------------------------*
    1513                    ;* V2    assigned to $O$K13
    1514                    ;* V1    assigned to args
    1515                    $C$DW$104       .dwtag  DW_TAG_variable
    1516                            .dwattr $C$DW$104, DW_AT_name("args")
    1517                            .dwattr $C$DW$104, DW_AT_TI_symbol_name("args")
    1518                            .dwattr $C$DW$104, DW_AT_type(*$C$DW$T$384)
    1519                            .dwattr $C$DW$104, DW_AT_location[DW_OP_reg4]
    1520                    
    1521                    ;* V3    assigned to state
    1522                    $C$DW$105       .dwtag  DW_TAG_variable
    1523                            .dwattr $C$DW$105, DW_AT_name("state")
    1524                            .dwattr $C$DW$105, DW_AT_TI_symbol_name("state")
    1525                            .dwattr $C$DW$105, DW_AT_type(*$C$DW$T$141)
    1526                            .dwattr $C$DW$105, DW_AT_location[DW_OP_reg6]
    1527                    
    1528                            .dwcfi  cfa_offset, 0
    1529 00000000 B570              PUSH      {V1, V2, V3, LR}      ; [DPU_V7M3_PIPE]  ; [ORIG 16-BIT INS]
    1530                            .dwcfi  cfa_offset, 16
    1531                            .dwcfi  save_reg_to_mem, 14, -4
    1532                            .dwcfi  save_reg_to_mem, 6, -8
    1533                            .dwcfi  save_reg_to_mem, 5, -12
    1534                            .dwcfi  save_reg_to_mem, 4, -16
    1535 00000002 4604              MOV       V1, A1                ; [DPU_V7M3_PIPE] |234|  ; [ORIG 16-BIT INS]
    1536                            .dwpsn  file "../Application/ICall/icall_cc2650.c",line 237,column 3,is_stmt,isa 1
    1537 00000004 6860              LDR       A1, [V1, #4]          ; [DPU_V7M3_PIPE] |237|  ; [ORIG 16-BIT INS]
    1538 00000006 4F7FF010          TST       A1, #-16777216        ; [DPU_V7M3_PIPE] |237|  ; [KEEP 32-BIT INS]
    1539 0000000a BF18              IT        NE                    ; [DPU_V7M3_PIPE]  ; [ORIG 16-BIT INS]
    1540                            .dwpsn  file "../Application/ICall/icall_cc2650.c",line 239,column 5,is_stmt,isa 1
TI ARM Assembler PC v18.1.1 Wed Apr 25 09:49:01 2018

Tools Copyright (c) 1996-2017 Texas Instruments Incorporated
C:\Users\devops\AppData\Local\Temp\2\{EAE5C80A-95F4-4830-8AD5-3F5837318C3E} PAGE   29

    1541 0000000c 0002F06F          MVNNE     A1, #2                ; [DPU_V7M3_PIPE] |239|  ; [KEEP 32-BIT INS]
    1542 00000010 D111              BNE       ||$C$L23||            ; [DPU_V7M3_PIPE] |239|  ; [ORIG 16-BIT INS]
    1543                            ; BRANCHCC OCCURS {||$C$L23||}   ; [] |239| 
    1544                    ;* --------------------------------------------------------------------------*
    1545                            .dwpsn  file "../Application/ICall/icall_cc2650.c",line 242,column 3,is_stmt,isa 1
    1546                    $C$DW$106       .dwtag  DW_TAG_TI_branch
    1547                            .dwattr $C$DW$106, DW_AT_low_pc(0x00)
    1548                            .dwattr $C$DW$106, DW_AT_name("ICall_enterCSImpl")
    1549                            .dwattr $C$DW$106, DW_AT_TI_call
    1550                    
    1551 00000012 FFFEF7FF!         BL        ICall_enterCSImpl     ; [DPU_V7M3_PIPE] |242|  ; [KEEP 32-BIT INS]
    1552                            ; CALL OCCURS {ICall_enterCSImpl }  ; [] |242| 
    1553                            .dwpsn  file "../Application/ICall/icall_cc2650.c",line 244,column 3,is_stmt,isa 1
    1554 00000016 4D08              LDR       V2, $C$CON4           ; [DPU_V7M3_PIPE] |244|  ; [ORIG 16-BIT INS]
    1555                            .dwpsn  file "../Application/ICall/icall_cc2650.c",line 242,column 3,is_stmt,isa 1
    1556 00000018 4606              MOV       V3, A1                ; [DPU_V7M3_PIPE] |242|  ; [ORIG 16-BIT INS]
    1557                            .dwpsn  file "../Application/ICall/icall_cc2650.c",line 244,column 3,is_stmt,isa 1
    1558 0000001a 7828              LDRB      A1, [V2, #0]          ; [DPU_V7M3_PIPE] |244|  ; [ORIG 16-BIT INS]
    1559 0000001c B128              CBZ       A1, ||$C$L22||        ; []  ; [ORIG 16-BIT INS]
    1560                            ; BRANCHCC OCCURS {||$C$L22||}   ; [] |244| 
    1561                    ;* --------------------------------------------------------------------------*
    1562                            .dwpsn  file "../Application/ICall/icall_cc2650.c",line 247,column 5,is_stmt,isa 1
    1563 0000001e 6868              LDR       A1, [V2, #4]          ; [DPU_V7M3_PIPE] |247|  ; [ORIG 16-BIT INS]
    1564                    $C$DW$107       .dwtag  DW_TAG_TI_branch
    1565                            .dwattr $C$DW$107, DW_AT_low_pc(0x00)
    1566                            .dwattr $C$DW$107, DW_AT_name("ICallPlatform_pwrDispenseImpl")
    1567                            .dwattr $C$DW$107, DW_AT_TI_call
    1568                    
    1569 00000020 FFFEF7FF!         BL        ICallPlatform_pwrDispenseImpl ; [DPU_V7M3_PIPE] |247|  ; [KEEP 32-BIT INS]
    1570                            ; CALL OCCURS {ICallPlatform_pwrDispenseImpl }  ; [] |247| 
    1571                            .dwpsn  file "../Application/ICall/icall_cc2650.c",line 249,column 5,is_stmt,isa 1
    1572 00000024 6860              LDR       A1, [V1, #4]          ; [DPU_V7M3_PIPE] |249|  ; [ORIG 16-BIT INS]
    1573                    $C$DW$108       .dwtag  DW_TAG_TI_branch
    1574                            .dwattr $C$DW$108, DW_AT_low_pc(0x00)
    1575                            .dwattr $C$DW$108, DW_AT_name("ICallPlatform_pwrRequireImpl")
    1576                            .dwattr $C$DW$108, DW_AT_TI_call
    1577                    
    1578 00000026 FFFEF7FF!         BL        ICallPlatform_pwrRequireImpl ; [DPU_V7M3_PIPE] |249|  ; [KEEP 32-BIT INS]
    1579                            ; CALL OCCURS {ICallPlatform_pwrRequireImpl }  ; [] |249| 
    1580                    ;* --------------------------------------------------------------------------*
    1581 0000002a           ||$C$L22||:    
    1582                            .dwpsn  file "../Application/ICall/icall_cc2650.c",line 251,column 3,is_stmt,isa 1
    1583 0000002a 6860              LDR       A1, [V1, #4]          ; [DPU_V7M3_PIPE] |251|  ; [ORIG 16-BIT INS]
    1584 0000002c 6068              STR       A1, [V2, #4]          ; [DPU_V7M3_PIPE] |251|  ; [ORIG 16-BIT INS]
    1585                            .dwpsn  file "../Application/ICall/icall_cc2650.c",line 253,column 3,is_stmt,isa 1
    1586 0000002e 4630              MOV       A1, V3                ; [DPU_V7M3_PIPE] |253|  ; [ORIG 16-BIT INS]
    1587                    $C$DW$109       .dwtag  DW_TAG_TI_branch
    1588                            .dwattr $C$DW$109, DW_AT_low_pc(0x00)
    1589                            .dwattr $C$DW$109, DW_AT_name("ICall_leaveCSImpl")
    1590                            .dwattr $C$DW$109, DW_AT_TI_call
    1591                    
    1592 00000030 FFFEF7FF!         BL        ICall_leaveCSImpl     ; [DPU_V7M3_PIPE] |253|  ; [KEEP 32-BIT INS]
    1593                            ; CALL OCCURS {ICall_leaveCSImpl }  ; [] |253| 
    1594                            .dwpsn  file "../Application/ICall/icall_cc2650.c",line 254,column 3,is_stmt,isa 1
    1595 00000034 2000              MOVS      A1, #0                ; [DPU_V7M3_PIPE] |254|  ; [ORIG 16-BIT INS]
TI ARM Assembler PC v18.1.1 Wed Apr 25 09:49:01 2018

Tools Copyright (c) 1996-2017 Texas Instruments Incorporated
C:\Users\devops\AppData\Local\Temp\2\{EAE5C80A-95F4-4830-8AD5-3F5837318C3E} PAGE   30

    1596                    ;* --------------------------------------------------------------------------*
    1597                    ||$C$L23||:    
    1598                    $C$DW$110       .dwtag  DW_TAG_TI_branch
    1599                            .dwattr $C$DW$110, DW_AT_low_pc(0x00)
    1600                            .dwattr $C$DW$110, DW_AT_TI_return
    1601                    
    1602 00000036 BD70              POP       {V1, V2, V3, PC}      ; [DPU_V7M3_PIPE]  ; [ORIG 16-BIT INS]
    1603                            .dwcfi  cfa_offset, 0
    1604                            .dwcfi  restore_reg, 6
    1605                            .dwcfi  restore_reg, 5
    1606                            .dwcfi  restore_reg, 4
    1607                            ; BRANCH OCCURS                  ; [] 
    1608                            .dwattr $C$DW$102, DW_AT_TI_end_file("../Application/ICall/icall_cc2650.c")
    1609                            .dwattr $C$DW$102, DW_AT_TI_end_line(0xff)
    1610                            .dwattr $C$DW$102, DW_AT_TI_end_column(0x01)
    1611                            .dwendentry
    1612                            .dwendtag $C$DW$102
    1613                    
    1614                    ;******************************************************************************
    1615                    ;* CONSTANT TABLE                                                             *
    1616                    ;******************************************************************************
    1617 00000070                   .sect   ".text:ICallPlatform_pwrUpdActivityCounter"
    1618                            .align  4
    1619 00000070 00000000! ||$C$CON1||:    .bits   ||$O1$$||,32
    1620                    ;******************************************************************************
    1621                    ;* CONSTANT TABLE                                                             *
    1622                    ;******************************************************************************
    1623 00000028                   .sect   ".text:ICallPlatform_pwrRegisterNotify"
    1624                            .align  4
    1625 00000028 00000000! ||$C$CON2||:    .bits   events$1,32
    1626                            .align  4
    1627 0000002c 00000000! ||$C$CON3||:    .bits   ICallPlatform_pwrNotify,32
    1628                    ;******************************************************************************
    1629                    ;* CONSTANT TABLE                                                             *
    1630                    ;******************************************************************************
    1631 00000038                   .sect   ".text:ICallPlatform_pwrConfigACAction"
    1632                            .align  4
    1633 00000038 00000000! ||$C$CON4||:    .bits   ||$O1$$||,32
    1634                    ;*****************************************************************************
    1635                    ;* UNDEFINED EXTERNAL REFERENCES                                             *
    1636                    ;*****************************************************************************
    1637                            .global halAssertHandler
    1638                            .global Power_setConstraint
    1639                            .global Power_setDependency
    1640                            .global Power_releaseConstraint
    1641                            .global Power_releaseDependency
    1642                            .global ICall_enterCSImpl
    1643                            .global ICall_leaveCSImpl
    1644                            .global ICall_mallocImpl
    1645                            .global Power_registerNotify
    1646                            .global PowerCC26XX_isStableXOSC_HF
    1647                            .global PowerCC26XX_switchXOSC_HF
    1648                            .global Power_getTransitionState
    1649                            .global PowerCC26XX_getXoscStartupTime
    1650                    
TI ARM Assembler PC v18.1.1 Wed Apr 25 09:49:01 2018

Tools Copyright (c) 1996-2017 Texas Instruments Incorporated
C:\Users\devops\AppData\Local\Temp\2\{EAE5C80A-95F4-4830-8AD5-3F5837318C3E} PAGE   31

    1651                    ;******************************************************************************
    1652                    ;* BUILD ATTRIBUTES                                                           *
    1653                    ;******************************************************************************
    1654                            .battr "aeabi", Tag_File, 1, Tag_ABI_PCS_wchar_t(2)
    1655                            .battr "aeabi", Tag_File, 1, Tag_ABI_FP_rounding(0)
    1656                            .battr "aeabi", Tag_File, 1, Tag_ABI_FP_denormal(0)
    1657                            .battr "aeabi", Tag_File, 1, Tag_ABI_FP_exceptions(0)
    1658                            .battr "aeabi", Tag_File, 1, Tag_ABI_FP_number_model(1)
    1659                            .battr "aeabi", Tag_File, 1, Tag_ABI_enum_size(1)
    1660                            .battr "aeabi", Tag_File, 1, Tag_ABI_optimization_goals(0)
    1661                            .battr "aeabi", Tag_File, 1, Tag_ABI_FP_optimization_goals(0)
    1662                            .battr "TI", Tag_File, 1, Tag_Bitfield_layout(2)
    1663                            .battr "aeabi", Tag_File, 1, Tag_ABI_VFP_args(3)
    1664                            .battr "TI", Tag_File, 1, Tag_FP_interface(1)
    1665                    
    1666                    ;******************************************************************************
    1667                    ;* TYPE INFORMATION                                                           *
    1668                    ;******************************************************************************
    1669                    
    1670                    $C$DW$T$169     .dwtag  DW_TAG_enumeration_type
    1671                            .dwattr $C$DW$T$169, DW_AT_byte_size(0x01)
    1672                    $C$DW$111       .dwtag  DW_TAG_enumerator
    1673                            .dwattr $C$DW$111, DW_AT_name("ICALL_RTI_APP_CMD_EVENT")
    1674                            .dwattr $C$DW$111, DW_AT_const_value(0xe0)
    1675                            .dwattr $C$DW$111, DW_AT_decl_file("C:\ti\simplelink_cc13x0_sdk_2_10_00_36\source\ti\ti154stac
    1676                            .dwattr $C$DW$111, DW_AT_decl_line(0x3de)
    1677                            .dwattr $C$DW$111, DW_AT_decl_column(0x04)
    1678                    
    1679                    $C$DW$112       .dwtag  DW_TAG_enumerator
    1680                            .dwattr $C$DW$112, DW_AT_name("ICALL_RTI_STACK_CMD_EVENT")
    1681                            .dwattr $C$DW$112, DW_AT_const_value(0xe1)
    1682                            .dwattr $C$DW$112, DW_AT_decl_file("C:\ti\simplelink_cc13x0_sdk_2_10_00_36\source\ti\ti154stac
    1683                            .dwattr $C$DW$112, DW_AT_decl_line(0x3e0)
    1684                            .dwattr $C$DW$112, DW_AT_decl_column(0x04)
    1685                    
    1686                    $C$DW$113       .dwtag  DW_TAG_enumerator
    1687                            .dwattr $C$DW$113, DW_AT_name("ICALL_RTI_APP_ASYNC_CMD_EVENT")
    1688                            .dwattr $C$DW$113, DW_AT_const_value(0xe2)
    1689                            .dwattr $C$DW$113, DW_AT_decl_file("C:\ti\simplelink_cc13x0_sdk_2_10_00_36\source\ti\ti154stac
    1690                            .dwattr $C$DW$113, DW_AT_decl_line(0x3e2)
    1691                            .dwattr $C$DW$113, DW_AT_decl_column(0x04)
    1692                    
    1693                    $C$DW$114       .dwtag  DW_TAG_enumerator
    1694                            .dwattr $C$DW$114, DW_AT_name("ICALL_RTI_APP_SYNC_CMD_EVENT")
    1695                            .dwattr $C$DW$114, DW_AT_const_value(0xe3)
    1696                            .dwattr $C$DW$114, DW_AT_decl_file("C:\ti\simplelink_cc13x0_sdk_2_10_00_36\source\ti\ti154stac
    1697                            .dwattr $C$DW$114, DW_AT_decl_line(0x3e4)
    1698                            .dwattr $C$DW$114, DW_AT_decl_column(0x04)
    1699                    
    1700                    $C$DW$115       .dwtag  DW_TAG_enumerator
    1701                            .dwattr $C$DW$115, DW_AT_name("ICALL_RCN_APP_ASYNC_CMD_EVENT")
    1702                            .dwattr $C$DW$115, DW_AT_const_value(0xe4)
    1703                            .dwattr $C$DW$115, DW_AT_decl_file("C:\ti\simplelink_cc13x0_sdk_2_10_00_36\source\ti\ti154stac
    1704                            .dwattr $C$DW$115, DW_AT_decl_line(0x3e6)
    1705                            .dwattr $C$DW$115, DW_AT_decl_column(0x04)
TI ARM Assembler PC v18.1.1 Wed Apr 25 09:49:01 2018

Tools Copyright (c) 1996-2017 Texas Instruments Incorporated
C:\Users\devops\AppData\Local\Temp\2\{EAE5C80A-95F4-4830-8AD5-3F5837318C3E} PAGE   32

    1706                    
    1707                    $C$DW$116       .dwtag  DW_TAG_enumerator
    1708                            .dwattr $C$DW$116, DW_AT_name("ICALL_RCN_APP_SYNC_CMD_EVENT")
    1709                            .dwattr $C$DW$116, DW_AT_const_value(0xe5)
    1710                            .dwattr $C$DW$116, DW_AT_decl_file("C:\ti\simplelink_cc13x0_sdk_2_10_00_36\source\ti\ti154stac
    1711                            .dwattr $C$DW$116, DW_AT_decl_line(0x3e8)
    1712                            .dwattr $C$DW$116, DW_AT_decl_column(0x04)
    1713                    
    1714                            .dwattr $C$DW$T$169, DW_AT_decl_file("C:\ti\simplelink_cc13x0_sdk_2_10_00_36\source\ti\ti154st
    1715                            .dwattr $C$DW$T$169, DW_AT_decl_line(0x3dc)
    1716                            .dwattr $C$DW$T$169, DW_AT_decl_column(0x01)
    1717                            .dwendtag $C$DW$T$169
    1718                    
    1719                    $C$DW$T$170     .dwtag  DW_TAG_typedef
    1720                            .dwattr $C$DW$T$170, DW_AT_name("ICall_RemotiCmdEvent_t")
    1721                            .dwattr $C$DW$T$170, DW_AT_type(*$C$DW$T$169)
    1722                            .dwattr $C$DW$T$170, DW_AT_language(DW_LANG_C)
    1723                            .dwattr $C$DW$T$170, DW_AT_decl_file("C:\ti\simplelink_cc13x0_sdk_2_10_00_36\source\ti\ti154st
    1724                            .dwattr $C$DW$T$170, DW_AT_decl_line(0x3e9)
    1725                            .dwattr $C$DW$T$170, DW_AT_decl_column(0x02)
    1726                    
    1727                    
    1728                    $C$DW$T$21      .dwtag  DW_TAG_structure_type
    1729                            .dwattr $C$DW$T$21, DW_AT_byte_size(0x10)
    1730                    $C$DW$117       .dwtag  DW_TAG_member
    1731                            .dwattr $C$DW$117, DW_AT_type(*$C$DW$T$14)
    1732                            .dwattr $C$DW$117, DW_AT_name("__max_align1")
    1733                            .dwattr $C$DW$117, DW_AT_TI_symbol_name("__max_align1")
    1734                            .dwattr $C$DW$117, DW_AT_data_member_location[DW_OP_plus_uconst 0x0]
    1735                            .dwattr $C$DW$117, DW_AT_accessibility(DW_ACCESS_public)
    1736                            .dwattr $C$DW$117, DW_AT_decl_file("C:/ti/ccsv8/tools/compiler/ti-cgt-arm_18.1.1.LTS/include/s
    1737                            .dwattr $C$DW$117, DW_AT_decl_line(0x70)
    1738                            .dwattr $C$DW$117, DW_AT_decl_column(0x0c)
    1739                    
    1740                    $C$DW$118       .dwtag  DW_TAG_member
    1741                            .dwattr $C$DW$118, DW_AT_type(*$C$DW$T$18)
    1742                            .dwattr $C$DW$118, DW_AT_name("__max_align2")
    1743                            .dwattr $C$DW$118, DW_AT_TI_symbol_name("__max_align2")
    1744                            .dwattr $C$DW$118, DW_AT_data_member_location[DW_OP_plus_uconst 0x8]
    1745                            .dwattr $C$DW$118, DW_AT_accessibility(DW_ACCESS_public)
    1746                            .dwattr $C$DW$118, DW_AT_decl_file("C:/ti/ccsv8/tools/compiler/ti-cgt-arm_18.1.1.LTS/include/s
    1747                            .dwattr $C$DW$118, DW_AT_decl_line(0x71)
    1748                            .dwattr $C$DW$118, DW_AT_decl_column(0x0e)
    1749                    
    1750                            .dwattr $C$DW$T$21, DW_AT_decl_file("C:/ti/ccsv8/tools/compiler/ti-cgt-arm_18.1.1.LTS/include/
    1751                            .dwattr $C$DW$T$21, DW_AT_decl_line(0x6f)
    1752                            .dwattr $C$DW$T$21, DW_AT_decl_column(0x10)
    1753                            .dwendtag $C$DW$T$21
    1754                    
    1755                    $C$DW$T$171     .dwtag  DW_TAG_typedef
    1756                            .dwattr $C$DW$T$171, DW_AT_name("__max_align_t")
    1757                            .dwattr $C$DW$T$171, DW_AT_type(*$C$DW$T$21)
    1758                            .dwattr $C$DW$T$171, DW_AT_language(DW_LANG_C)
    1759                            .dwattr $C$DW$T$171, DW_AT_decl_file("C:/ti/ccsv8/tools/compiler/ti-cgt-arm_18.1.1.LTS/include
    1760                            .dwattr $C$DW$T$171, DW_AT_decl_line(0x72)
TI ARM Assembler PC v18.1.1 Wed Apr 25 09:49:01 2018

Tools Copyright (c) 1996-2017 Texas Instruments Incorporated
C:\Users\devops\AppData\Local\Temp\2\{EAE5C80A-95F4-4830-8AD5-3F5837318C3E} PAGE   33

    1761                            .dwattr $C$DW$T$171, DW_AT_decl_column(0x03)
    1762                    
    1763                    
    1764                    $C$DW$T$22      .dwtag  DW_TAG_structure_type
    1765                            .dwattr $C$DW$T$22, DW_AT_byte_size(0x08)
    1766                    $C$DW$119       .dwtag  DW_TAG_member
    1767                            .dwattr $C$DW$119, DW_AT_type(*$C$DW$T$10)
    1768                            .dwattr $C$DW$119, DW_AT_name("quot")
    1769                            .dwattr $C$DW$119, DW_AT_TI_symbol_name("quot")
    1770                            .dwattr $C$DW$119, DW_AT_data_member_location[DW_OP_plus_uconst 0x0]
    1771                            .dwattr $C$DW$119, DW_AT_accessibility(DW_ACCESS_public)
    1772                            .dwattr $C$DW$119, DW_AT_decl_file("C:/ti/ccsv8/tools/compiler/ti-cgt-arm_18.1.1.LTS/include/s
    1773                            .dwattr $C$DW$119, DW_AT_decl_line(0x49)
    1774                            .dwattr $C$DW$119, DW_AT_decl_column(0x16)
    1775                    
    1776                    $C$DW$120       .dwtag  DW_TAG_member
    1777                            .dwattr $C$DW$120, DW_AT_type(*$C$DW$T$10)
    1778                            .dwattr $C$DW$120, DW_AT_name("rem")
    1779                            .dwattr $C$DW$120, DW_AT_TI_symbol_name("rem")
    1780                            .dwattr $C$DW$120, DW_AT_data_member_location[DW_OP_plus_uconst 0x4]
    1781                            .dwattr $C$DW$120, DW_AT_accessibility(DW_ACCESS_public)
    1782                            .dwattr $C$DW$120, DW_AT_decl_file("C:/ti/ccsv8/tools/compiler/ti-cgt-arm_18.1.1.LTS/include/s
    1783                            .dwattr $C$DW$120, DW_AT_decl_line(0x49)
    1784                            .dwattr $C$DW$120, DW_AT_decl_column(0x1c)
    1785                    
    1786                            .dwattr $C$DW$T$22, DW_AT_decl_file("C:/ti/ccsv8/tools/compiler/ti-cgt-arm_18.1.1.LTS/include/
    1787                            .dwattr $C$DW$T$22, DW_AT_decl_line(0x49)
    1788                            .dwattr $C$DW$T$22, DW_AT_decl_column(0x10)
    1789                            .dwendtag $C$DW$T$22
    1790                    
    1791                    $C$DW$T$172     .dwtag  DW_TAG_typedef
    1792                            .dwattr $C$DW$T$172, DW_AT_name("div_t")
    1793                            .dwattr $C$DW$T$172, DW_AT_type(*$C$DW$T$22)
    1794                            .dwattr $C$DW$T$172, DW_AT_language(DW_LANG_C)
    1795                            .dwattr $C$DW$T$172, DW_AT_decl_file("C:/ti/ccsv8/tools/compiler/ti-cgt-arm_18.1.1.LTS/include
    1796                            .dwattr $C$DW$T$172, DW_AT_decl_line(0x49)
    1797                            .dwattr $C$DW$T$172, DW_AT_decl_column(0x23)
    1798                    
    1799                    
    1800                    $C$DW$T$23      .dwtag  DW_TAG_structure_type
    1801                            .dwattr $C$DW$T$23, DW_AT_byte_size(0x08)
    1802                    $C$DW$121       .dwtag  DW_TAG_member
    1803                            .dwattr $C$DW$121, DW_AT_type(*$C$DW$T$10)
    1804                            .dwattr $C$DW$121, DW_AT_name("quot")
    1805                            .dwattr $C$DW$121, DW_AT_TI_symbol_name("quot")
    1806                            .dwattr $C$DW$121, DW_AT_data_member_location[DW_OP_plus_uconst 0x0]
    1807                            .dwattr $C$DW$121, DW_AT_accessibility(DW_ACCESS_public)
    1808                            .dwattr $C$DW$121, DW_AT_decl_file("C:/ti/ccsv8/tools/compiler/ti-cgt-arm_18.1.1.LTS/include/s
    1809                            .dwattr $C$DW$121, DW_AT_decl_line(0x4e)
    1810                            .dwattr $C$DW$121, DW_AT_decl_column(0x16)
    1811                    
    1812                    $C$DW$122       .dwtag  DW_TAG_member
    1813                            .dwattr $C$DW$122, DW_AT_type(*$C$DW$T$10)
    1814                            .dwattr $C$DW$122, DW_AT_name("rem")
    1815                            .dwattr $C$DW$122, DW_AT_TI_symbol_name("rem")
TI ARM Assembler PC v18.1.1 Wed Apr 25 09:49:01 2018

Tools Copyright (c) 1996-2017 Texas Instruments Incorporated
C:\Users\devops\AppData\Local\Temp\2\{EAE5C80A-95F4-4830-8AD5-3F5837318C3E} PAGE   34

    1816                            .dwattr $C$DW$122, DW_AT_data_member_location[DW_OP_plus_uconst 0x4]
    1817                            .dwattr $C$DW$122, DW_AT_accessibility(DW_ACCESS_public)
    1818                            .dwattr $C$DW$122, DW_AT_decl_file("C:/ti/ccsv8/tools/compiler/ti-cgt-arm_18.1.1.LTS/include/s
    1819                            .dwattr $C$DW$122, DW_AT_decl_line(0x4e)
    1820                            .dwattr $C$DW$122, DW_AT_decl_column(0x1c)
    1821                    
    1822                            .dwattr $C$DW$T$23, DW_AT_decl_file("C:/ti/ccsv8/tools/compiler/ti-cgt-arm_18.1.1.LTS/include/
    1823                            .dwattr $C$DW$T$23, DW_AT_decl_line(0x4e)
    1824                            .dwattr $C$DW$T$23, DW_AT_decl_column(0x10)
    1825                            .dwendtag $C$DW$T$23
    1826                    
    1827                    $C$DW$T$173     .dwtag  DW_TAG_typedef
    1828                            .dwattr $C$DW$T$173, DW_AT_name("ldiv_t")
    1829                            .dwattr $C$DW$T$173, DW_AT_type(*$C$DW$T$23)
    1830                            .dwattr $C$DW$T$173, DW_AT_language(DW_LANG_C)
    1831                            .dwattr $C$DW$T$173, DW_AT_decl_file("C:/ti/ccsv8/tools/compiler/ti-cgt-arm_18.1.1.LTS/include
    1832                            .dwattr $C$DW$T$173, DW_AT_decl_line(0x4e)
    1833                            .dwattr $C$DW$T$173, DW_AT_decl_column(0x23)
    1834                    
    1835                    
    1836                    $C$DW$T$24      .dwtag  DW_TAG_structure_type
    1837                            .dwattr $C$DW$T$24, DW_AT_byte_size(0x10)
    1838                    $C$DW$123       .dwtag  DW_TAG_member
    1839                            .dwattr $C$DW$123, DW_AT_type(*$C$DW$T$14)
    1840                            .dwattr $C$DW$123, DW_AT_name("quot")
    1841                            .dwattr $C$DW$123, DW_AT_TI_symbol_name("quot")
    1842                            .dwattr $C$DW$123, DW_AT_data_member_location[DW_OP_plus_uconst 0x0]
    1843                            .dwattr $C$DW$123, DW_AT_accessibility(DW_ACCESS_public)
    1844                            .dwattr $C$DW$123, DW_AT_decl_file("C:/ti/ccsv8/tools/compiler/ti-cgt-arm_18.1.1.LTS/include/s
    1845                            .dwattr $C$DW$123, DW_AT_decl_line(0x56)
    1846                            .dwattr $C$DW$123, DW_AT_decl_column(0x1c)
    1847                    
    1848                    $C$DW$124       .dwtag  DW_TAG_member
    1849                            .dwattr $C$DW$124, DW_AT_type(*$C$DW$T$14)
    1850                            .dwattr $C$DW$124, DW_AT_name("rem")
    1851                            .dwattr $C$DW$124, DW_AT_TI_symbol_name("rem")
    1852                            .dwattr $C$DW$124, DW_AT_data_member_location[DW_OP_plus_uconst 0x8]
    1853                            .dwattr $C$DW$124, DW_AT_accessibility(DW_ACCESS_public)
    1854                            .dwattr $C$DW$124, DW_AT_decl_file("C:/ti/ccsv8/tools/compiler/ti-cgt-arm_18.1.1.LTS/include/s
    1855                            .dwattr $C$DW$124, DW_AT_decl_line(0x56)
    1856                            .dwattr $C$DW$124, DW_AT_decl_column(0x22)
    1857                    
    1858                            .dwattr $C$DW$T$24, DW_AT_decl_file("C:/ti/ccsv8/tools/compiler/ti-cgt-arm_18.1.1.LTS/include/
    1859                            .dwattr $C$DW$T$24, DW_AT_decl_line(0x56)
    1860                            .dwattr $C$DW$T$24, DW_AT_decl_column(0x10)
    1861                            .dwendtag $C$DW$T$24
    1862                    
    1863                    $C$DW$T$174     .dwtag  DW_TAG_typedef
    1864                            .dwattr $C$DW$T$174, DW_AT_name("lldiv_t")
    1865                            .dwattr $C$DW$T$174, DW_AT_type(*$C$DW$T$24)
    1866                            .dwattr $C$DW$T$174, DW_AT_language(DW_LANG_C)
    1867                            .dwattr $C$DW$T$174, DW_AT_decl_file("C:/ti/ccsv8/tools/compiler/ti-cgt-arm_18.1.1.LTS/include
    1868                            .dwattr $C$DW$T$174, DW_AT_decl_line(0x56)
    1869                            .dwattr $C$DW$T$174, DW_AT_decl_column(0x29)
    1870                    
TI ARM Assembler PC v18.1.1 Wed Apr 25 09:49:01 2018

Tools Copyright (c) 1996-2017 Texas Instruments Incorporated
C:\Users\devops\AppData\Local\Temp\2\{EAE5C80A-95F4-4830-8AD5-3F5837318C3E} PAGE   35

    1871                    
    1872                    $C$DW$T$30      .dwtag  DW_TAG_structure_type
    1873                            .dwattr $C$DW$T$30, DW_AT_byte_size(0x08)
    1874                    $C$DW$125       .dwtag  DW_TAG_member
    1875                            .dwattr $C$DW$125, DW_AT_type(*$C$DW$T$28)
    1876                            .dwattr $C$DW$125, DW_AT_name("pointerStack")
    1877                            .dwattr $C$DW$125, DW_AT_TI_symbol_name("pointerStack")
    1878                            .dwattr $C$DW$125, DW_AT_data_member_location[DW_OP_plus_uconst 0x0]
    1879                            .dwattr $C$DW$125, DW_AT_accessibility(DW_ACCESS_public)
    1880                            .dwattr $C$DW$125, DW_AT_decl_file("C:\ti\simplelink_cc13x0_sdk_2_10_00_36\source\ti\ti154stac
    1881                            .dwattr $C$DW$125, DW_AT_decl_line(0x3f5)
    1882                            .dwattr $C$DW$125, DW_AT_decl_column(0x16)
    1883                    
    1884                    $C$DW$126       .dwtag  DW_TAG_member
    1885                            .dwattr $C$DW$126, DW_AT_type(*$C$DW$T$29)
    1886                            .dwattr $C$DW$126, DW_AT_name("directAPI")
    1887                            .dwattr $C$DW$126, DW_AT_TI_symbol_name("directAPI")
    1888                            .dwattr $C$DW$126, DW_AT_data_member_location[DW_OP_plus_uconst 0x4]
    1889                            .dwattr $C$DW$126, DW_AT_accessibility(DW_ACCESS_public)
    1890                            .dwattr $C$DW$126, DW_AT_decl_file("C:\ti\simplelink_cc13x0_sdk_2_10_00_36\source\ti\ti154stac
    1891                            .dwattr $C$DW$126, DW_AT_decl_line(0x3f6)
    1892                            .dwattr $C$DW$126, DW_AT_decl_column(0x15)
    1893                    
    1894                            .dwattr $C$DW$T$30, DW_AT_decl_file("C:\ti\simplelink_cc13x0_sdk_2_10_00_36\source\ti\ti154sta
    1895                            .dwattr $C$DW$T$30, DW_AT_decl_line(0x3f4)
    1896                            .dwattr $C$DW$T$30, DW_AT_decl_column(0x01)
    1897                            .dwendtag $C$DW$T$30
    1898                    
    1899                    $C$DW$T$32      .dwtag  DW_TAG_typedef
    1900                            .dwattr $C$DW$T$32, DW_AT_name("icall_directAPIMsg_t")
    1901                            .dwattr $C$DW$T$32, DW_AT_type(*$C$DW$T$30)
    1902                            .dwattr $C$DW$T$32, DW_AT_language(DW_LANG_C)
    1903                            .dwattr $C$DW$T$32, DW_AT_decl_file("C:\ti\simplelink_cc13x0_sdk_2_10_00_36\source\ti\ti154sta
    1904                            .dwattr $C$DW$T$32, DW_AT_decl_line(0x3f7)
    1905                            .dwattr $C$DW$T$32, DW_AT_decl_column(0x03)
    1906                    
    1907                    
    1908                    $C$DW$T$33      .dwtag  DW_TAG_structure_type
    1909                            .dwattr $C$DW$T$33, DW_AT_byte_size(0x14)
    1910                    $C$DW$127       .dwtag  DW_TAG_member
    1911                            .dwattr $C$DW$127, DW_AT_type(*$C$DW$T$31)
    1912                            .dwattr $C$DW$127, DW_AT_name("hdr")
    1913                            .dwattr $C$DW$127, DW_AT_TI_symbol_name("hdr")
    1914                            .dwattr $C$DW$127, DW_AT_data_member_location[DW_OP_plus_uconst 0x0]
    1915                            .dwattr $C$DW$127, DW_AT_accessibility(DW_ACCESS_public)
    1916                            .dwattr $C$DW$127, DW_AT_decl_file("C:\ti\simplelink_cc13x0_sdk_2_10_00_36\source\ti\ti154stac
    1917                            .dwattr $C$DW$127, DW_AT_decl_line(0x3fb)
    1918                            .dwattr $C$DW$127, DW_AT_decl_column(0x10)
    1919                    
    1920                    $C$DW$128       .dwtag  DW_TAG_member
    1921                            .dwattr $C$DW$128, DW_AT_type(*$C$DW$T$32)
    1922                            .dwattr $C$DW$128, DW_AT_name("msg")
    1923                            .dwattr $C$DW$128, DW_AT_TI_symbol_name("msg")
    1924                            .dwattr $C$DW$128, DW_AT_data_member_location[DW_OP_plus_uconst 0xc]
    1925                            .dwattr $C$DW$128, DW_AT_accessibility(DW_ACCESS_public)
TI ARM Assembler PC v18.1.1 Wed Apr 25 09:49:01 2018

Tools Copyright (c) 1996-2017 Texas Instruments Incorporated
C:\Users\devops\AppData\Local\Temp\2\{EAE5C80A-95F4-4830-8AD5-3F5837318C3E} PAGE   36

    1926                            .dwattr $C$DW$128, DW_AT_decl_file("C:\ti\simplelink_cc13x0_sdk_2_10_00_36\source\ti\ti154stac
    1927                            .dwattr $C$DW$128, DW_AT_decl_line(0x3fc)
    1928                            .dwattr $C$DW$128, DW_AT_decl_column(0x1a)
    1929                    
    1930                            .dwattr $C$DW$T$33, DW_AT_decl_file("C:\ti\simplelink_cc13x0_sdk_2_10_00_36\source\ti\ti154sta
    1931                            .dwattr $C$DW$T$33, DW_AT_decl_line(0x3fa)
    1932                            .dwattr $C$DW$T$33, DW_AT_decl_column(0x01)
    1933                            .dwendtag $C$DW$T$33
    1934                    
    1935                    $C$DW$T$175     .dwtag  DW_TAG_typedef
    1936                            .dwattr $C$DW$T$175, DW_AT_name("icallLiteMsg_t")
    1937                            .dwattr $C$DW$T$175, DW_AT_type(*$C$DW$T$33)
    1938                            .dwattr $C$DW$T$175, DW_AT_language(DW_LANG_C)
    1939                            .dwattr $C$DW$T$175, DW_AT_decl_file("C:\ti\simplelink_cc13x0_sdk_2_10_00_36\source\ti\ti154st
    1940                            .dwattr $C$DW$T$175, DW_AT_decl_line(0x3fd)
    1941                            .dwattr $C$DW$T$175, DW_AT_decl_column(0x03)
    1942                    
    1943                    
    1944                    $C$DW$T$42      .dwtag  DW_TAG_union_type
    1945                            .dwattr $C$DW$T$42, DW_AT_byte_size(0x02)
    1946                    $C$DW$129       .dwtag  DW_TAG_member
    1947                            .dwattr $C$DW$129, DW_AT_type(*$C$DW$T$37)
    1948                            .dwattr $C$DW$129, DW_AT_name("entityId")
    1949                            .dwattr $C$DW$129, DW_AT_TI_symbol_name("entityId")
    1950                            .dwattr $C$DW$129, DW_AT_data_member_location[DW_OP_plus_uconst 0x0]
    1951                            .dwattr $C$DW$129, DW_AT_accessibility(DW_ACCESS_public)
    1952                            .dwattr $C$DW$129, DW_AT_decl_file("C:\ti\simplelink_cc13x0_sdk_2_10_00_36\source\ti\ti154stac
    1953                            .dwattr $C$DW$129, DW_AT_decl_line(0x1fe)
    1954                            .dwattr $C$DW$129, DW_AT_decl_column(0x14)
    1955                    
    1956                    $C$DW$130       .dwtag  DW_TAG_member
    1957                            .dwattr $C$DW$130, DW_AT_type(*$C$DW$T$41)
    1958                            .dwattr $C$DW$130, DW_AT_name("servId")
    1959                            .dwattr $C$DW$130, DW_AT_TI_symbol_name("servId")
    1960                            .dwattr $C$DW$130, DW_AT_data_member_location[DW_OP_plus_uconst 0x0]
    1961                            .dwattr $C$DW$130, DW_AT_accessibility(DW_ACCESS_public)
    1962                            .dwattr $C$DW$130, DW_AT_decl_file("C:\ti\simplelink_cc13x0_sdk_2_10_00_36\source\ti\ti154stac
    1963                            .dwattr $C$DW$130, DW_AT_decl_line(0x200)
    1964                            .dwattr $C$DW$130, DW_AT_decl_column(0x17)
    1965                    
    1966                            .dwattr $C$DW$T$42, DW_AT_decl_file("C:\ti\simplelink_cc13x0_sdk_2_10_00_36\source\ti\ti154sta
    1967                            .dwattr $C$DW$T$42, DW_AT_decl_line(0x1fc)
    1968                            .dwattr $C$DW$T$42, DW_AT_decl_column(0x03)
    1969                            .dwendtag $C$DW$T$42
    1970                    
    1971                    
    1972                    $C$DW$T$43      .dwtag  DW_TAG_union_type
    1973                            .dwattr $C$DW$T$43, DW_AT_byte_size(0x02)
    1974                    $C$DW$131       .dwtag  DW_TAG_member
    1975                            .dwattr $C$DW$131, DW_AT_type(*$C$DW$T$41)
    1976                            .dwattr $C$DW$131, DW_AT_name("servId")
    1977                            .dwattr $C$DW$131, DW_AT_TI_symbol_name("servId")
    1978                            .dwattr $C$DW$131, DW_AT_data_member_location[DW_OP_plus_uconst 0x0]
    1979                            .dwattr $C$DW$131, DW_AT_accessibility(DW_ACCESS_public)
    1980                            .dwattr $C$DW$131, DW_AT_decl_file("C:\ti\simplelink_cc13x0_sdk_2_10_00_36\source\ti\ti154stac
TI ARM Assembler PC v18.1.1 Wed Apr 25 09:49:01 2018

Tools Copyright (c) 1996-2017 Texas Instruments Incorporated
C:\Users\devops\AppData\Local\Temp\2\{EAE5C80A-95F4-4830-8AD5-3F5837318C3E} PAGE   37

    1981                            .dwattr $C$DW$131, DW_AT_decl_line(0x211)
    1982                            .dwattr $C$DW$131, DW_AT_decl_column(0x17)
    1983                    
    1984                    $C$DW$132       .dwtag  DW_TAG_member
    1985                            .dwattr $C$DW$132, DW_AT_type(*$C$DW$T$37)
    1986                            .dwattr $C$DW$132, DW_AT_name("entityId")
    1987                            .dwattr $C$DW$132, DW_AT_TI_symbol_name("entityId")
    1988                            .dwattr $C$DW$132, DW_AT_data_member_location[DW_OP_plus_uconst 0x0]
    1989                            .dwattr $C$DW$132, DW_AT_accessibility(DW_ACCESS_public)
    1990                            .dwattr $C$DW$132, DW_AT_decl_file("C:\ti\simplelink_cc13x0_sdk_2_10_00_36\source\ti\ti154stac
    1991                            .dwattr $C$DW$132, DW_AT_decl_line(0x213)
    1992                            .dwattr $C$DW$132, DW_AT_decl_column(0x14)
    1993                    
    1994                            .dwattr $C$DW$T$43, DW_AT_decl_file("C:\ti\simplelink_cc13x0_sdk_2_10_00_36\source\ti\ti154sta
    1995                            .dwattr $C$DW$T$43, DW_AT_decl_line(0x20f)
    1996                            .dwattr $C$DW$T$43, DW_AT_decl_column(0x03)
    1997                            .dwendtag $C$DW$T$43
    1998                    
    1999                    
    2000                    $C$DW$T$44      .dwtag  DW_TAG_structure_type
    2001                            .dwattr $C$DW$T$44, DW_AT_name(".ggroup1")
    2002                            .dwattr $C$DW$T$44, DW_AT_byte_size(0x08)
    2003                    $C$DW$133       .dwtag  DW_TAG_member
    2004                            .dwattr $C$DW$133, DW_AT_type(*$C$DW$T$6)
    2005                            .dwattr $C$DW$133, DW_AT_name("ICallPlatform_pwrActivityCount")
    2006                            .dwattr $C$DW$133, DW_AT_TI_symbol_name("ICallPlatform_pwrActivityCount")
    2007                            .dwattr $C$DW$133, DW_AT_data_member_location[DW_OP_plus_uconst 0x0]
    2008                            .dwattr $C$DW$133, DW_AT_accessibility(DW_ACCESS_public)
    2009                    
    2010                    $C$DW$134       .dwtag  DW_TAG_member
    2011                            .dwattr $C$DW$134, DW_AT_type(*$C$DW$T$11)
    2012                            .dwattr $C$DW$134, DW_AT_name("ICallPlatform_pwrCfgACAction")
    2013                            .dwattr $C$DW$134, DW_AT_TI_symbol_name("ICallPlatform_pwrCfgACAction")
    2014                            .dwattr $C$DW$134, DW_AT_data_member_location[DW_OP_plus_uconst 0x4]
    2015                            .dwattr $C$DW$134, DW_AT_accessibility(DW_ACCESS_public)
    2016                    
    2017                            .dwendtag $C$DW$T$44
    2018                    
    2019                    
    2020                    $C$DW$T$46      .dwtag  DW_TAG_structure_type
    2021                            .dwattr $C$DW$T$46, DW_AT_name("ClockP_FreqHz")
    2022                            .dwattr $C$DW$T$46, DW_AT_byte_size(0x08)
    2023                    $C$DW$135       .dwtag  DW_TAG_member
    2024                            .dwattr $C$DW$135, DW_AT_type(*$C$DW$T$45)
    2025                            .dwattr $C$DW$135, DW_AT_name("hi")
    2026                            .dwattr $C$DW$135, DW_AT_TI_symbol_name("hi")
    2027                            .dwattr $C$DW$135, DW_AT_data_member_location[DW_OP_plus_uconst 0x0]
    2028                            .dwattr $C$DW$135, DW_AT_accessibility(DW_ACCESS_public)
    2029                            .dwattr $C$DW$135, DW_AT_decl_file("C:/ti/simplelink_cc13x0_sdk_2_10_00_36/source/ti/drivers/d
    2030                            .dwattr $C$DW$135, DW_AT_decl_line(0x5c)
    2031                            .dwattr $C$DW$135, DW_AT_decl_column(0x0e)
    2032                    
    2033                    $C$DW$136       .dwtag  DW_TAG_member
    2034                            .dwattr $C$DW$136, DW_AT_type(*$C$DW$T$45)
    2035                            .dwattr $C$DW$136, DW_AT_name("lo")
TI ARM Assembler PC v18.1.1 Wed Apr 25 09:49:01 2018

Tools Copyright (c) 1996-2017 Texas Instruments Incorporated
C:\Users\devops\AppData\Local\Temp\2\{EAE5C80A-95F4-4830-8AD5-3F5837318C3E} PAGE   38

    2036                            .dwattr $C$DW$136, DW_AT_TI_symbol_name("lo")
    2037                            .dwattr $C$DW$136, DW_AT_data_member_location[DW_OP_plus_uconst 0x4]
    2038                            .dwattr $C$DW$136, DW_AT_accessibility(DW_ACCESS_public)
    2039                            .dwattr $C$DW$136, DW_AT_decl_file("C:/ti/simplelink_cc13x0_sdk_2_10_00_36/source/ti/drivers/d
    2040                            .dwattr $C$DW$136, DW_AT_decl_line(0x5d)
    2041                            .dwattr $C$DW$136, DW_AT_decl_column(0x0e)
    2042                    
    2043                            .dwattr $C$DW$T$46, DW_AT_decl_file("C:/ti/simplelink_cc13x0_sdk_2_10_00_36/source/ti/drivers/
    2044                            .dwattr $C$DW$T$46, DW_AT_decl_line(0x5b)
    2045                            .dwattr $C$DW$T$46, DW_AT_decl_column(0x10)
    2046                            .dwendtag $C$DW$T$46
    2047                    
    2048                    $C$DW$T$177     .dwtag  DW_TAG_typedef
    2049                            .dwattr $C$DW$T$177, DW_AT_name("ClockP_FreqHz")
    2050                            .dwattr $C$DW$T$177, DW_AT_type(*$C$DW$T$46)
    2051                            .dwattr $C$DW$T$177, DW_AT_language(DW_LANG_C)
    2052                            .dwattr $C$DW$T$177, DW_AT_decl_file("C:/ti/simplelink_cc13x0_sdk_2_10_00_36/source/ti/drivers
    2053                            .dwattr $C$DW$T$177, DW_AT_decl_line(0x5e)
    2054                            .dwattr $C$DW$T$177, DW_AT_decl_column(0x03)
    2055                    
    2056                    
    2057                    $C$DW$T$50      .dwtag  DW_TAG_structure_type
    2058                            .dwattr $C$DW$T$50, DW_AT_name("ClockP_Params")
    2059                            .dwattr $C$DW$T$50, DW_AT_byte_size(0x0c)
    2060                    $C$DW$137       .dwtag  DW_TAG_member
    2061                            .dwattr $C$DW$137, DW_AT_type(*$C$DW$T$47)
    2062                            .dwattr $C$DW$137, DW_AT_name("startFlag")
    2063                            .dwattr $C$DW$137, DW_AT_TI_symbol_name("startFlag")
    2064                            .dwattr $C$DW$137, DW_AT_data_member_location[DW_OP_plus_uconst 0x0]
    2065                            .dwattr $C$DW$137, DW_AT_accessibility(DW_ACCESS_public)
    2066                            .dwattr $C$DW$137, DW_AT_decl_file("C:/ti/simplelink_cc13x0_sdk_2_10_00_36/source/ti/drivers/d
    2067                            .dwattr $C$DW$137, DW_AT_decl_line(0x8d)
    2068                            .dwattr $C$DW$137, DW_AT_decl_column(0x0f)
    2069                    
    2070                    $C$DW$138       .dwtag  DW_TAG_member
    2071                            .dwattr $C$DW$138, DW_AT_type(*$C$DW$T$45)
    2072                            .dwattr $C$DW$138, DW_AT_name("period")
    2073                            .dwattr $C$DW$138, DW_AT_TI_symbol_name("period")
    2074                            .dwattr $C$DW$138, DW_AT_data_member_location[DW_OP_plus_uconst 0x4]
    2075                            .dwattr $C$DW$138, DW_AT_accessibility(DW_ACCESS_public)
    2076                            .dwattr $C$DW$138, DW_AT_decl_file("C:/ti/simplelink_cc13x0_sdk_2_10_00_36/source/ti/drivers/d
    2077                            .dwattr $C$DW$138, DW_AT_decl_line(0x8e)
    2078                            .dwattr $C$DW$138, DW_AT_decl_column(0x0f)
    2079                    
    2080                    $C$DW$139       .dwtag  DW_TAG_member
    2081                            .dwattr $C$DW$139, DW_AT_type(*$C$DW$T$49)
    2082                            .dwattr $C$DW$139, DW_AT_name("arg")
    2083                            .dwattr $C$DW$139, DW_AT_TI_symbol_name("arg")
    2084                            .dwattr $C$DW$139, DW_AT_data_member_location[DW_OP_plus_uconst 0x8]
    2085                            .dwattr $C$DW$139, DW_AT_accessibility(DW_ACCESS_public)
    2086                            .dwattr $C$DW$139, DW_AT_decl_file("C:/ti/simplelink_cc13x0_sdk_2_10_00_36/source/ti/drivers/d
    2087                            .dwattr $C$DW$139, DW_AT_decl_line(0x8f)
    2088                            .dwattr $C$DW$139, DW_AT_decl_column(0x0f)
    2089                    
    2090                            .dwattr $C$DW$T$50, DW_AT_decl_file("C:/ti/simplelink_cc13x0_sdk_2_10_00_36/source/ti/drivers/
TI ARM Assembler PC v18.1.1 Wed Apr 25 09:49:01 2018

Tools Copyright (c) 1996-2017 Texas Instruments Incorporated
C:\Users\devops\AppData\Local\Temp\2\{EAE5C80A-95F4-4830-8AD5-3F5837318C3E} PAGE   39

    2091                            .dwattr $C$DW$T$50, DW_AT_decl_line(0x8c)
    2092                            .dwattr $C$DW$T$50, DW_AT_decl_column(0x10)
    2093                            .dwendtag $C$DW$T$50
    2094                    
    2095                    $C$DW$T$178     .dwtag  DW_TAG_typedef
    2096                            .dwattr $C$DW$T$178, DW_AT_name("ClockP_Params")
    2097                            .dwattr $C$DW$T$178, DW_AT_type(*$C$DW$T$50)
    2098                            .dwattr $C$DW$T$178, DW_AT_language(DW_LANG_C)
    2099                            .dwattr $C$DW$T$178, DW_AT_decl_file("C:/ti/simplelink_cc13x0_sdk_2_10_00_36/source/ti/drivers
    2100                            .dwattr $C$DW$T$178, DW_AT_decl_line(0x90)
    2101                            .dwattr $C$DW$T$178, DW_AT_decl_column(0x03)
    2102                    
    2103                    
    2104                    $C$DW$T$179     .dwtag  DW_TAG_enumeration_type
    2105                            .dwattr $C$DW$T$179, DW_AT_name("ClockP_Status")
    2106                            .dwattr $C$DW$T$179, DW_AT_byte_size(0x01)
    2107                    $C$DW$140       .dwtag  DW_TAG_enumerator
    2108                            .dwattr $C$DW$140, DW_AT_name("ClockP_OK")
    2109                            .dwattr $C$DW$140, DW_AT_const_value(0x00)
    2110                            .dwattr $C$DW$140, DW_AT_decl_file("C:/ti/simplelink_cc13x0_sdk_2_10_00_36/source/ti/drivers/d
    2111                            .dwattr $C$DW$140, DW_AT_decl_line(0x64)
    2112                            .dwattr $C$DW$140, DW_AT_decl_column(0x05)
    2113                    
    2114                    $C$DW$141       .dwtag  DW_TAG_enumerator
    2115                            .dwattr $C$DW$141, DW_AT_name("ClockP_FAILURE")
    2116                            .dwattr $C$DW$141, DW_AT_const_value(-1)
    2117                            .dwattr $C$DW$141, DW_AT_decl_file("C:/ti/simplelink_cc13x0_sdk_2_10_00_36/source/ti/drivers/d
    2118                            .dwattr $C$DW$141, DW_AT_decl_line(0x65)
    2119                            .dwattr $C$DW$141, DW_AT_decl_column(0x05)
    2120                    
    2121                            .dwattr $C$DW$T$179, DW_AT_decl_file("C:/ti/simplelink_cc13x0_sdk_2_10_00_36/source/ti/drivers
    2122                            .dwattr $C$DW$T$179, DW_AT_decl_line(0x63)
    2123                            .dwattr $C$DW$T$179, DW_AT_decl_column(0x0e)
    2124                            .dwendtag $C$DW$T$179
    2125                    
    2126                    $C$DW$T$180     .dwtag  DW_TAG_typedef
    2127                            .dwattr $C$DW$T$180, DW_AT_name("ClockP_Status")
    2128                            .dwattr $C$DW$T$180, DW_AT_type(*$C$DW$T$179)
    2129                            .dwattr $C$DW$T$180, DW_AT_language(DW_LANG_C)
    2130                            .dwattr $C$DW$T$180, DW_AT_decl_file("C:/ti/simplelink_cc13x0_sdk_2_10_00_36/source/ti/drivers
    2131                            .dwattr $C$DW$T$180, DW_AT_decl_line(0x66)
    2132                            .dwattr $C$DW$T$180, DW_AT_decl_column(0x03)
    2133                    
    2134                    
    2135                    $C$DW$T$53      .dwtag  DW_TAG_union_type
    2136                            .dwattr $C$DW$T$53, DW_AT_name("ClockP_Struct")
    2137                            .dwattr $C$DW$T$53, DW_AT_byte_size(0x24)
    2138                    $C$DW$142       .dwtag  DW_TAG_member
    2139                            .dwattr $C$DW$142, DW_AT_type(*$C$DW$T$45)
    2140                            .dwattr $C$DW$142, DW_AT_name("dummy")
    2141                            .dwattr $C$DW$142, DW_AT_TI_symbol_name("dummy")
    2142                            .dwattr $C$DW$142, DW_AT_data_member_location[DW_OP_plus_uconst 0x0]
    2143                            .dwattr $C$DW$142, DW_AT_accessibility(DW_ACCESS_public)
    2144                            .dwattr $C$DW$142, DW_AT_decl_file("C:/ti/simplelink_cc13x0_sdk_2_10_00_36/source/ti/drivers/d
    2145                            .dwattr $C$DW$142, DW_AT_decl_line(0x54)
TI ARM Assembler PC v18.1.1 Wed Apr 25 09:49:01 2018

Tools Copyright (c) 1996-2017 Texas Instruments Incorporated
C:\Users\devops\AppData\Local\Temp\2\{EAE5C80A-95F4-4830-8AD5-3F5837318C3E} PAGE   40

    2146                            .dwattr $C$DW$142, DW_AT_decl_column(0x0e)
    2147                    
    2148                    $C$DW$143       .dwtag  DW_TAG_member
    2149                            .dwattr $C$DW$143, DW_AT_type(*$C$DW$T$52)
    2150                            .dwattr $C$DW$143, DW_AT_name("data")
    2151                            .dwattr $C$DW$143, DW_AT_TI_symbol_name("data")
    2152                            .dwattr $C$DW$143, DW_AT_data_member_location[DW_OP_plus_uconst 0x0]
    2153                            .dwattr $C$DW$143, DW_AT_accessibility(DW_ACCESS_public)
    2154                            .dwattr $C$DW$143, DW_AT_decl_file("C:/ti/simplelink_cc13x0_sdk_2_10_00_36/source/ti/drivers/d
    2155                            .dwattr $C$DW$143, DW_AT_decl_line(0x55)
    2156                            .dwattr $C$DW$143, DW_AT_decl_column(0x0e)
    2157                    
    2158                            .dwattr $C$DW$T$53, DW_AT_decl_file("C:/ti/simplelink_cc13x0_sdk_2_10_00_36/source/ti/drivers/
    2159                            .dwattr $C$DW$T$53, DW_AT_decl_line(0x53)
    2160                            .dwattr $C$DW$T$53, DW_AT_decl_column(0x0f)
    2161                            .dwendtag $C$DW$T$53
    2162                    
    2163                    $C$DW$T$71      .dwtag  DW_TAG_typedef
    2164                            .dwattr $C$DW$T$71, DW_AT_name("ClockP_Struct")
    2165                            .dwattr $C$DW$T$71, DW_AT_type(*$C$DW$T$53)
    2166                            .dwattr $C$DW$T$71, DW_AT_language(DW_LANG_C)
    2167                            .dwattr $C$DW$T$71, DW_AT_decl_file("C:/ti/simplelink_cc13x0_sdk_2_10_00_36/source/ti/drivers/
    2168                            .dwattr $C$DW$T$71, DW_AT_decl_line(0x56)
    2169                            .dwattr $C$DW$T$71, DW_AT_decl_column(0x03)
    2170                    
    2171                    
    2172                    $C$DW$T$54      .dwtag  DW_TAG_structure_type
    2173                            .dwattr $C$DW$T$54, DW_AT_name("HwiP_Params")
    2174                            .dwattr $C$DW$T$54, DW_AT_byte_size(0x0c)
    2175                    $C$DW$144       .dwtag  DW_TAG_member
    2176                            .dwattr $C$DW$144, DW_AT_type(*$C$DW$T$49)
    2177                            .dwattr $C$DW$144, DW_AT_name("arg")
    2178                            .dwattr $C$DW$144, DW_AT_TI_symbol_name("arg")
    2179                            .dwattr $C$DW$144, DW_AT_data_member_location[DW_OP_plus_uconst 0x0]
    2180                            .dwattr $C$DW$144, DW_AT_accessibility(DW_ACCESS_public)
    2181                            .dwattr $C$DW$144, DW_AT_decl_file("C:/ti/simplelink_cc13x0_sdk_2_10_00_36/source/ti/drivers/d
    2182                            .dwattr $C$DW$144, DW_AT_decl_line(0x72)
    2183                            .dwattr $C$DW$144, DW_AT_decl_column(0x10)
    2184                    
    2185                    $C$DW$145       .dwtag  DW_TAG_member
    2186                            .dwattr $C$DW$145, DW_AT_type(*$C$DW$T$45)
    2187                            .dwattr $C$DW$145, DW_AT_name("priority")
    2188                            .dwattr $C$DW$145, DW_AT_TI_symbol_name("priority")
    2189                            .dwattr $C$DW$145, DW_AT_data_member_location[DW_OP_plus_uconst 0x4]
    2190                            .dwattr $C$DW$145, DW_AT_accessibility(DW_ACCESS_public)
    2191                            .dwattr $C$DW$145, DW_AT_decl_file("C:/ti/simplelink_cc13x0_sdk_2_10_00_36/source/ti/drivers/d
    2192                            .dwattr $C$DW$145, DW_AT_decl_line(0x73)
    2193                            .dwattr $C$DW$145, DW_AT_decl_column(0x10)
    2194                    
    2195                    $C$DW$146       .dwtag  DW_TAG_member
    2196                            .dwattr $C$DW$146, DW_AT_type(*$C$DW$T$47)
    2197                            .dwattr $C$DW$146, DW_AT_name("enableInt")
    2198                            .dwattr $C$DW$146, DW_AT_TI_symbol_name("enableInt")
    2199                            .dwattr $C$DW$146, DW_AT_data_member_location[DW_OP_plus_uconst 0x8]
    2200                            .dwattr $C$DW$146, DW_AT_accessibility(DW_ACCESS_public)
TI ARM Assembler PC v18.1.1 Wed Apr 25 09:49:01 2018

Tools Copyright (c) 1996-2017 Texas Instruments Incorporated
C:\Users\devops\AppData\Local\Temp\2\{EAE5C80A-95F4-4830-8AD5-3F5837318C3E} PAGE   41

    2201                            .dwattr $C$DW$146, DW_AT_decl_file("C:/ti/simplelink_cc13x0_sdk_2_10_00_36/source/ti/drivers/d
    2202                            .dwattr $C$DW$146, DW_AT_decl_line(0x74)
    2203                            .dwattr $C$DW$146, DW_AT_decl_column(0x10)
    2204                    
    2205                            .dwattr $C$DW$T$54, DW_AT_decl_file("C:/ti/simplelink_cc13x0_sdk_2_10_00_36/source/ti/drivers/
    2206                            .dwattr $C$DW$T$54, DW_AT_decl_line(0x71)
    2207                            .dwattr $C$DW$T$54, DW_AT_decl_column(0x10)
    2208                            .dwendtag $C$DW$T$54
    2209                    
    2210                    $C$DW$T$181     .dwtag  DW_TAG_typedef
    2211                            .dwattr $C$DW$T$181, DW_AT_name("HwiP_Params")
    2212                            .dwattr $C$DW$T$181, DW_AT_type(*$C$DW$T$54)
    2213                            .dwattr $C$DW$T$181, DW_AT_language(DW_LANG_C)
    2214                            .dwattr $C$DW$T$181, DW_AT_decl_file("C:/ti/simplelink_cc13x0_sdk_2_10_00_36/source/ti/drivers
    2215                            .dwattr $C$DW$T$181, DW_AT_decl_line(0x75)
    2216                            .dwattr $C$DW$T$181, DW_AT_decl_column(0x03)
    2217                    
    2218                    
    2219                    $C$DW$T$182     .dwtag  DW_TAG_enumeration_type
    2220                            .dwattr $C$DW$T$182, DW_AT_name("HwiP_Status")
    2221                            .dwattr $C$DW$T$182, DW_AT_byte_size(0x01)
    2222                    $C$DW$147       .dwtag  DW_TAG_enumerator
    2223                            .dwattr $C$DW$147, DW_AT_name("HwiP_OK")
    2224                            .dwattr $C$DW$147, DW_AT_const_value(0x00)
    2225                            .dwattr $C$DW$147, DW_AT_decl_file("C:/ti/simplelink_cc13x0_sdk_2_10_00_36/source/ti/drivers/d
    2226                            .dwattr $C$DW$147, DW_AT_decl_line(0x5c)
    2227                            .dwattr $C$DW$147, DW_AT_decl_column(0x05)
    2228                    
    2229                    $C$DW$148       .dwtag  DW_TAG_enumerator
    2230                            .dwattr $C$DW$148, DW_AT_name("HwiP_FAILURE")
    2231                            .dwattr $C$DW$148, DW_AT_const_value(-1)
    2232                            .dwattr $C$DW$148, DW_AT_decl_file("C:/ti/simplelink_cc13x0_sdk_2_10_00_36/source/ti/drivers/d
    2233                            .dwattr $C$DW$148, DW_AT_decl_line(0x5d)
    2234                            .dwattr $C$DW$148, DW_AT_decl_column(0x05)
    2235                    
    2236                            .dwattr $C$DW$T$182, DW_AT_decl_file("C:/ti/simplelink_cc13x0_sdk_2_10_00_36/source/ti/drivers
    2237                            .dwattr $C$DW$T$182, DW_AT_decl_line(0x5b)
    2238                            .dwattr $C$DW$T$182, DW_AT_decl_column(0x0e)
    2239                            .dwendtag $C$DW$T$182
    2240                    
    2241                    $C$DW$T$183     .dwtag  DW_TAG_typedef
    2242                            .dwattr $C$DW$T$183, DW_AT_name("HwiP_Status")
    2243                            .dwattr $C$DW$T$183, DW_AT_type(*$C$DW$T$182)
    2244                            .dwattr $C$DW$T$183, DW_AT_language(DW_LANG_C)
    2245                            .dwattr $C$DW$T$183, DW_AT_decl_file("C:/ti/simplelink_cc13x0_sdk_2_10_00_36/source/ti/drivers
    2246                            .dwattr $C$DW$T$183, DW_AT_decl_line(0x5e)
    2247                            .dwattr $C$DW$T$183, DW_AT_decl_column(0x03)
    2248                    
    2249                    
    2250                    $C$DW$T$56      .dwtag  DW_TAG_union_type
    2251                            .dwattr $C$DW$T$56, DW_AT_name("HwiP_Struct")
    2252                            .dwattr $C$DW$T$56, DW_AT_byte_size(0x1c)
    2253                    $C$DW$149       .dwtag  DW_TAG_member
    2254                            .dwattr $C$DW$149, DW_AT_type(*$C$DW$T$45)
    2255                            .dwattr $C$DW$149, DW_AT_name("dummy")
TI ARM Assembler PC v18.1.1 Wed Apr 25 09:49:01 2018

Tools Copyright (c) 1996-2017 Texas Instruments Incorporated
C:\Users\devops\AppData\Local\Temp\2\{EAE5C80A-95F4-4830-8AD5-3F5837318C3E} PAGE   42

    2256                            .dwattr $C$DW$149, DW_AT_TI_symbol_name("dummy")
    2257                            .dwattr $C$DW$149, DW_AT_data_member_location[DW_OP_plus_uconst 0x0]
    2258                            .dwattr $C$DW$149, DW_AT_accessibility(DW_ACCESS_public)
    2259                            .dwattr $C$DW$149, DW_AT_decl_file("C:/ti/simplelink_cc13x0_sdk_2_10_00_36/source/ti/drivers/d
    2260                            .dwattr $C$DW$149, DW_AT_decl_line(0x4d)
    2261                            .dwattr $C$DW$149, DW_AT_decl_column(0x0e)
    2262                    
    2263                    $C$DW$150       .dwtag  DW_TAG_member
    2264                            .dwattr $C$DW$150, DW_AT_type(*$C$DW$T$55)
    2265                            .dwattr $C$DW$150, DW_AT_name("data")
    2266                            .dwattr $C$DW$150, DW_AT_TI_symbol_name("data")
    2267                            .dwattr $C$DW$150, DW_AT_data_member_location[DW_OP_plus_uconst 0x0]
    2268                            .dwattr $C$DW$150, DW_AT_accessibility(DW_ACCESS_public)
    2269                            .dwattr $C$DW$150, DW_AT_decl_file("C:/ti/simplelink_cc13x0_sdk_2_10_00_36/source/ti/drivers/d
    2270                            .dwattr $C$DW$150, DW_AT_decl_line(0x4e)
    2271                            .dwattr $C$DW$150, DW_AT_decl_column(0x0e)
    2272                    
    2273                            .dwattr $C$DW$T$56, DW_AT_decl_file("C:/ti/simplelink_cc13x0_sdk_2_10_00_36/source/ti/drivers/
    2274                            .dwattr $C$DW$T$56, DW_AT_decl_line(0x4c)
    2275                            .dwattr $C$DW$T$56, DW_AT_decl_column(0x0f)
    2276                            .dwendtag $C$DW$T$56
    2277                    
    2278                    $C$DW$T$72      .dwtag  DW_TAG_typedef
    2279                            .dwattr $C$DW$T$72, DW_AT_name("HwiP_Struct")
    2280                            .dwattr $C$DW$T$72, DW_AT_type(*$C$DW$T$56)
    2281                            .dwattr $C$DW$T$72, DW_AT_language(DW_LANG_C)
    2282                            .dwattr $C$DW$T$72, DW_AT_decl_file("C:/ti/simplelink_cc13x0_sdk_2_10_00_36/source/ti/drivers/
    2283                            .dwattr $C$DW$T$72, DW_AT_decl_line(0x4f)
    2284                            .dwattr $C$DW$T$72, DW_AT_decl_column(0x03)
    2285                    
    2286                    
    2287                    $C$DW$T$58      .dwtag  DW_TAG_structure_type
    2288                            .dwattr $C$DW$T$58, DW_AT_name("List_Elem")
    2289                            .dwattr $C$DW$T$58, DW_AT_byte_size(0x08)
    2290                    $C$DW$151       .dwtag  DW_TAG_member
    2291                            .dwattr $C$DW$151, DW_AT_type(*$C$DW$T$57)
    2292                            .dwattr $C$DW$151, DW_AT_name("next")
    2293                            .dwattr $C$DW$151, DW_AT_TI_symbol_name("next")
    2294                            .dwattr $C$DW$151, DW_AT_data_member_location[DW_OP_plus_uconst 0x0]
    2295                            .dwattr $C$DW$151, DW_AT_accessibility(DW_ACCESS_public)
    2296                            .dwattr $C$DW$151, DW_AT_decl_file("C:/ti/simplelink_cc13x0_sdk_2_10_00_36/source/ti/drivers/u
    2297                            .dwattr $C$DW$151, DW_AT_decl_line(0x7f)
    2298                            .dwattr $C$DW$151, DW_AT_decl_column(0x17)
    2299                    
    2300                    $C$DW$152       .dwtag  DW_TAG_member
    2301                            .dwattr $C$DW$152, DW_AT_type(*$C$DW$T$57)
    2302                            .dwattr $C$DW$152, DW_AT_name("prev")
    2303                            .dwattr $C$DW$152, DW_AT_TI_symbol_name("prev")
    2304                            .dwattr $C$DW$152, DW_AT_data_member_location[DW_OP_plus_uconst 0x4]
    2305                            .dwattr $C$DW$152, DW_AT_accessibility(DW_ACCESS_public)
    2306                            .dwattr $C$DW$152, DW_AT_decl_file("C:/ti/simplelink_cc13x0_sdk_2_10_00_36/source/ti/drivers/u
    2307                            .dwattr $C$DW$152, DW_AT_decl_line(0x80)
    2308                            .dwattr $C$DW$152, DW_AT_decl_column(0x17)
    2309                    
    2310                            .dwattr $C$DW$T$58, DW_AT_decl_file("C:/ti/simplelink_cc13x0_sdk_2_10_00_36/source/ti/drivers/
TI ARM Assembler PC v18.1.1 Wed Apr 25 09:49:01 2018

Tools Copyright (c) 1996-2017 Texas Instruments Incorporated
C:\Users\devops\AppData\Local\Temp\2\{EAE5C80A-95F4-4830-8AD5-3F5837318C3E} PAGE   43

    2311                            .dwattr $C$DW$T$58, DW_AT_decl_line(0x7e)
    2312                            .dwattr $C$DW$T$58, DW_AT_decl_column(0x10)
    2313                            .dwendtag $C$DW$T$58
    2314                    
    2315                    $C$DW$T$59      .dwtag  DW_TAG_typedef
    2316                            .dwattr $C$DW$T$59, DW_AT_name("List_Elem")
    2317                            .dwattr $C$DW$T$59, DW_AT_type(*$C$DW$T$58)
    2318                            .dwattr $C$DW$T$59, DW_AT_language(DW_LANG_C)
    2319                            .dwattr $C$DW$T$59, DW_AT_decl_file("C:/ti/simplelink_cc13x0_sdk_2_10_00_36/source/ti/drivers/
    2320                            .dwattr $C$DW$T$59, DW_AT_decl_line(0x81)
    2321                            .dwattr $C$DW$T$59, DW_AT_decl_column(0x03)
    2322                    
    2323                    $C$DW$T$60      .dwtag  DW_TAG_pointer_type
    2324                            .dwattr $C$DW$T$60, DW_AT_type(*$C$DW$T$59)
    2325                            .dwattr $C$DW$T$60, DW_AT_address_class(0x20)
    2326                    
    2327                    $C$DW$T$57      .dwtag  DW_TAG_pointer_type
    2328                            .dwattr $C$DW$T$57, DW_AT_type(*$C$DW$T$58)
    2329                            .dwattr $C$DW$T$57, DW_AT_address_class(0x20)
    2330                    
    2331                    
    2332                    $C$DW$T$61      .dwtag  DW_TAG_structure_type
    2333                            .dwattr $C$DW$T$61, DW_AT_name("List_List")
    2334                            .dwattr $C$DW$T$61, DW_AT_byte_size(0x08)
    2335                    $C$DW$153       .dwtag  DW_TAG_member
    2336                            .dwattr $C$DW$153, DW_AT_type(*$C$DW$T$60)
    2337                            .dwattr $C$DW$153, DW_AT_name("head")
    2338                            .dwattr $C$DW$153, DW_AT_TI_symbol_name("head")
    2339                            .dwattr $C$DW$153, DW_AT_data_member_location[DW_OP_plus_uconst 0x0]
    2340                            .dwattr $C$DW$153, DW_AT_accessibility(DW_ACCESS_public)
    2341                            .dwattr $C$DW$153, DW_AT_decl_file("C:/ti/simplelink_cc13x0_sdk_2_10_00_36/source/ti/drivers/u
    2342                            .dwattr $C$DW$153, DW_AT_decl_line(0x84)
    2343                            .dwattr $C$DW$153, DW_AT_decl_column(0x10)
    2344                    
    2345                    $C$DW$154       .dwtag  DW_TAG_member
    2346                            .dwattr $C$DW$154, DW_AT_type(*$C$DW$T$60)
    2347                            .dwattr $C$DW$154, DW_AT_name("tail")
    2348                            .dwattr $C$DW$154, DW_AT_TI_symbol_name("tail")
    2349                            .dwattr $C$DW$154, DW_AT_data_member_location[DW_OP_plus_uconst 0x4]
    2350                            .dwattr $C$DW$154, DW_AT_accessibility(DW_ACCESS_public)
    2351                            .dwattr $C$DW$154, DW_AT_decl_file("C:/ti/simplelink_cc13x0_sdk_2_10_00_36/source/ti/drivers/u
    2352                            .dwattr $C$DW$154, DW_AT_decl_line(0x85)
    2353                            .dwattr $C$DW$154, DW_AT_decl_column(0x10)
    2354                    
    2355                            .dwattr $C$DW$T$61, DW_AT_decl_file("C:/ti/simplelink_cc13x0_sdk_2_10_00_36/source/ti/drivers/
    2356                            .dwattr $C$DW$T$61, DW_AT_decl_line(0x83)
    2357                            .dwattr $C$DW$T$61, DW_AT_decl_column(0x10)
    2358                            .dwendtag $C$DW$T$61
    2359                    
    2360                    $C$DW$T$70      .dwtag  DW_TAG_typedef
    2361                            .dwattr $C$DW$T$70, DW_AT_name("List_List")
    2362                            .dwattr $C$DW$T$70, DW_AT_type(*$C$DW$T$61)
    2363                            .dwattr $C$DW$T$70, DW_AT_language(DW_LANG_C)
    2364                            .dwattr $C$DW$T$70, DW_AT_decl_file("C:/ti/simplelink_cc13x0_sdk_2_10_00_36/source/ti/drivers/
    2365                            .dwattr $C$DW$T$70, DW_AT_decl_line(0x86)
TI ARM Assembler PC v18.1.1 Wed Apr 25 09:49:01 2018

Tools Copyright (c) 1996-2017 Texas Instruments Incorporated
C:\Users\devops\AppData\Local\Temp\2\{EAE5C80A-95F4-4830-8AD5-3F5837318C3E} PAGE   44

    2366                            .dwattr $C$DW$T$70, DW_AT_decl_column(0x03)
    2367                    
    2368                    
    2369                    $C$DW$T$69      .dwtag  DW_TAG_structure_type
    2370                            .dwattr $C$DW$T$69, DW_AT_name("PowerCC26XX_Config")
    2371                            .dwattr $C$DW$T$69, DW_AT_byte_size(0x18)
    2372                    $C$DW$155       .dwtag  DW_TAG_member
    2373                            .dwattr $C$DW$155, DW_AT_type(*$C$DW$T$64)
    2374                            .dwattr $C$DW$155, DW_AT_name("policyInitFxn")
    2375                            .dwattr $C$DW$155, DW_AT_TI_symbol_name("policyInitFxn")
    2376                            .dwattr $C$DW$155, DW_AT_data_member_location[DW_OP_plus_uconst 0x0]
    2377                            .dwattr $C$DW$155, DW_AT_accessibility(DW_ACCESS_public)
    2378                            .dwattr $C$DW$155, DW_AT_decl_file("C:/ti/simplelink_cc13x0_sdk_2_10_00_36/source/ti/drivers/p
    2379                            .dwattr $C$DW$155, DW_AT_decl_line(0x147)
    2380                            .dwattr $C$DW$155, DW_AT_decl_column(0x19)
    2381                    
    2382                    $C$DW$156       .dwtag  DW_TAG_member
    2383                            .dwattr $C$DW$156, DW_AT_type(*$C$DW$T$65)
    2384                            .dwattr $C$DW$156, DW_AT_name("policyFxn")
    2385                            .dwattr $C$DW$156, DW_AT_TI_symbol_name("policyFxn")
    2386                            .dwattr $C$DW$156, DW_AT_data_member_location[DW_OP_plus_uconst 0x4]
    2387                            .dwattr $C$DW$156, DW_AT_accessibility(DW_ACCESS_public)
    2388                            .dwattr $C$DW$156, DW_AT_decl_file("C:/ti/simplelink_cc13x0_sdk_2_10_00_36/source/ti/drivers/p
    2389                            .dwattr $C$DW$156, DW_AT_decl_line(0x15d)
    2390                            .dwattr $C$DW$156, DW_AT_decl_column(0x15)
    2391                    
    2392                    $C$DW$157       .dwtag  DW_TAG_member
    2393                            .dwattr $C$DW$157, DW_AT_type(*$C$DW$T$67)
    2394                            .dwattr $C$DW$157, DW_AT_name("calibrateFxn")
    2395                            .dwattr $C$DW$157, DW_AT_TI_symbol_name("calibrateFxn")
    2396                            .dwattr $C$DW$157, DW_AT_data_member_location[DW_OP_plus_uconst 0x8]
    2397                            .dwattr $C$DW$157, DW_AT_accessibility(DW_ACCESS_public)
    2398                            .dwattr $C$DW$157, DW_AT_decl_file("C:/ti/simplelink_cc13x0_sdk_2_10_00_36/source/ti/drivers/p
    2399                            .dwattr $C$DW$157, DW_AT_decl_line(0x169)
    2400                            .dwattr $C$DW$157, DW_AT_decl_column(0x0c)
    2401                    
    2402                    $C$DW$158       .dwtag  DW_TAG_member
    2403                            .dwattr $C$DW$158, DW_AT_type(*$C$DW$T$45)
    2404                            .dwattr $C$DW$158, DW_AT_name("maxStandbyDuration")
    2405                            .dwattr $C$DW$158, DW_AT_TI_symbol_name("maxStandbyDuration")
    2406                            .dwattr $C$DW$158, DW_AT_data_member_location[DW_OP_plus_uconst 0xc]
    2407                            .dwattr $C$DW$158, DW_AT_accessibility(DW_ACCESS_public)
    2408                            .dwattr $C$DW$158, DW_AT_decl_file("C:/ti/simplelink_cc13x0_sdk_2_10_00_36/source/ti/drivers/p
    2409                            .dwattr $C$DW$158, DW_AT_decl_line(0x184)
    2410                            .dwattr $C$DW$158, DW_AT_decl_column(0x0e)
    2411                    
    2412                    $C$DW$159       .dwtag  DW_TAG_member
    2413                            .dwattr $C$DW$159, DW_AT_type(*$C$DW$T$68)
    2414                            .dwattr $C$DW$159, DW_AT_name("vddrRechargeMargin")
    2415                            .dwattr $C$DW$159, DW_AT_TI_symbol_name("vddrRechargeMargin")
    2416                            .dwattr $C$DW$159, DW_AT_data_member_location[DW_OP_plus_uconst 0x10]
    2417                            .dwattr $C$DW$159, DW_AT_accessibility(DW_ACCESS_public)
    2418                            .dwattr $C$DW$159, DW_AT_decl_file("C:/ti/simplelink_cc13x0_sdk_2_10_00_36/source/ti/drivers/p
    2419                            .dwattr $C$DW$159, DW_AT_decl_line(0x195)
    2420                            .dwattr $C$DW$159, DW_AT_decl_column(0x0e)
TI ARM Assembler PC v18.1.1 Wed Apr 25 09:49:01 2018

Tools Copyright (c) 1996-2017 Texas Instruments Incorporated
C:\Users\devops\AppData\Local\Temp\2\{EAE5C80A-95F4-4830-8AD5-3F5837318C3E} PAGE   45

    2421                    
    2422                    $C$DW$160       .dwtag  DW_TAG_member
    2423                            .dwattr $C$DW$160, DW_AT_type(*$C$DW$T$47)
    2424                            .dwattr $C$DW$160, DW_AT_name("enableMaxStandbyDuration")
    2425                            .dwattr $C$DW$160, DW_AT_TI_symbol_name("enableMaxStandbyDuration")
    2426                            .dwattr $C$DW$160, DW_AT_data_member_location[DW_OP_plus_uconst 0x12]
    2427                            .dwattr $C$DW$160, DW_AT_accessibility(DW_ACCESS_public)
    2428                            .dwattr $C$DW$160, DW_AT_decl_file("C:/ti/simplelink_cc13x0_sdk_2_10_00_36/source/ti/drivers/p
    2429                            .dwattr $C$DW$160, DW_AT_decl_line(0x1a2)
    2430                            .dwattr $C$DW$160, DW_AT_decl_column(0x0a)
    2431                    
    2432                    $C$DW$161       .dwtag  DW_TAG_member
    2433                            .dwattr $C$DW$161, DW_AT_type(*$C$DW$T$47)
    2434                            .dwattr $C$DW$161, DW_AT_name("enablePolicy")
    2435                            .dwattr $C$DW$161, DW_AT_TI_symbol_name("enablePolicy")
    2436                            .dwattr $C$DW$161, DW_AT_data_member_location[DW_OP_plus_uconst 0x13]
    2437                            .dwattr $C$DW$161, DW_AT_accessibility(DW_ACCESS_public)
    2438                            .dwattr $C$DW$161, DW_AT_decl_file("C:/ti/simplelink_cc13x0_sdk_2_10_00_36/source/ti/drivers/p
    2439                            .dwattr $C$DW$161, DW_AT_decl_line(0x1af)
    2440                            .dwattr $C$DW$161, DW_AT_decl_column(0x0a)
    2441                    
    2442                    $C$DW$162       .dwtag  DW_TAG_member
    2443                            .dwattr $C$DW$162, DW_AT_type(*$C$DW$T$47)
    2444                            .dwattr $C$DW$162, DW_AT_name("calibrateRCOSC_LF")
    2445                            .dwattr $C$DW$162, DW_AT_TI_symbol_name("calibrateRCOSC_LF")
    2446                            .dwattr $C$DW$162, DW_AT_data_member_location[DW_OP_plus_uconst 0x14]
    2447                            .dwattr $C$DW$162, DW_AT_accessibility(DW_ACCESS_public)
    2448                            .dwattr $C$DW$162, DW_AT_decl_file("C:/ti/simplelink_cc13x0_sdk_2_10_00_36/source/ti/drivers/p
    2449                            .dwattr $C$DW$162, DW_AT_decl_line(0x1b8)
    2450                            .dwattr $C$DW$162, DW_AT_decl_column(0x0a)
    2451                    
    2452                    $C$DW$163       .dwtag  DW_TAG_member
    2453                            .dwattr $C$DW$163, DW_AT_type(*$C$DW$T$47)
    2454                            .dwattr $C$DW$163, DW_AT_name("calibrateRCOSC_HF")
    2455                            .dwattr $C$DW$163, DW_AT_TI_symbol_name("calibrateRCOSC_HF")
    2456                            .dwattr $C$DW$163, DW_AT_data_member_location[DW_OP_plus_uconst 0x15]
    2457                            .dwattr $C$DW$163, DW_AT_accessibility(DW_ACCESS_public)
    2458                            .dwattr $C$DW$163, DW_AT_decl_file("C:/ti/simplelink_cc13x0_sdk_2_10_00_36/source/ti/drivers/p
    2459                            .dwattr $C$DW$163, DW_AT_decl_line(0x1c1)
    2460                            .dwattr $C$DW$163, DW_AT_decl_column(0x0a)
    2461                    
    2462                            .dwattr $C$DW$T$69, DW_AT_decl_file("C:/ti/simplelink_cc13x0_sdk_2_10_00_36/source/ti/drivers/
    2463                            .dwattr $C$DW$T$69, DW_AT_decl_line(0x140)
    2464                            .dwattr $C$DW$T$69, DW_AT_decl_column(0x10)
    2465                            .dwendtag $C$DW$T$69
    2466                    
    2467                    $C$DW$T$184     .dwtag  DW_TAG_typedef
    2468                            .dwattr $C$DW$T$184, DW_AT_name("PowerCC26XX_Config")
    2469                            .dwattr $C$DW$T$184, DW_AT_type(*$C$DW$T$69)
    2470                            .dwattr $C$DW$T$184, DW_AT_language(DW_LANG_C)
    2471                            .dwattr $C$DW$T$184, DW_AT_decl_file("C:/ti/simplelink_cc13x0_sdk_2_10_00_36/source/ti/drivers
    2472                            .dwattr $C$DW$T$184, DW_AT_decl_line(0x1c2)
    2473                            .dwattr $C$DW$T$184, DW_AT_decl_column(0x03)
    2474                    
    2475                    
TI ARM Assembler PC v18.1.1 Wed Apr 25 09:49:01 2018

Tools Copyright (c) 1996-2017 Texas Instruments Incorporated
C:\Users\devops\AppData\Local\Temp\2\{EAE5C80A-95F4-4830-8AD5-3F5837318C3E} PAGE   46

    2476                    $C$DW$T$81      .dwtag  DW_TAG_structure_type
    2477                            .dwattr $C$DW$T$81, DW_AT_name("PowerCC26XX_ModuleState")
    2478                            .dwattr $C$DW$T$81, DW_AT_byte_size(0x114)
    2479                    $C$DW$164       .dwtag  DW_TAG_member
    2480                            .dwattr $C$DW$164, DW_AT_type(*$C$DW$T$70)
    2481                            .dwattr $C$DW$164, DW_AT_name("notifyList")
    2482                            .dwattr $C$DW$164, DW_AT_TI_symbol_name("notifyList")
    2483                            .dwattr $C$DW$164, DW_AT_data_member_location[DW_OP_plus_uconst 0x0]
    2484                            .dwattr $C$DW$164, DW_AT_accessibility(DW_ACCESS_public)
    2485                            .dwattr $C$DW$164, DW_AT_decl_file("C:/ti/simplelink_cc13x0_sdk_2_10_00_36/source/ti/drivers/p
    2486                            .dwattr $C$DW$164, DW_AT_decl_line(0x1cb)
    2487                            .dwattr $C$DW$164, DW_AT_decl_column(0x0f)
    2488                    
    2489                    $C$DW$165       .dwtag  DW_TAG_member
    2490                            .dwattr $C$DW$165, DW_AT_type(*$C$DW$T$45)
    2491                            .dwattr $C$DW$165, DW_AT_name("constraintMask")
    2492                            .dwattr $C$DW$165, DW_AT_TI_symbol_name("constraintMask")
    2493                            .dwattr $C$DW$165, DW_AT_data_member_location[DW_OP_plus_uconst 0x8]
    2494                            .dwattr $C$DW$165, DW_AT_accessibility(DW_ACCESS_public)
    2495                            .dwattr $C$DW$165, DW_AT_decl_file("C:/ti/simplelink_cc13x0_sdk_2_10_00_36/source/ti/drivers/p
    2496                            .dwattr $C$DW$165, DW_AT_decl_line(0x1cc)
    2497                            .dwattr $C$DW$165, DW_AT_decl_column(0x0e)
    2498                    
    2499                    $C$DW$166       .dwtag  DW_TAG_member
    2500                            .dwattr $C$DW$166, DW_AT_type(*$C$DW$T$71)
    2501                            .dwattr $C$DW$166, DW_AT_name("clockObj")
    2502                            .dwattr $C$DW$166, DW_AT_TI_symbol_name("clockObj")
    2503                            .dwattr $C$DW$166, DW_AT_data_member_location[DW_OP_plus_uconst 0xc]
    2504                            .dwattr $C$DW$166, DW_AT_accessibility(DW_ACCESS_public)
    2505                            .dwattr $C$DW$166, DW_AT_decl_file("C:/ti/simplelink_cc13x0_sdk_2_10_00_36/source/ti/drivers/p
    2506                            .dwattr $C$DW$166, DW_AT_decl_line(0x1cd)
    2507                            .dwattr $C$DW$166, DW_AT_decl_column(0x13)
    2508                    
    2509                    $C$DW$167       .dwtag  DW_TAG_member
    2510                            .dwattr $C$DW$167, DW_AT_type(*$C$DW$T$71)
    2511                            .dwattr $C$DW$167, DW_AT_name("xoscClockObj")
    2512                            .dwattr $C$DW$167, DW_AT_TI_symbol_name("xoscClockObj")
    2513                            .dwattr $C$DW$167, DW_AT_data_member_location[DW_OP_plus_uconst 0x30]
    2514                            .dwattr $C$DW$167, DW_AT_accessibility(DW_ACCESS_public)
    2515                            .dwattr $C$DW$167, DW_AT_decl_file("C:/ti/simplelink_cc13x0_sdk_2_10_00_36/source/ti/drivers/p
    2516                            .dwattr $C$DW$167, DW_AT_decl_line(0x1ce)
    2517                            .dwattr $C$DW$167, DW_AT_decl_column(0x13)
    2518                    
    2519                    $C$DW$168       .dwtag  DW_TAG_member
    2520                            .dwattr $C$DW$168, DW_AT_type(*$C$DW$T$71)
    2521                            .dwattr $C$DW$168, DW_AT_name("lfClockObj")
    2522                            .dwattr $C$DW$168, DW_AT_TI_symbol_name("lfClockObj")
    2523                            .dwattr $C$DW$168, DW_AT_data_member_location[DW_OP_plus_uconst 0x54]
    2524                            .dwattr $C$DW$168, DW_AT_accessibility(DW_ACCESS_public)
    2525                            .dwattr $C$DW$168, DW_AT_decl_file("C:/ti/simplelink_cc13x0_sdk_2_10_00_36/source/ti/drivers/p
    2526                            .dwattr $C$DW$168, DW_AT_decl_line(0x1cf)
    2527                            .dwattr $C$DW$168, DW_AT_decl_column(0x13)
    2528                    
    2529                    $C$DW$169       .dwtag  DW_TAG_member
    2530                            .dwattr $C$DW$169, DW_AT_type(*$C$DW$T$71)
TI ARM Assembler PC v18.1.1 Wed Apr 25 09:49:01 2018

Tools Copyright (c) 1996-2017 Texas Instruments Incorporated
C:\Users\devops\AppData\Local\Temp\2\{EAE5C80A-95F4-4830-8AD5-3F5837318C3E} PAGE   47

    2531                            .dwattr $C$DW$169, DW_AT_name("calClockStruct")
    2532                            .dwattr $C$DW$169, DW_AT_TI_symbol_name("calClockStruct")
    2533                            .dwattr $C$DW$169, DW_AT_data_member_location[DW_OP_plus_uconst 0x78]
    2534                            .dwattr $C$DW$169, DW_AT_accessibility(DW_ACCESS_public)
    2535                            .dwattr $C$DW$169, DW_AT_decl_file("C:/ti/simplelink_cc13x0_sdk_2_10_00_36/source/ti/drivers/p
    2536                            .dwattr $C$DW$169, DW_AT_decl_line(0x1d0)
    2537                            .dwattr $C$DW$169, DW_AT_decl_column(0x13)
    2538                    
    2539                    $C$DW$170       .dwtag  DW_TAG_member
    2540                            .dwattr $C$DW$170, DW_AT_type(*$C$DW$T$72)
    2541                            .dwattr $C$DW$170, DW_AT_name("hwiStruct")
    2542                            .dwattr $C$DW$170, DW_AT_TI_symbol_name("hwiStruct")
    2543                            .dwattr $C$DW$170, DW_AT_data_member_location[DW_OP_plus_uconst 0x9c]
    2544                            .dwattr $C$DW$170, DW_AT_accessibility(DW_ACCESS_public)
    2545                            .dwattr $C$DW$170, DW_AT_decl_file("C:/ti/simplelink_cc13x0_sdk_2_10_00_36/source/ti/drivers/p
    2546                            .dwattr $C$DW$170, DW_AT_decl_line(0x1d1)
    2547                            .dwattr $C$DW$170, DW_AT_decl_column(0x11)
    2548                    
    2549                    $C$DW$171       .dwtag  DW_TAG_member
    2550                            .dwattr $C$DW$171, DW_AT_type(*$C$DW$T$74)
    2551                            .dwattr $C$DW$171, DW_AT_name("nDeltaFreqCurr")
    2552                            .dwattr $C$DW$171, DW_AT_TI_symbol_name("nDeltaFreqCurr")
    2553                            .dwattr $C$DW$171, DW_AT_data_member_location[DW_OP_plus_uconst 0xb8]
    2554                            .dwattr $C$DW$171, DW_AT_accessibility(DW_ACCESS_public)
    2555                            .dwattr $C$DW$171, DW_AT_decl_file("C:/ti/simplelink_cc13x0_sdk_2_10_00_36/source/ti/drivers/p
    2556                            .dwattr $C$DW$171, DW_AT_decl_line(0x1d2)
    2557                            .dwattr $C$DW$171, DW_AT_decl_column(0x0d)
    2558                    
    2559                    $C$DW$172       .dwtag  DW_TAG_member
    2560                            .dwattr $C$DW$172, DW_AT_type(*$C$DW$T$74)
    2561                            .dwattr $C$DW$172, DW_AT_name("nCtrimCurr")
    2562                            .dwattr $C$DW$172, DW_AT_TI_symbol_name("nCtrimCurr")
    2563                            .dwattr $C$DW$172, DW_AT_data_member_location[DW_OP_plus_uconst 0xbc]
    2564                            .dwattr $C$DW$172, DW_AT_accessibility(DW_ACCESS_public)
    2565                            .dwattr $C$DW$172, DW_AT_decl_file("C:/ti/simplelink_cc13x0_sdk_2_10_00_36/source/ti/drivers/p
    2566                            .dwattr $C$DW$172, DW_AT_decl_line(0x1d3)
    2567                            .dwattr $C$DW$172, DW_AT_decl_column(0x0d)
    2568                    
    2569                    $C$DW$173       .dwtag  DW_TAG_member
    2570                            .dwattr $C$DW$173, DW_AT_type(*$C$DW$T$74)
    2571                            .dwattr $C$DW$173, DW_AT_name("nCtrimFractCurr")
    2572                            .dwattr $C$DW$173, DW_AT_TI_symbol_name("nCtrimFractCurr")
    2573                            .dwattr $C$DW$173, DW_AT_data_member_location[DW_OP_plus_uconst 0xc0]
    2574                            .dwattr $C$DW$173, DW_AT_accessibility(DW_ACCESS_public)
    2575                            .dwattr $C$DW$173, DW_AT_decl_file("C:/ti/simplelink_cc13x0_sdk_2_10_00_36/source/ti/drivers/p
    2576                            .dwattr $C$DW$173, DW_AT_decl_line(0x1d4)
    2577                            .dwattr $C$DW$173, DW_AT_decl_column(0x0d)
    2578                    
    2579                    $C$DW$174       .dwtag  DW_TAG_member
    2580                            .dwattr $C$DW$174, DW_AT_type(*$C$DW$T$74)
    2581                            .dwattr $C$DW$174, DW_AT_name("nCtrimNew")
    2582                            .dwattr $C$DW$174, DW_AT_TI_symbol_name("nCtrimNew")
    2583                            .dwattr $C$DW$174, DW_AT_data_member_location[DW_OP_plus_uconst 0xc4]
    2584                            .dwattr $C$DW$174, DW_AT_accessibility(DW_ACCESS_public)
    2585                            .dwattr $C$DW$174, DW_AT_decl_file("C:/ti/simplelink_cc13x0_sdk_2_10_00_36/source/ti/drivers/p
TI ARM Assembler PC v18.1.1 Wed Apr 25 09:49:01 2018

Tools Copyright (c) 1996-2017 Texas Instruments Incorporated
C:\Users\devops\AppData\Local\Temp\2\{EAE5C80A-95F4-4830-8AD5-3F5837318C3E} PAGE   48

    2586                            .dwattr $C$DW$174, DW_AT_decl_line(0x1d5)
    2587                            .dwattr $C$DW$174, DW_AT_decl_column(0x0d)
    2588                    
    2589                    $C$DW$175       .dwtag  DW_TAG_member
    2590                            .dwattr $C$DW$175, DW_AT_type(*$C$DW$T$74)
    2591                            .dwattr $C$DW$175, DW_AT_name("nCtrimFractNew")
    2592                            .dwattr $C$DW$175, DW_AT_TI_symbol_name("nCtrimFractNew")
    2593                            .dwattr $C$DW$175, DW_AT_data_member_location[DW_OP_plus_uconst 0xc8]
    2594                            .dwattr $C$DW$175, DW_AT_accessibility(DW_ACCESS_public)
    2595                            .dwattr $C$DW$175, DW_AT_decl_file("C:/ti/simplelink_cc13x0_sdk_2_10_00_36/source/ti/drivers/p
    2596                            .dwattr $C$DW$175, DW_AT_decl_line(0x1d6)
    2597                            .dwattr $C$DW$175, DW_AT_decl_column(0x0d)
    2598                    
    2599                    $C$DW$176       .dwtag  DW_TAG_member
    2600                            .dwattr $C$DW$176, DW_AT_type(*$C$DW$T$74)
    2601                            .dwattr $C$DW$176, DW_AT_name("nRtrimNew")
    2602                            .dwattr $C$DW$176, DW_AT_TI_symbol_name("nRtrimNew")
    2603                            .dwattr $C$DW$176, DW_AT_data_member_location[DW_OP_plus_uconst 0xcc]
    2604                            .dwattr $C$DW$176, DW_AT_accessibility(DW_ACCESS_public)
    2605                            .dwattr $C$DW$176, DW_AT_decl_file("C:/ti/simplelink_cc13x0_sdk_2_10_00_36/source/ti/drivers/p
    2606                            .dwattr $C$DW$176, DW_AT_decl_line(0x1d7)
    2607                            .dwattr $C$DW$176, DW_AT_decl_column(0x0d)
    2608                    
    2609                    $C$DW$177       .dwtag  DW_TAG_member
    2610                            .dwattr $C$DW$177, DW_AT_type(*$C$DW$T$74)
    2611                            .dwattr $C$DW$177, DW_AT_name("nRtrimCurr")
    2612                            .dwattr $C$DW$177, DW_AT_TI_symbol_name("nRtrimCurr")
    2613                            .dwattr $C$DW$177, DW_AT_data_member_location[DW_OP_plus_uconst 0xd0]
    2614                            .dwattr $C$DW$177, DW_AT_accessibility(DW_ACCESS_public)
    2615                            .dwattr $C$DW$177, DW_AT_decl_file("C:/ti/simplelink_cc13x0_sdk_2_10_00_36/source/ti/drivers/p
    2616                            .dwattr $C$DW$177, DW_AT_decl_line(0x1d8)
    2617                            .dwattr $C$DW$177, DW_AT_decl_column(0x0d)
    2618                    
    2619                    $C$DW$178       .dwtag  DW_TAG_member
    2620                            .dwattr $C$DW$178, DW_AT_type(*$C$DW$T$74)
    2621                            .dwattr $C$DW$178, DW_AT_name("nDeltaFreqNew")
    2622                            .dwattr $C$DW$178, DW_AT_TI_symbol_name("nDeltaFreqNew")
    2623                            .dwattr $C$DW$178, DW_AT_data_member_location[DW_OP_plus_uconst 0xd4]
    2624                            .dwattr $C$DW$178, DW_AT_accessibility(DW_ACCESS_public)
    2625                            .dwattr $C$DW$178, DW_AT_decl_file("C:/ti/simplelink_cc13x0_sdk_2_10_00_36/source/ti/drivers/p
    2626                            .dwattr $C$DW$178, DW_AT_decl_line(0x1d9)
    2627                            .dwattr $C$DW$178, DW_AT_decl_column(0x0d)
    2628                    
    2629                    $C$DW$179       .dwtag  DW_TAG_member
    2630                            .dwattr $C$DW$179, DW_AT_type(*$C$DW$T$47)
    2631                            .dwattr $C$DW$179, DW_AT_name("bRefine")
    2632                            .dwattr $C$DW$179, DW_AT_TI_symbol_name("bRefine")
    2633                            .dwattr $C$DW$179, DW_AT_data_member_location[DW_OP_plus_uconst 0xd8]
    2634                            .dwattr $C$DW$179, DW_AT_accessibility(DW_ACCESS_public)
    2635                            .dwattr $C$DW$179, DW_AT_decl_file("C:/ti/simplelink_cc13x0_sdk_2_10_00_36/source/ti/drivers/p
    2636                            .dwattr $C$DW$179, DW_AT_decl_line(0x1da)
    2637                            .dwattr $C$DW$179, DW_AT_decl_column(0x0a)
    2638                    
    2639                    $C$DW$180       .dwtag  DW_TAG_member
    2640                            .dwattr $C$DW$180, DW_AT_type(*$C$DW$T$45)
TI ARM Assembler PC v18.1.1 Wed Apr 25 09:49:01 2018

Tools Copyright (c) 1996-2017 Texas Instruments Incorporated
C:\Users\devops\AppData\Local\Temp\2\{EAE5C80A-95F4-4830-8AD5-3F5837318C3E} PAGE   49

    2641                            .dwattr $C$DW$180, DW_AT_name("state")
    2642                            .dwattr $C$DW$180, DW_AT_TI_symbol_name("state")
    2643                            .dwattr $C$DW$180, DW_AT_data_member_location[DW_OP_plus_uconst 0xdc]
    2644                            .dwattr $C$DW$180, DW_AT_accessibility(DW_ACCESS_public)
    2645                            .dwattr $C$DW$180, DW_AT_decl_file("C:/ti/simplelink_cc13x0_sdk_2_10_00_36/source/ti/drivers/p
    2646                            .dwattr $C$DW$180, DW_AT_decl_line(0x1db)
    2647                            .dwattr $C$DW$180, DW_AT_decl_column(0x0e)
    2648                    
    2649                    $C$DW$181       .dwtag  DW_TAG_member
    2650                            .dwattr $C$DW$181, DW_AT_type(*$C$DW$T$47)
    2651                            .dwattr $C$DW$181, DW_AT_name("xoscPending")
    2652                            .dwattr $C$DW$181, DW_AT_TI_symbol_name("xoscPending")
    2653                            .dwattr $C$DW$181, DW_AT_data_member_location[DW_OP_plus_uconst 0xe0]
    2654                            .dwattr $C$DW$181, DW_AT_accessibility(DW_ACCESS_public)
    2655                            .dwattr $C$DW$181, DW_AT_decl_file("C:/ti/simplelink_cc13x0_sdk_2_10_00_36/source/ti/drivers/p
    2656                            .dwattr $C$DW$181, DW_AT_decl_line(0x1dc)
    2657                            .dwattr $C$DW$181, DW_AT_decl_column(0x0a)
    2658                    
    2659                    $C$DW$182       .dwtag  DW_TAG_member
    2660                            .dwattr $C$DW$182, DW_AT_type(*$C$DW$T$47)
    2661                            .dwattr $C$DW$182, DW_AT_name("calLF")
    2662                            .dwattr $C$DW$182, DW_AT_TI_symbol_name("calLF")
    2663                            .dwattr $C$DW$182, DW_AT_data_member_location[DW_OP_plus_uconst 0xe1]
    2664                            .dwattr $C$DW$182, DW_AT_accessibility(DW_ACCESS_public)
    2665                            .dwattr $C$DW$182, DW_AT_decl_file("C:/ti/simplelink_cc13x0_sdk_2_10_00_36/source/ti/drivers/p
    2666                            .dwattr $C$DW$182, DW_AT_decl_line(0x1dd)
    2667                            .dwattr $C$DW$182, DW_AT_decl_column(0x0a)
    2668                    
    2669                    $C$DW$183       .dwtag  DW_TAG_member
    2670                            .dwattr $C$DW$183, DW_AT_type(*$C$DW$T$75)
    2671                            .dwattr $C$DW$183, DW_AT_name("hwiState")
    2672                            .dwattr $C$DW$183, DW_AT_TI_symbol_name("hwiState")
    2673                            .dwattr $C$DW$183, DW_AT_data_member_location[DW_OP_plus_uconst 0xe2]
    2674                            .dwattr $C$DW$183, DW_AT_accessibility(DW_ACCESS_public)
    2675                            .dwattr $C$DW$183, DW_AT_decl_file("C:/ti/simplelink_cc13x0_sdk_2_10_00_36/source/ti/drivers/p
    2676                            .dwattr $C$DW$183, DW_AT_decl_line(0x1de)
    2677                            .dwattr $C$DW$183, DW_AT_decl_column(0x0d)
    2678                    
    2679                    $C$DW$184       .dwtag  DW_TAG_member
    2680                            .dwattr $C$DW$184, DW_AT_type(*$C$DW$T$47)
    2681                            .dwattr $C$DW$184, DW_AT_name("busyCal")
    2682                            .dwattr $C$DW$184, DW_AT_TI_symbol_name("busyCal")
    2683                            .dwattr $C$DW$184, DW_AT_data_member_location[DW_OP_plus_uconst 0xe3]
    2684                            .dwattr $C$DW$184, DW_AT_accessibility(DW_ACCESS_public)
    2685                            .dwattr $C$DW$184, DW_AT_decl_file("C:/ti/simplelink_cc13x0_sdk_2_10_00_36/source/ti/drivers/p
    2686                            .dwattr $C$DW$184, DW_AT_decl_line(0x1df)
    2687                            .dwattr $C$DW$184, DW_AT_decl_column(0x0a)
    2688                    
    2689                    $C$DW$185       .dwtag  DW_TAG_member
    2690                            .dwattr $C$DW$185, DW_AT_type(*$C$DW$T$75)
    2691                            .dwattr $C$DW$185, DW_AT_name("calStep")
    2692                            .dwattr $C$DW$185, DW_AT_TI_symbol_name("calStep")
    2693                            .dwattr $C$DW$185, DW_AT_data_member_location[DW_OP_plus_uconst 0xe4]
    2694                            .dwattr $C$DW$185, DW_AT_accessibility(DW_ACCESS_public)
    2695                            .dwattr $C$DW$185, DW_AT_decl_file("C:/ti/simplelink_cc13x0_sdk_2_10_00_36/source/ti/drivers/p
TI ARM Assembler PC v18.1.1 Wed Apr 25 09:49:01 2018

Tools Copyright (c) 1996-2017 Texas Instruments Incorporated
C:\Users\devops\AppData\Local\Temp\2\{EAE5C80A-95F4-4830-8AD5-3F5837318C3E} PAGE   50

    2696                            .dwattr $C$DW$185, DW_AT_decl_line(0x1e0)
    2697                            .dwattr $C$DW$185, DW_AT_decl_column(0x0d)
    2698                    
    2699                    $C$DW$186       .dwtag  DW_TAG_member
    2700                            .dwattr $C$DW$186, DW_AT_type(*$C$DW$T$47)
    2701                            .dwattr $C$DW$186, DW_AT_name("firstLF")
    2702                            .dwattr $C$DW$186, DW_AT_TI_symbol_name("firstLF")
    2703                            .dwattr $C$DW$186, DW_AT_data_member_location[DW_OP_plus_uconst 0xe5]
    2704                            .dwattr $C$DW$186, DW_AT_accessibility(DW_ACCESS_public)
    2705                            .dwattr $C$DW$186, DW_AT_decl_file("C:/ti/simplelink_cc13x0_sdk_2_10_00_36/source/ti/drivers/p
    2706                            .dwattr $C$DW$186, DW_AT_decl_line(0x1e1)
    2707                            .dwattr $C$DW$186, DW_AT_decl_column(0x0a)
    2708                    
    2709                    $C$DW$187       .dwtag  DW_TAG_member
    2710                            .dwattr $C$DW$187, DW_AT_type(*$C$DW$T$47)
    2711                            .dwattr $C$DW$187, DW_AT_name("enablePolicy")
    2712                            .dwattr $C$DW$187, DW_AT_TI_symbol_name("enablePolicy")
    2713                            .dwattr $C$DW$187, DW_AT_data_member_location[DW_OP_plus_uconst 0xe6]
    2714                            .dwattr $C$DW$187, DW_AT_accessibility(DW_ACCESS_public)
    2715                            .dwattr $C$DW$187, DW_AT_decl_file("C:/ti/simplelink_cc13x0_sdk_2_10_00_36/source/ti/drivers/p
    2716                            .dwattr $C$DW$187, DW_AT_decl_line(0x1e2)
    2717                            .dwattr $C$DW$187, DW_AT_decl_column(0x0a)
    2718                    
    2719                    $C$DW$188       .dwtag  DW_TAG_member
    2720                            .dwattr $C$DW$188, DW_AT_type(*$C$DW$T$47)
    2721                            .dwattr $C$DW$188, DW_AT_name("initialized")
    2722                            .dwattr $C$DW$188, DW_AT_TI_symbol_name("initialized")
    2723                            .dwattr $C$DW$188, DW_AT_data_member_location[DW_OP_plus_uconst 0xe7]
    2724                            .dwattr $C$DW$188, DW_AT_accessibility(DW_ACCESS_public)
    2725                            .dwattr $C$DW$188, DW_AT_decl_file("C:/ti/simplelink_cc13x0_sdk_2_10_00_36/source/ti/drivers/p
    2726                            .dwattr $C$DW$188, DW_AT_decl_line(0x1e3)
    2727                            .dwattr $C$DW$188, DW_AT_decl_column(0x0a)
    2728                    
    2729                    $C$DW$189       .dwtag  DW_TAG_member
    2730                            .dwattr $C$DW$189, DW_AT_type(*$C$DW$T$76)
    2731                            .dwattr $C$DW$189, DW_AT_name("constraintCounts")
    2732                            .dwattr $C$DW$189, DW_AT_TI_symbol_name("constraintCounts")
    2733                            .dwattr $C$DW$189, DW_AT_data_member_location[DW_OP_plus_uconst 0xe8]
    2734                            .dwattr $C$DW$189, DW_AT_accessibility(DW_ACCESS_public)
    2735                            .dwattr $C$DW$189, DW_AT_decl_file("C:/ti/simplelink_cc13x0_sdk_2_10_00_36/source/ti/drivers/p
    2736                            .dwattr $C$DW$189, DW_AT_decl_line(0x1e7)
    2737                            .dwattr $C$DW$189, DW_AT_decl_column(0x0d)
    2738                    
    2739                    $C$DW$190       .dwtag  DW_TAG_member
    2740                            .dwattr $C$DW$190, DW_AT_type(*$C$DW$T$77)
    2741                            .dwattr $C$DW$190, DW_AT_name("resourceCounts")
    2742                            .dwattr $C$DW$190, DW_AT_TI_symbol_name("resourceCounts")
    2743                            .dwattr $C$DW$190, DW_AT_data_member_location[DW_OP_plus_uconst 0xef]
    2744                            .dwattr $C$DW$190, DW_AT_accessibility(DW_ACCESS_public)
    2745                            .dwattr $C$DW$190, DW_AT_decl_file("C:/ti/simplelink_cc13x0_sdk_2_10_00_36/source/ti/drivers/p
    2746                            .dwattr $C$DW$190, DW_AT_decl_line(0x1e9)
    2747                            .dwattr $C$DW$190, DW_AT_decl_column(0x0d)
    2748                    
    2749                    $C$DW$191       .dwtag  DW_TAG_member
    2750                            .dwattr $C$DW$191, DW_AT_type(*$C$DW$T$80)
TI ARM Assembler PC v18.1.1 Wed Apr 25 09:49:01 2018

Tools Copyright (c) 1996-2017 Texas Instruments Incorporated
C:\Users\devops\AppData\Local\Temp\2\{EAE5C80A-95F4-4830-8AD5-3F5837318C3E} PAGE   51

    2751                            .dwattr $C$DW$191, DW_AT_name("resourceHandlers")
    2752                            .dwattr $C$DW$191, DW_AT_TI_symbol_name("resourceHandlers")
    2753                            .dwattr $C$DW$191, DW_AT_data_member_location[DW_OP_plus_uconst 0x104]
    2754                            .dwattr $C$DW$191, DW_AT_accessibility(DW_ACCESS_public)
    2755                            .dwattr $C$DW$191, DW_AT_decl_file("C:/ti/simplelink_cc13x0_sdk_2_10_00_36/source/ti/drivers/p
    2756                            .dwattr $C$DW$191, DW_AT_decl_line(0x1eb)
    2757                            .dwattr $C$DW$191, DW_AT_decl_column(0x14)
    2758                    
    2759                    $C$DW$192       .dwtag  DW_TAG_member
    2760                            .dwattr $C$DW$192, DW_AT_type(*$C$DW$T$65)
    2761                            .dwattr $C$DW$192, DW_AT_name("policyFxn")
    2762                            .dwattr $C$DW$192, DW_AT_TI_symbol_name("policyFxn")
    2763                            .dwattr $C$DW$192, DW_AT_data_member_location[DW_OP_plus_uconst 0x110]
    2764                            .dwattr $C$DW$192, DW_AT_accessibility(DW_ACCESS_public)
    2765                            .dwattr $C$DW$192, DW_AT_decl_file("C:/ti/simplelink_cc13x0_sdk_2_10_00_36/source/ti/drivers/p
    2766                            .dwattr $C$DW$192, DW_AT_decl_line(0x1ed)
    2767                            .dwattr $C$DW$192, DW_AT_decl_column(0x15)
    2768                    
    2769                            .dwattr $C$DW$T$81, DW_AT_decl_file("C:/ti/simplelink_cc13x0_sdk_2_10_00_36/source/ti/drivers/
    2770                            .dwattr $C$DW$T$81, DW_AT_decl_line(0x1ca)
    2771                            .dwattr $C$DW$T$81, DW_AT_decl_column(0x10)
    2772                            .dwendtag $C$DW$T$81
    2773                    
    2774                    $C$DW$T$185     .dwtag  DW_TAG_typedef
    2775                            .dwattr $C$DW$T$185, DW_AT_name("PowerCC26XX_ModuleState")
    2776                            .dwattr $C$DW$T$185, DW_AT_type(*$C$DW$T$81)
    2777                            .dwattr $C$DW$T$185, DW_AT_language(DW_LANG_C)
    2778                            .dwattr $C$DW$T$185, DW_AT_decl_file("C:/ti/simplelink_cc13x0_sdk_2_10_00_36/source/ti/drivers
    2779                            .dwattr $C$DW$T$185, DW_AT_decl_line(0x1ee)
    2780                            .dwattr $C$DW$T$185, DW_AT_decl_column(0x03)
    2781                    
    2782                    
    2783                    $C$DW$T$82      .dwtag  DW_TAG_structure_type
    2784                            .dwattr $C$DW$T$82, DW_AT_name("PowerCC26XX_ResourceRecord")
    2785                            .dwattr $C$DW$T$82, DW_AT_byte_size(0x04)
    2786                    $C$DW$193       .dwtag  DW_TAG_member
    2787                            .dwattr $C$DW$193, DW_AT_type(*$C$DW$T$75)
    2788                            .dwattr $C$DW$193, DW_AT_name("flags")
    2789                            .dwattr $C$DW$193, DW_AT_TI_symbol_name("flags")
    2790                            .dwattr $C$DW$193, DW_AT_data_member_location[DW_OP_plus_uconst 0x0]
    2791                            .dwattr $C$DW$193, DW_AT_accessibility(DW_ACCESS_public)
    2792                            .dwattr $C$DW$193, DW_AT_decl_file("C:/ti/simplelink_cc13x0_sdk_2_10_00_36/source/ti/drivers/p
    2793                            .dwattr $C$DW$193, DW_AT_decl_line(0x13a)
    2794                            .dwattr $C$DW$193, DW_AT_decl_column(0x0d)
    2795                    
    2796                    $C$DW$194       .dwtag  DW_TAG_member
    2797                            .dwattr $C$DW$194, DW_AT_type(*$C$DW$T$68)
    2798                            .dwattr $C$DW$194, DW_AT_name("driverlibID")
    2799                            .dwattr $C$DW$194, DW_AT_TI_symbol_name("driverlibID")
    2800                            .dwattr $C$DW$194, DW_AT_data_member_location[DW_OP_plus_uconst 0x2]
    2801                            .dwattr $C$DW$194, DW_AT_accessibility(DW_ACCESS_public)
    2802                            .dwattr $C$DW$194, DW_AT_decl_file("C:/ti/simplelink_cc13x0_sdk_2_10_00_36/source/ti/drivers/p
    2803                            .dwattr $C$DW$194, DW_AT_decl_line(0x13b)
    2804                            .dwattr $C$DW$194, DW_AT_decl_column(0x0e)
    2805                    
TI ARM Assembler PC v18.1.1 Wed Apr 25 09:49:01 2018

Tools Copyright (c) 1996-2017 Texas Instruments Incorporated
C:\Users\devops\AppData\Local\Temp\2\{EAE5C80A-95F4-4830-8AD5-3F5837318C3E} PAGE   52

    2806                            .dwattr $C$DW$T$82, DW_AT_decl_file("C:/ti/simplelink_cc13x0_sdk_2_10_00_36/source/ti/drivers/
    2807                            .dwattr $C$DW$T$82, DW_AT_decl_line(0x139)
    2808                            .dwattr $C$DW$T$82, DW_AT_decl_column(0x10)
    2809                            .dwendtag $C$DW$T$82
    2810                    
    2811                    $C$DW$T$186     .dwtag  DW_TAG_typedef
    2812                            .dwattr $C$DW$T$186, DW_AT_name("PowerCC26XX_ResourceRecord")
    2813                            .dwattr $C$DW$T$186, DW_AT_type(*$C$DW$T$82)
    2814                            .dwattr $C$DW$T$186, DW_AT_language(DW_LANG_C)
    2815                            .dwattr $C$DW$T$186, DW_AT_decl_file("C:/ti/simplelink_cc13x0_sdk_2_10_00_36/source/ti/drivers
    2816                            .dwattr $C$DW$T$186, DW_AT_decl_line(0x13c)
    2817                            .dwattr $C$DW$T$186, DW_AT_decl_column(0x03)
    2818                    
    2819                    
    2820                    $C$DW$T$90      .dwtag  DW_TAG_structure_type
    2821                            .dwattr $C$DW$T$90, DW_AT_name("Power_NotifyObj_")
    2822                            .dwattr $C$DW$T$90, DW_AT_byte_size(0x14)
    2823                    $C$DW$195       .dwtag  DW_TAG_member
    2824                            .dwattr $C$DW$195, DW_AT_type(*$C$DW$T$59)
    2825                            .dwattr $C$DW$195, DW_AT_name("link")
    2826                            .dwattr $C$DW$195, DW_AT_TI_symbol_name("link")
    2827                            .dwattr $C$DW$195, DW_AT_data_member_location[DW_OP_plus_uconst 0x0]
    2828                            .dwattr $C$DW$195, DW_AT_accessibility(DW_ACCESS_public)
    2829                            .dwattr $C$DW$195, DW_AT_decl_file("C:/ti/simplelink_cc13x0_sdk_2_10_00_36/source/ti/drivers/P
    2830                            .dwattr $C$DW$195, DW_AT_decl_line(0x7a)
    2831                            .dwattr $C$DW$195, DW_AT_decl_column(0x0f)
    2832                    
    2833                    $C$DW$196       .dwtag  DW_TAG_member
    2834                            .dwattr $C$DW$196, DW_AT_type(*$C$DW$T$84)
    2835                            .dwattr $C$DW$196, DW_AT_name("eventTypes")
    2836                            .dwattr $C$DW$196, DW_AT_TI_symbol_name("eventTypes")
    2837                            .dwattr $C$DW$196, DW_AT_data_member_location[DW_OP_plus_uconst 0x8]
    2838                            .dwattr $C$DW$196, DW_AT_accessibility(DW_ACCESS_public)
    2839                            .dwattr $C$DW$196, DW_AT_decl_file("C:/ti/simplelink_cc13x0_sdk_2_10_00_36/source/ti/drivers/P
    2840                            .dwattr $C$DW$196, DW_AT_decl_line(0x7b)
    2841                            .dwattr $C$DW$196, DW_AT_decl_column(0x13)
    2842                    
    2843                    $C$DW$197       .dwtag  DW_TAG_member
    2844                            .dwattr $C$DW$197, DW_AT_type(*$C$DW$T$89)
    2845                            .dwattr $C$DW$197, DW_AT_name("notifyFxn")
    2846                            .dwattr $C$DW$197, DW_AT_TI_symbol_name("notifyFxn")
    2847                            .dwattr $C$DW$197, DW_AT_data_member_location[DW_OP_plus_uconst 0xc]
    2848                            .dwattr $C$DW$197, DW_AT_accessibility(DW_ACCESS_public)
    2849                            .dwattr $C$DW$197, DW_AT_decl_file("C:/ti/simplelink_cc13x0_sdk_2_10_00_36/source/ti/drivers/P
    2850                            .dwattr $C$DW$197, DW_AT_decl_line(0x7c)
    2851                            .dwattr $C$DW$197, DW_AT_decl_column(0x15)
    2852                    
    2853                    $C$DW$198       .dwtag  DW_TAG_member
    2854                            .dwattr $C$DW$198, DW_AT_type(*$C$DW$T$49)
    2855                            .dwattr $C$DW$198, DW_AT_name("clientArg")
    2856                            .dwattr $C$DW$198, DW_AT_TI_symbol_name("clientArg")
    2857                            .dwattr $C$DW$198, DW_AT_data_member_location[DW_OP_plus_uconst 0x10]
    2858                            .dwattr $C$DW$198, DW_AT_accessibility(DW_ACCESS_public)
    2859                            .dwattr $C$DW$198, DW_AT_decl_file("C:/ti/simplelink_cc13x0_sdk_2_10_00_36/source/ti/drivers/P
    2860                            .dwattr $C$DW$198, DW_AT_decl_line(0x7d)
TI ARM Assembler PC v18.1.1 Wed Apr 25 09:49:01 2018

Tools Copyright (c) 1996-2017 Texas Instruments Incorporated
C:\Users\devops\AppData\Local\Temp\2\{EAE5C80A-95F4-4830-8AD5-3F5837318C3E} PAGE   53

    2861                            .dwattr $C$DW$198, DW_AT_decl_column(0x0f)
    2862                    
    2863                            .dwattr $C$DW$T$90, DW_AT_decl_file("C:/ti/simplelink_cc13x0_sdk_2_10_00_36/source/ti/drivers/
    2864                            .dwattr $C$DW$T$90, DW_AT_decl_line(0x79)
    2865                            .dwattr $C$DW$T$90, DW_AT_decl_column(0x10)
    2866                            .dwendtag $C$DW$T$90
    2867                    
    2868                    $C$DW$T$187     .dwtag  DW_TAG_typedef
    2869                            .dwattr $C$DW$T$187, DW_AT_name("Power_NotifyObj")
    2870                            .dwattr $C$DW$T$187, DW_AT_type(*$C$DW$T$90)
    2871                            .dwattr $C$DW$T$187, DW_AT_language(DW_LANG_C)
    2872                            .dwattr $C$DW$T$187, DW_AT_decl_file("C:/ti/simplelink_cc13x0_sdk_2_10_00_36/source/ti/drivers
    2873                            .dwattr $C$DW$T$187, DW_AT_decl_line(0x7e)
    2874                            .dwattr $C$DW$T$187, DW_AT_decl_column(0x03)
    2875                    
    2876                    $C$DW$T$188     .dwtag  DW_TAG_pointer_type
    2877                            .dwattr $C$DW$T$188, DW_AT_type(*$C$DW$T$187)
    2878                            .dwattr $C$DW$T$188, DW_AT_address_class(0x20)
    2879                    
    2880                    
    2881                    $C$DW$T$91      .dwtag  DW_TAG_structure_type
    2882                            .dwattr $C$DW$T$91, DW_AT_name("_ICall_LiteCmdStatus_")
    2883                            .dwattr $C$DW$T$91, DW_AT_byte_size(0x01)
    2884                    $C$DW$199       .dwtag  DW_TAG_member
    2885                            .dwattr $C$DW$199, DW_AT_type(*$C$DW$T$36)
    2886                            .dwattr $C$DW$199, DW_AT_name("cmdId")
    2887                            .dwattr $C$DW$199, DW_AT_TI_symbol_name("cmdId")
    2888                            .dwattr $C$DW$199, DW_AT_data_member_location[DW_OP_plus_uconst 0x0]
    2889                            .dwattr $C$DW$199, DW_AT_accessibility(DW_ACCESS_public)
    2890                            .dwattr $C$DW$199, DW_AT_decl_file("C:\ti\simplelink_cc13x0_sdk_2_10_00_36\source\ti\ti154stac
    2891                            .dwattr $C$DW$199, DW_AT_decl_line(0x3f0)
    2892                            .dwattr $C$DW$199, DW_AT_decl_column(0x11)
    2893                    
    2894                            .dwattr $C$DW$T$91, DW_AT_decl_file("C:\ti\simplelink_cc13x0_sdk_2_10_00_36\source\ti\ti154sta
    2895                            .dwattr $C$DW$T$91, DW_AT_decl_line(0x3ee)
    2896                            .dwattr $C$DW$T$91, DW_AT_decl_column(0x10)
    2897                            .dwendtag $C$DW$T$91
    2898                    
    2899                    $C$DW$T$190     .dwtag  DW_TAG_typedef
    2900                            .dwattr $C$DW$T$190, DW_AT_name("ICall_LiteCmdStatus")
    2901                            .dwattr $C$DW$T$190, DW_AT_type(*$C$DW$T$91)
    2902                            .dwattr $C$DW$T$190, DW_AT_language(DW_LANG_C)
    2903                            .dwattr $C$DW$T$190, DW_AT_decl_file("C:\ti\simplelink_cc13x0_sdk_2_10_00_36\source\ti\ti154st
    2904                            .dwattr $C$DW$T$190, DW_AT_decl_line(0x3f1)
    2905                            .dwattr $C$DW$T$190, DW_AT_decl_column(0x03)
    2906                    
    2907                    $C$DW$T$2       .dwtag  DW_TAG_unspecified_type
    2908                            .dwattr $C$DW$T$2, DW_AT_name("void")
    2909                    
    2910                    $C$DW$T$3       .dwtag  DW_TAG_pointer_type
    2911                            .dwattr $C$DW$T$3, DW_AT_type(*$C$DW$T$2)
    2912                            .dwattr $C$DW$T$3, DW_AT_address_class(0x20)
    2913                    
    2914                    $C$DW$T$191     .dwtag  DW_TAG_typedef
    2915                            .dwattr $C$DW$T$191, DW_AT_name("ClockP_Handle")
TI ARM Assembler PC v18.1.1 Wed Apr 25 09:49:01 2018

Tools Copyright (c) 1996-2017 Texas Instruments Incorporated
C:\Users\devops\AppData\Local\Temp\2\{EAE5C80A-95F4-4830-8AD5-3F5837318C3E} PAGE   54

    2916                            .dwattr $C$DW$T$191, DW_AT_type(*$C$DW$T$3)
    2917                            .dwattr $C$DW$T$191, DW_AT_language(DW_LANG_C)
    2918                            .dwattr $C$DW$T$191, DW_AT_decl_file("C:/ti/simplelink_cc13x0_sdk_2_10_00_36/source/ti/drivers
    2919                            .dwattr $C$DW$T$191, DW_AT_decl_line(0x6f)
    2920                            .dwattr $C$DW$T$191, DW_AT_decl_column(0x10)
    2921                    
    2922                    $C$DW$T$192     .dwtag  DW_TAG_typedef
    2923                            .dwattr $C$DW$T$192, DW_AT_name("HwiP_Handle")
    2924                            .dwattr $C$DW$T$192, DW_AT_type(*$C$DW$T$3)
    2925                            .dwattr $C$DW$T$192, DW_AT_language(DW_LANG_C)
    2926                            .dwattr $C$DW$T$192, DW_AT_decl_file("C:/ti/simplelink_cc13x0_sdk_2_10_00_36/source/ti/drivers
    2927                            .dwattr $C$DW$T$192, DW_AT_decl_line(0x56)
    2928                            .dwattr $C$DW$T$192, DW_AT_decl_column(0x10)
    2929                    
    2930                    $C$DW$T$193     .dwtag  DW_TAG_typedef
    2931                            .dwattr $C$DW$T$193, DW_AT_name("ICall_Semaphore")
    2932                            .dwattr $C$DW$T$193, DW_AT_type(*$C$DW$T$3)
    2933                            .dwattr $C$DW$T$193, DW_AT_language(DW_LANG_C)
    2934                            .dwattr $C$DW$T$193, DW_AT_decl_file("C:\ti\simplelink_cc13x0_sdk_2_10_00_36\source\ti\ti154st
    2935                            .dwattr $C$DW$T$193, DW_AT_decl_line(0x1ac)
    2936                            .dwattr $C$DW$T$193, DW_AT_decl_column(0x0f)
    2937                    
    2938                    $C$DW$T$104     .dwtag  DW_TAG_typedef
    2939                            .dwattr $C$DW$T$104, DW_AT_name("ICall_SyncHandle")
    2940                            .dwattr $C$DW$T$104, DW_AT_type(*$C$DW$T$3)
    2941                            .dwattr $C$DW$T$104, DW_AT_language(DW_LANG_C)
    2942                            .dwattr $C$DW$T$104, DW_AT_decl_file("C:\ti\simplelink_cc13x0_sdk_2_10_00_36\source\ti\ti154st
    2943                            .dwattr $C$DW$T$104, DW_AT_decl_line(0x1aa)
    2944                            .dwattr $C$DW$T$104, DW_AT_decl_column(0x0f)
    2945                    
    2946                    $C$DW$T$151     .dwtag  DW_TAG_typedef
    2947                            .dwattr $C$DW$T$151, DW_AT_name("ICall_TimerID")
    2948                            .dwattr $C$DW$T$151, DW_AT_type(*$C$DW$T$3)
    2949                            .dwattr $C$DW$T$151, DW_AT_language(DW_LANG_C)
    2950                            .dwattr $C$DW$T$151, DW_AT_decl_file("C:\ti\simplelink_cc13x0_sdk_2_10_00_36\source\ti\ti154st
    2951                            .dwattr $C$DW$T$151, DW_AT_decl_line(0x1b7)
    2952                            .dwattr $C$DW$T$151, DW_AT_decl_column(0x0f)
    2953                    
    2954                    
    2955                    $C$DW$T$62      .dwtag  DW_TAG_subroutine_type
    2956                            .dwattr $C$DW$T$62, DW_AT_language(DW_LANG_C)
    2957                            .dwendtag $C$DW$T$62
    2958                    
    2959                    $C$DW$T$63      .dwtag  DW_TAG_pointer_type
    2960                            .dwattr $C$DW$T$63, DW_AT_type(*$C$DW$T$62)
    2961                            .dwattr $C$DW$T$63, DW_AT_address_class(0x20)
    2962                    
    2963                    $C$DW$T$167     .dwtag  DW_TAG_typedef
    2964                            .dwattr $C$DW$T$167, DW_AT_name("APPASRTINTF_callAssrtHndler")
    2965                            .dwattr $C$DW$T$167, DW_AT_type(*$C$DW$T$63)
    2966                            .dwattr $C$DW$T$167, DW_AT_language(DW_LANG_C)
    2967                            .dwattr $C$DW$T$167, DW_AT_decl_file("C:/ti/simplelink_cc13x0_sdk_2_10_00_36/source/ti/ti154st
    2968                            .dwattr $C$DW$T$167, DW_AT_decl_line(0x43)
    2969                            .dwattr $C$DW$T$167, DW_AT_decl_column(0x10)
    2970                    
TI ARM Assembler PC v18.1.1 Wed Apr 25 09:49:01 2018

Tools Copyright (c) 1996-2017 Texas Instruments Incorporated
