TI ARM Assembler PC v18.1.1 Wed Apr 25 09:49:35 2018

Tools Copyright (c) 1996-2017 Texas Instruments Incorporated
C:\Users\devops\AppData\Local\Temp\2\{2E9581CE-A7E5-4D75-B068-1A0EA728AB6B} PAGE    1

       1                    ;******************************************************************************
       2                    ;* TI ARM C/C++ Codegen                                        PC v18.1.1.LTS *
       3                    ;* Date/Time created: Wed Apr 25 09:49:35 2018                                *
       4                    ;******************************************************************************
       5                            .compiler_opts --abi=eabi --arm_vmrs_si_workaround=off --code_state=16 --diag_wrap=off --embed
       6 00000000                   .thumb
       7                    
       8                    $C$DW$CU        .dwtag  DW_TAG_compile_unit
       9                            .dwattr $C$DW$CU, DW_AT_name("../Application/Services/nvocop.c")
      10                            .dwattr $C$DW$CU, DW_AT_producer("TI TI ARM C/C++ Codegen PC v18.1.1.LTS Copyright (c) 1996-20
      11                            .dwattr $C$DW$CU, DW_AT_TI_version(0x01)
      12                            .dwattr $C$DW$CU, DW_AT_comp_dir("C:\ti\workspace1\sensor_cc1350lp\sensor_cc1350lp")
      13                            .bound  ".TI.bound:NV_FLASH", 122880, 0
      14                    
      15                    $C$DW$1 .dwtag  DW_TAG_subprogram
      16                            .dwattr $C$DW$1, DW_AT_name("findHeader")
      17                            .dwattr $C$DW$1, DW_AT_TI_symbol_name("findHeader")
      18                            .dwattr $C$DW$1, DW_AT_type(*$C$DW$T$21)
      19                            .dwattr $C$DW$1, DW_AT_declaration
      20                            .dwattr $C$DW$1, DW_AT_external
      21                            .dwattr $C$DW$1, DW_AT_decl_file("../Application/Services/nvocop.c")
      22                            .dwattr $C$DW$1, DW_AT_decl_line(0x2e9)
      23                            .dwattr $C$DW$1, DW_AT_decl_column(0x0f)
      24                    $C$DW$2 .dwtag  DW_TAG_formal_parameter
      25                            .dwattr $C$DW$2, DW_AT_type(*$C$DW$T$21)
      26                    
      27                    $C$DW$3 .dwtag  DW_TAG_formal_parameter
      28                            .dwattr $C$DW$3, DW_AT_type(*$C$DW$T$178)
      29                    
      30                            .dwendtag $C$DW$1
      31                    
      32                    
      33                    $C$DW$4 .dwtag  DW_TAG_subprogram
      34                            .dwattr $C$DW$4, DW_AT_name("verifyWordM")
      35                            .dwattr $C$DW$4, DW_AT_TI_symbol_name("verifyWordM")
      36                            .dwattr $C$DW$4, DW_AT_declaration
      37                            .dwattr $C$DW$4, DW_AT_external
      38                            .dwattr $C$DW$4, DW_AT_decl_file("../Application/Services/nvocop.c")
      39                            .dwattr $C$DW$4, DW_AT_decl_line(0x44a)
      40                            .dwattr $C$DW$4, DW_AT_decl_column(0x0d)
      41                    $C$DW$5 .dwtag  DW_TAG_formal_parameter
      42                            .dwattr $C$DW$5, DW_AT_type(*$C$DW$T$21)
      43                    
      44                    $C$DW$6 .dwtag  DW_TAG_formal_parameter
      45                            .dwattr $C$DW$6, DW_AT_type(*$C$DW$T$219)
      46                    
      47                    $C$DW$7 .dwtag  DW_TAG_formal_parameter
      48                            .dwattr $C$DW$7, DW_AT_type(*$C$DW$T$227)
      49                    
      50                            .dwendtag $C$DW$4
      51                    
      52                    $C$DW$8 .dwtag  DW_TAG_variable
      53                            .dwattr $C$DW$8, DW_AT_name("ICall_enterCriticalSection")
      54                            .dwattr $C$DW$8, DW_AT_TI_symbol_name("ICall_enterCriticalSection")
      55                            .dwattr $C$DW$8, DW_AT_type(*$C$DW$T$146)
TI ARM Assembler PC v18.1.1 Wed Apr 25 09:49:35 2018

Tools Copyright (c) 1996-2017 Texas Instruments Incorporated
C:\Users\devops\AppData\Local\Temp\2\{2E9581CE-A7E5-4D75-B068-1A0EA728AB6B} PAGE    2

      56                            .dwattr $C$DW$8, DW_AT_declaration
      57                            .dwattr $C$DW$8, DW_AT_external
      58                            .dwattr $C$DW$8, DW_AT_decl_file("C:/ti/simplelink_cc13x0_sdk_2_10_00_36/source/ti/ti154stack/
      59                            .dwattr $C$DW$8, DW_AT_decl_line(0x384)
      60                            .dwattr $C$DW$8, DW_AT_decl_column(0x16)
      61                    
      62                    $C$DW$9 .dwtag  DW_TAG_variable
      63                            .dwattr $C$DW$9, DW_AT_name("ICall_leaveCriticalSection")
      64                            .dwattr $C$DW$9, DW_AT_TI_symbol_name("ICall_leaveCriticalSection")
      65                            .dwattr $C$DW$9, DW_AT_type(*$C$DW$T$149)
      66                            .dwattr $C$DW$9, DW_AT_declaration
      67                            .dwattr $C$DW$9, DW_AT_external
      68                            .dwattr $C$DW$9, DW_AT_decl_file("C:/ti/simplelink_cc13x0_sdk_2_10_00_36/source/ti/ti154stack/
      69                            .dwattr $C$DW$9, DW_AT_decl_line(0x387)
      70                            .dwattr $C$DW$9, DW_AT_decl_column(0x16)
      71                    
      72                            .global NV_FLASH
      73 00000000                   .sect   ".TI.bound:NV_FLASH"
      74                            .clink
      75                            .align  1
      76                            .elfsym NV_FLASH,SYM_SIZE(4096)
      77 00000000           NV_FLASH:
      78 00000000 000000FF          .bits   255,8                   ; NV_FLASH[0] @ 0
      79 00000001                   .space  4095
      80                    
      81                    $C$DW$10        .dwtag  DW_TAG_variable
      82                            .dwattr $C$DW$10, DW_AT_name("NV_FLASH")
      83                            .dwattr $C$DW$10, DW_AT_TI_symbol_name("NV_FLASH")
      84                            .dwattr $C$DW$10, DW_AT_location[DW_OP_addr NV_FLASH]
      85                            .dwattr $C$DW$10, DW_AT_type(*$C$DW$T$279)
      86                            .dwattr $C$DW$10, DW_AT_external
      87                            .dwattr $C$DW$10, DW_AT_decl_file("../Application/Services/nvocop.c")
      88                            .dwattr $C$DW$10, DW_AT_decl_line(0xd0)
      89                            .dwattr $C$DW$10, DW_AT_decl_column(0x0d)
      90                    
      91                    
      92                    $C$DW$11        .dwtag  DW_TAG_subprogram
      93                            .dwattr $C$DW$11, DW_AT_name("HalFlashRead")
      94                            .dwattr $C$DW$11, DW_AT_TI_symbol_name("HalFlashRead")
      95                            .dwattr $C$DW$11, DW_AT_declaration
      96                            .dwattr $C$DW$11, DW_AT_external
      97                            .dwattr $C$DW$11, DW_AT_decl_file("C:/ti/simplelink_cc13x0_sdk_2_10_00_36/source/ti/ti154stack
      98                            .dwattr $C$DW$11, DW_AT_decl_line(0x52)
      99                            .dwattr $C$DW$11, DW_AT_decl_column(0x06)
     100                    $C$DW$12        .dwtag  DW_TAG_formal_parameter
     101                            .dwattr $C$DW$12, DW_AT_type(*$C$DW$T$218)
     102                    
     103                    $C$DW$13        .dwtag  DW_TAG_formal_parameter
     104                            .dwattr $C$DW$13, DW_AT_type(*$C$DW$T$21)
     105                    
     106                    $C$DW$14        .dwtag  DW_TAG_formal_parameter
     107                            .dwattr $C$DW$14, DW_AT_type(*$C$DW$T$219)
     108                    
     109                    $C$DW$15        .dwtag  DW_TAG_formal_parameter
     110                            .dwattr $C$DW$15, DW_AT_type(*$C$DW$T$21)
TI ARM Assembler PC v18.1.1 Wed Apr 25 09:49:35 2018

Tools Copyright (c) 1996-2017 Texas Instruments Incorporated
C:\Users\devops\AppData\Local\Temp\2\{2E9581CE-A7E5-4D75-B068-1A0EA728AB6B} PAGE    3

     111                    
     112                            .dwendtag $C$DW$11
     113                    
     114                    
     115                    $C$DW$16        .dwtag  DW_TAG_subprogram
     116                            .dwattr $C$DW$16, DW_AT_name("HalFlashGetAddress")
     117                            .dwattr $C$DW$16, DW_AT_TI_symbol_name("HalFlashGetAddress")
     118                            .dwattr $C$DW$16, DW_AT_type(*$C$DW$T$219)
     119                            .dwattr $C$DW$16, DW_AT_declaration
     120                            .dwattr $C$DW$16, DW_AT_external
     121                            .dwattr $C$DW$16, DW_AT_decl_file("../Application/Services/nvocop.c")
     122                            .dwattr $C$DW$16, DW_AT_decl_line(0xc0)
     123                            .dwattr $C$DW$16, DW_AT_decl_column(0x0f)
     124                    $C$DW$17        .dwtag  DW_TAG_formal_parameter
     125                            .dwattr $C$DW$17, DW_AT_type(*$C$DW$T$218)
     126                    
     127                    $C$DW$18        .dwtag  DW_TAG_formal_parameter
     128                            .dwattr $C$DW$18, DW_AT_type(*$C$DW$T$21)
     129                    
     130                            .dwendtag $C$DW$16
     131                    
     132                    
     133                    $C$DW$19        .dwtag  DW_TAG_subprogram
     134                            .dwattr $C$DW$19, DW_AT_name("NOROM_FlashSectorErase")
     135                            .dwattr $C$DW$19, DW_AT_TI_symbol_name("NOROM_FlashSectorErase")
     136                            .dwattr $C$DW$19, DW_AT_type(*$C$DW$T$25)
     137                            .dwattr $C$DW$19, DW_AT_declaration
     138                            .dwattr $C$DW$19, DW_AT_external
     139                            .dwattr $C$DW$19, DW_AT_decl_file("C:/ti/simplelink_cc13x0_sdk_2_10_00_36/source/ti/devices/cc
     140                            .dwattr $C$DW$19, DW_AT_decl_line(0x2a0)
     141                            .dwattr $C$DW$19, DW_AT_decl_column(0x11)
     142                    $C$DW$20        .dwtag  DW_TAG_formal_parameter
     143                            .dwattr $C$DW$20, DW_AT_type(*$C$DW$T$25)
     144                    
     145                            .dwendtag $C$DW$19
     146                    
     147                    
     148                    $C$DW$21        .dwtag  DW_TAG_subprogram
     149                            .dwattr $C$DW$21, DW_AT_name("HAL_APPASRT_callAssrtHanlder")
     150                            .dwattr $C$DW$21, DW_AT_TI_symbol_name("HAL_APPASRT_callAssrtHanlder")
     151                            .dwattr $C$DW$21, DW_AT_declaration
     152                            .dwattr $C$DW$21, DW_AT_external
     153                            .dwattr $C$DW$21, DW_AT_decl_file("C:\ti\simplelink_cc13x0_sdk_2_10_00_36\source\ti\ti154stack
     154                            .dwattr $C$DW$21, DW_AT_decl_line(0x51)
     155                            .dwattr $C$DW$21, DW_AT_decl_column(0x0d)
     156                            .dwendtag $C$DW$21
     157                    
     158                    
     159                    $C$DW$22        .dwtag  DW_TAG_subprogram
     160                            .dwattr $C$DW$22, DW_AT_name("HalFlashWrite")
     161                            .dwattr $C$DW$22, DW_AT_TI_symbol_name("HalFlashWrite")
     162                            .dwattr $C$DW$22, DW_AT_declaration
     163                            .dwattr $C$DW$22, DW_AT_external
     164                            .dwattr $C$DW$22, DW_AT_decl_file("C:/ti/simplelink_cc13x0_sdk_2_10_00_36/source/ti/ti154stack
     165                            .dwattr $C$DW$22, DW_AT_decl_line(0x66)
TI ARM Assembler PC v18.1.1 Wed Apr 25 09:49:35 2018

Tools Copyright (c) 1996-2017 Texas Instruments Incorporated
C:\Users\devops\AppData\Local\Temp\2\{2E9581CE-A7E5-4D75-B068-1A0EA728AB6B} PAGE    4

     166                            .dwattr $C$DW$22, DW_AT_decl_column(0x06)
     167                    $C$DW$23        .dwtag  DW_TAG_formal_parameter
     168                            .dwattr $C$DW$23, DW_AT_type(*$C$DW$T$222)
     169                    
     170                    $C$DW$24        .dwtag  DW_TAG_formal_parameter
     171                            .dwattr $C$DW$24, DW_AT_type(*$C$DW$T$219)
     172                    
     173                    $C$DW$25        .dwtag  DW_TAG_formal_parameter
     174                            .dwattr $C$DW$25, DW_AT_type(*$C$DW$T$21)
     175                    
     176                            .dwendtag $C$DW$22
     177                    
     178                    
     179                    $C$DW$26        .dwtag  DW_TAG_subprogram
     180                            .dwattr $C$DW$26, DW_AT_name("memcmp")
     181                            .dwattr $C$DW$26, DW_AT_TI_symbol_name("memcmp")
     182                            .dwattr $C$DW$26, DW_AT_type(*$C$DW$T$10)
     183                            .dwattr $C$DW$26, DW_AT_declaration
     184                            .dwattr $C$DW$26, DW_AT_external
     185                            .dwattr $C$DW$26, DW_AT_decl_file("C:/ti/ccsv8/tools/compiler/ti-cgt-arm_18.1.1.LTS/include/st
     186                            .dwattr $C$DW$26, DW_AT_decl_line(0x75)
     187                            .dwattr $C$DW$26, DW_AT_decl_column(0x14)
     188                    $C$DW$27        .dwtag  DW_TAG_formal_parameter
     189                            .dwattr $C$DW$27, DW_AT_type(*$C$DW$T$164)
     190                    
     191                    $C$DW$28        .dwtag  DW_TAG_formal_parameter
     192                            .dwattr $C$DW$28, DW_AT_type(*$C$DW$T$164)
     193                    
     194                    $C$DW$29        .dwtag  DW_TAG_formal_parameter
     195                            .dwattr $C$DW$29, DW_AT_type(*$C$DW$T$92)
     196                    
     197                            .dwendtag $C$DW$26
     198                    
     199                    
     200                    $C$DW$30        .dwtag  DW_TAG_subprogram
     201                            .dwattr $C$DW$30, DW_AT_name("NOROM_VIMSModeGet")
     202                            .dwattr $C$DW$30, DW_AT_TI_symbol_name("NOROM_VIMSModeGet")
     203                            .dwattr $C$DW$30, DW_AT_type(*$C$DW$T$25)
     204                            .dwattr $C$DW$30, DW_AT_declaration
     205                            .dwattr $C$DW$30, DW_AT_external
     206                            .dwattr $C$DW$30, DW_AT_decl_file("C:/ti/simplelink_cc13x0_sdk_2_10_00_36/source/ti/devices/cc
     207                            .dwattr $C$DW$30, DW_AT_decl_line(0xe2)
     208                            .dwattr $C$DW$30, DW_AT_decl_column(0x11)
     209                    $C$DW$31        .dwtag  DW_TAG_formal_parameter
     210                            .dwattr $C$DW$31, DW_AT_type(*$C$DW$T$25)
     211                    
     212                            .dwendtag $C$DW$30
     213                    
     214 00000000                   .sect   ".data:$O1$$", RW
     215                            .clink
     216                            .align  4
     217                            .elfsym ||$O1$$||,SYM_SIZE(8)
     218 00000000           ||$O1$$||:
     219 00000000 00000001          .bits   1,8                     ; $O1$$.failF @ 0
     220 00000001                   .space  7
TI ARM Assembler PC v18.1.1 Wed Apr 25 09:49:35 2018

Tools Copyright (c) 1996-2017 Texas Instruments Incorporated
C:\Users\devops\AppData\Local\Temp\2\{2E9581CE-A7E5-4D75-B068-1A0EA728AB6B} PAGE    5

     221                    
     222                    
     223                    ;*********************************************************************
     224                    ;* GROUPED GLOBALS FOR $O1$$                                         *
     225                    ;*********************************************************************
     226          00000000! failF:  .set    ||$O1$$||+0
     227                    $C$DW$32        .dwtag  DW_TAG_variable
     228                            .dwattr $C$DW$32, DW_AT_name("failF")
     229                            .dwattr $C$DW$32, DW_AT_TI_symbol_name("failF")
     230                            .dwattr $C$DW$32, DW_AT_type(*$C$DW$T$218)
     231                            .dwattr $C$DW$32, DW_AT_location[DW_OP_addr failF]
     232                            .dwattr $C$DW$32, DW_AT_decl_file("../Application/Services/nvocop.c")
     233                            .dwattr $C$DW$32, DW_AT_decl_line(0xe6)
     234                            .dwattr $C$DW$32, DW_AT_decl_column(0x0e)
     235                    
     236          00000001! failW:  .set    ||$O1$$||+1
     237                    $C$DW$33        .dwtag  DW_TAG_variable
     238                            .dwattr $C$DW$33, DW_AT_name("failW")
     239                            .dwattr $C$DW$33, DW_AT_TI_symbol_name("failW")
     240                            .dwattr $C$DW$33, DW_AT_type(*$C$DW$T$218)
     241                            .dwattr $C$DW$33, DW_AT_location[DW_OP_addr failW]
     242                            .dwattr $C$DW$33, DW_AT_decl_file("../Application/Services/nvocop.c")
     243                            .dwattr $C$DW$33, DW_AT_decl_line(0xeb)
     244                            .dwattr $C$DW$33, DW_AT_decl_column(0x0e)
     245                    
     246          00000002! pgOff:  .set    ||$O1$$||+2
     247                    $C$DW$34        .dwtag  DW_TAG_variable
     248                            .dwattr $C$DW$34, DW_AT_name("pgOff")
     249                            .dwattr $C$DW$34, DW_AT_TI_symbol_name("pgOff")
     250                            .dwattr $C$DW$34, DW_AT_type(*$C$DW$T$21)
     251                            .dwattr $C$DW$34, DW_AT_location[DW_OP_addr pgOff]
     252                            .dwattr $C$DW$34, DW_AT_decl_file("../Application/Services/nvocop.c")
     253                            .dwattr $C$DW$34, DW_AT_decl_line(0xe1)
     254                            .dwattr $C$DW$34, DW_AT_decl_column(0x0f)
     255                    
     256          00000004! sector_addr:    .set    ||$O1$$||+4
     257                            .global sector_addr
     258                    $C$DW$35        .dwtag  DW_TAG_variable
     259                            .dwattr $C$DW$35, DW_AT_name("sector_addr")
     260                            .dwattr $C$DW$35, DW_AT_TI_symbol_name("sector_addr")
     261                            .dwattr $C$DW$35, DW_AT_location[DW_OP_addr sector_addr]
     262                            .dwattr $C$DW$35, DW_AT_type(*$C$DW$T$25)
     263                            .dwattr $C$DW$35, DW_AT_external
     264                            .dwattr $C$DW$35, DW_AT_decl_file("../Application/Services/nvocop.c")
     265                            .dwattr $C$DW$35, DW_AT_decl_line(0x250)
     266                            .dwattr $C$DW$35, DW_AT_decl_column(0x0a)
     267                    
     268                    ;       C:\ti\ccsv8\tools\compiler\ti-cgt-arm_18.1.1.LTS\bin\armopt.exe C:/ti/workspace1/sensor_cc1350
     269                    ;**     Parameter deleted: offset == pgOff;
     270 00000000                   .sect   ".text:findItemOffset"
     271                            .clink
     272                            .thumbfunc findItemOffset
     273 00000000                   .thumb
     274                    
     275                    $C$DW$36        .dwtag  DW_TAG_subprogram
TI ARM Assembler PC v18.1.1 Wed Apr 25 09:49:35 2018

Tools Copyright (c) 1996-2017 Texas Instruments Incorporated
C:\Users\devops\AppData\Local\Temp\2\{2E9581CE-A7E5-4D75-B068-1A0EA728AB6B} PAGE    6

     276                            .dwattr $C$DW$36, DW_AT_name("findItemOffset")
     277                            .dwattr $C$DW$36, DW_AT_low_pc(findItemOffset)
     278                            .dwattr $C$DW$36, DW_AT_high_pc(0x00)
     279                            .dwattr $C$DW$36, DW_AT_TI_symbol_name("findItemOffset")
     280                            .dwattr $C$DW$36, DW_AT_type(*$C$DW$T$21)
     281                            .dwattr $C$DW$36, DW_AT_TI_begin_file("../Application/Services/nvocop.c")
     282                            .dwattr $C$DW$36, DW_AT_TI_begin_line(0x2a9)
     283                            .dwattr $C$DW$36, DW_AT_TI_begin_column(0x0f)
     284                            .dwattr $C$DW$36, DW_AT_decl_file("../Application/Services/nvocop.c")
     285                            .dwattr $C$DW$36, DW_AT_decl_line(0x2a9)
     286                            .dwattr $C$DW$36, DW_AT_decl_column(0x0f)
     287                            .dwattr $C$DW$36, DW_AT_TI_max_frame_size(0x30)
     288                            .dwpsn  file "../Application/Services/nvocop.c",line 682,column 1,is_stmt,address findItemOffs
     289                    
     290                            .dwfde $C$DW$CIE, findItemOffset
     291                    $C$DW$37        .dwtag  DW_TAG_formal_parameter
     292                            .dwattr $C$DW$37, DW_AT_name("nv_id")
     293                            .dwattr $C$DW$37, DW_AT_TI_symbol_name("nv_id")
     294                            .dwattr $C$DW$37, DW_AT_type(*$C$DW$T$178)
     295                            .dwattr $C$DW$37, DW_AT_location[DW_OP_breg13 40]
     296                    
     297                    $C$DW$38        .dwtag  DW_TAG_formal_parameter
     298                            .dwattr $C$DW$38, DW_AT_name("mode")
     299                            .dwattr $C$DW$38, DW_AT_TI_symbol_name("mode")
     300                            .dwattr $C$DW$38, DW_AT_type(*$C$DW$T$197)
     301                            .dwattr $C$DW$38, DW_AT_location[DW_OP_reg2]
     302                    
     303                    
     304                    ;*****************************************************************************
     305                    ;* FUNCTION NAME: findItemOffset                                             *
     306                    ;*                                                                           *
     307                    ;*   Regs Modified     : A1,A2,A3,A4,V1,V2,V3,V4,V5,V6,V9,SP,LR,SR           *
     308                    ;*   Regs Used         : A1,A2,A3,A4,V1,V2,V3,V4,V5,V6,V9,SP,LR,SR           *
     309                    ;*   Local Frame Size  : 0 Args + 8 Auto + 28 Save = 36 byte                 *
     310                    ;*****************************************************************************
     311                    findItemOffset:
     312                    ;* --------------------------------------------------------------------------*
     313                    $C$DW$39        .dwtag  DW_TAG_variable
     314                            .dwattr $C$DW$39, DW_AT_name("hdr")
     315                            .dwattr $C$DW$39, DW_AT_TI_symbol_name("hdr")
     316                            .dwattr $C$DW$39, DW_AT_type(*$C$DW$T$203)
     317                            .dwattr $C$DW$39, DW_AT_location[DW_OP_breg13 0]
     318                    
     319                    ;* A1    assigned to $O$C31
     320                    ;* A2    assigned to $O$C32
     321                    ;* A1    assigned to $O$v3
     322                    ;* A1    assigned to $O$v3
     323                    ;* V5    assigned to $O$K27
     324                    ;* V6    assigned to $O$U21
     325                    ;* V2    assigned to $O$v1
     326                    ;* V1    assigned to offset
     327                    $C$DW$40        .dwtag  DW_TAG_variable
     328                            .dwattr $C$DW$40, DW_AT_name("offset")
     329                            .dwattr $C$DW$40, DW_AT_TI_symbol_name("offset")
     330                            .dwattr $C$DW$40, DW_AT_type(*$C$DW$T$21)
TI ARM Assembler PC v18.1.1 Wed Apr 25 09:49:35 2018

Tools Copyright (c) 1996-2017 Texas Instruments Incorporated
C:\Users\devops\AppData\Local\Temp\2\{2E9581CE-A7E5-4D75-B068-1A0EA728AB6B} PAGE    7

     331                            .dwattr $C$DW$40, DW_AT_location[DW_OP_reg4]
     332                    
     333                    ;* V3    assigned to mode
     334                    $C$DW$41        .dwtag  DW_TAG_variable
     335                            .dwattr $C$DW$41, DW_AT_name("mode")
     336                            .dwattr $C$DW$41, DW_AT_TI_symbol_name("mode")
     337                            .dwattr $C$DW$41, DW_AT_type(*$C$DW$T$198)
     338                            .dwattr $C$DW$41, DW_AT_location[DW_OP_reg6]
     339                    
     340                            .dwcfi  cfa_offset, 0
     341 00000000 B403              PUSH      {A1, A2}              ; [DPU_V7M3_PIPE]  ; [ORIG 16-BIT INS]
     342                            .dwcfi  cfa_offset, 8
     343                            .dwcfi  save_reg_to_mem, 1, -4
     344                            .dwcfi  save_reg_to_mem, 0, -8
     345 00000002 4828              LDR       A1, $C$CON1           ; [DPU_V7M3_PIPE] |682|  ; [ORIG 16-BIT INS]
     346 00000004 43F0E92D          PUSH      {V1, V2, V3, V4, V5, V6, LR} ; [DPU_V7M3_PIPE]  ; [KEEP 32-BIT INS]
     347                            .dwcfi  cfa_offset, 36
     348                            .dwcfi  save_reg_to_mem, 14, -12
     349                            .dwcfi  save_reg_to_mem, 9, -16
     350                            .dwcfi  save_reg_to_mem, 8, -20
     351                            .dwcfi  save_reg_to_mem, 7, -24
     352                            .dwcfi  save_reg_to_mem, 6, -28
     353                            .dwcfi  save_reg_to_mem, 5, -32
     354                            .dwcfi  save_reg_to_mem, 4, -36
     355 00000008 8800              LDRH      A1, [A1, #0]          ; [DPU_V7M3_PIPE] |682|  ; [ORIG 16-BIT INS]
     356 0000000a AF07              ADD       V4, SP, #28           ; [DPU_V7M3_PIPE]  ; [ORIG 16-BIT INS]
     357 0000000c 4616              MOV       V3, A3                ; [DPU_V7M3_PIPE] |682|  ; [ORIG 16-BIT INS]
     358 0000000e 0D0CF1AD          SUB       SP, SP, #12           ; [DPU_V7M3_PIPE]  ; [KEEP 32-BIT INS]
     359                            .dwcfi  cfa_offset, 48
     360 00000012 1F00              SUBS      A1, A1, #4            ; [DPU_V7M3_PIPE] |682|  ; [ORIG 16-BIT INS]
     361 00000014 B284              UXTH      V1, A1                ; [DPU_V7M3_PIPE] |682|  ; [ORIG 16-BIT INS]
     362 00000016 2C08              CMP       V1, #8                ; [DPU_V7M3_PIPE] |682|  ; [ORIG 16-BIT INS]
     363 00000018 DB3E              BLT       ||$C$L6||             ; [DPU_V7M3_PIPE] |682|  ; [ORIG 16-BIT INS]
     364                            ; BRANCHCC OCCURS {||$C$L6||}    ; [] |682| 
     365                    ;* --------------------------------------------------------------------------*
     366 0000001a 4823              LDR       A1, $C$CON2           ; [DPU_V7M3_PIPE]  ; [ORIG 16-BIT INS]
     367 0000001c 783D              LDRB      V2, [V4, #0]          ; [DPU_V7M3_PIPE]  ; [ORIG 16-BIT INS]
     368 0000001e 0B00              LSRS      A1, A1, #12           ; [DPU_V7M3_PIPE]  ; [ORIG 16-BIT INS]
     369 00000020 F880FA5F          UXTB      V5, A1                ; [DPU_V7M3_PIPE]  ; [KEEP 32-BIT INS]
     370                    ;* --------------------------------------------------------------------------*
     371                    ;*   BEGIN LOOP ||$C$L1||
     372                    ;*
     373                    ;*   Loop source line                : 685
     374                    ;*   Loop closing brace source line  : 730
     375                    ;*   Known Minimum Trip Count        : 1
     376                    ;*   Known Maximum Trip Count        : 4294967295
     377                    ;*   Known Max Trip Count Factor     : 1
     378                    ;* --------------------------------------------------------------------------*
     379 00000024           ||$C$L1||:    
     380                            .dwpsn  file "../Application/Services/nvocop.c",line 689,column 5,is_stmt,isa 1
     381 00000024 1F20              SUBS      A1, V1, #4            ; [DPU_V7M3_PIPE] |689|  ; [ORIG 16-BIT INS]
     382 00000026 B281              UXTH      A2, A1                ; [DPU_V7M3_PIPE] |689|  ; [ORIG 16-BIT INS]
     383 00000028 466A              MOV       A3, SP                ; [DPU_V7M3_PIPE] |689|  ; [ORIG 16-BIT INS]
     384 0000002a 2308              MOVS      A4, #8                ; [DPU_V7M3_PIPE] |689|  ; [ORIG 16-BIT INS]
     385 0000002c 4689              MOV       V6, A2                ; [DPU_V7M3_PIPE] |689|  ; [ORIG 16-BIT INS]
TI ARM Assembler PC v18.1.1 Wed Apr 25 09:49:35 2018

Tools Copyright (c) 1996-2017 Texas Instruments Incorporated
C:\Users\devops\AppData\Local\Temp\2\{2E9581CE-A7E5-4D75-B068-1A0EA728AB6B} PAGE    8

     386 0000002e 4640              MOV       A1, V5                ; [DPU_V7M3_PIPE] |689|  ; [ORIG 16-BIT INS]
     387                    $C$DW$42        .dwtag  DW_TAG_TI_branch
     388                            .dwattr $C$DW$42, DW_AT_low_pc(0x00)
     389                            .dwattr $C$DW$42, DW_AT_name("HalFlashRead")
     390                            .dwattr $C$DW$42, DW_AT_TI_call
     391                    
     392 00000030 FFFEF7FF!         BL        HalFlashRead          ; [DPU_V7M3_PIPE] |689|  ; [KEEP 32-BIT INS]
     393                            ; CALL OCCURS {HalFlashRead }    ; [] |689| 
     394                            .dwpsn  file "../Application/Services/nvocop.c",line 692,column 5,is_stmt,isa 1
     395 00000034 0000F8BD          LDRH      A1, [SP, #0]          ; [DPU_V7M3_PIPE] |692|  ; [KEEP 32-BIT INS]
     396 00000038 0BC1              LSRS      A2, A1, #15           ; [DPU_V7M3_PIPE] |692|  ; [ORIG 16-BIT INS]
     397 0000003a D319              BCC       ||$C$L2||             ; [DPU_V7M3_PIPE] |692|  ; [ORIG 16-BIT INS]
     398                            ; BRANCHCC OCCURS {||$C$L2||}    ; [] |692| 
     399                    ;* --------------------------------------------------------------------------*
     400 0000003c 00FFF000          AND       A1, A1, #255          ; [DPU_V7M3_PIPE] |692|  ; [KEEP 32-BIT INS]
     401 00000040 4285              CMP       V2, A1                ; [DPU_V7M3_PIPE] |692|  ; [ORIG 16-BIT INS]
     402 00000042 D115              BNE       ||$C$L2||             ; [DPU_V7M3_PIPE] |692|  ; [ORIG 16-BIT INS]
     403                            ; BRANCHCC OCCURS {||$C$L2||}    ; [] |692| 
     404                    ;* --------------------------------------------------------------------------*
     405 00000044 8878              LDRH      A1, [V4, #2]          ; [DPU_V7M3_PIPE] |692|  ; [ORIG 16-BIT INS]
     406 00000046 1002F8BD          LDRH      A2, [SP, #2]          ; [DPU_V7M3_PIPE] |692|  ; [KEEP 32-BIT INS]
     407 0000004a 4288              CMP       A1, A2                ; [DPU_V7M3_PIPE] |692|  ; [ORIG 16-BIT INS]
     408 0000004c D110              BNE       ||$C$L2||             ; [DPU_V7M3_PIPE] |692|  ; [ORIG 16-BIT INS]
     409                            ; BRANCHCC OCCURS {||$C$L2||}    ; [] |692| 
     410                    ;* --------------------------------------------------------------------------*
     411 0000004e 88B8              LDRH      A1, [V4, #4]          ; [DPU_V7M3_PIPE] |692|  ; [ORIG 16-BIT INS]
     412 00000050 1004F8BD          LDRH      A2, [SP, #4]          ; [DPU_V7M3_PIPE] |692|  ; [KEEP 32-BIT INS]
     413 00000054 4288              CMP       A1, A2                ; [DPU_V7M3_PIPE] |692|  ; [ORIG 16-BIT INS]
     414 00000056 D10B              BNE       ||$C$L2||             ; [DPU_V7M3_PIPE] |692|  ; [ORIG 16-BIT INS]
     415                            ; BRANCHCC OCCURS {||$C$L2||}    ; [] |692| 
     416                    ;* --------------------------------------------------------------------------*
     417                            .dwpsn  file "../Application/Services/nvocop.c",line 699,column 7,is_stmt,isa 1
     418 00000058 0006F8BD          LDRH      A1, [SP, #6]          ; [DPU_V7M3_PIPE] |699|  ; [KEEP 32-BIT INS]
     419                            .dwpsn  file "../Application/Services/nvocop.c",line 706,column 11,is_stmt,isa 1
     420 0000005c 2E00              CMP       V3, #0                ; [DPU_V7M3_PIPE] |706|  ; [ORIG 16-BIT INS]
     421 0000005e BF18              IT        NE                    ; [DPU_V7M3_PIPE]  ; [ORIG 16-BIT INS]
     422 00000060 4648              MOVNE     A1, V6                ; [DPU_V7M3_PIPE] |706|  ; [ORIG 16-BIT INS]
     423 00000062 D11A              BNE       ||$C$L7||             ; [DPU_V7M3_PIPE] |706|  ; [ORIG 16-BIT INS]
     424                            ; BRANCHCC OCCURS {||$C$L7||}    ; [] |706| 
     425                    ;* --------------------------------------------------------------------------*
     426 00000064 000EF3C0          UBFX      A1, A1, #0, #15       ; [DPU_V7M3_PIPE] |706|  ; [KEEP 32-BIT INS]
     427 00000068 1A24              SUBS      V1, V1, A1            ; [DPU_V7M3_PIPE] |706|  ; [ORIG 16-BIT INS]
     428 0000006a 1F24              SUBS      V1, V1, #4            ; [DPU_V7M3_PIPE] |706|  ; [ORIG 16-BIT INS]
     429 0000006c B2A0              UXTH      A1, V1                ; [DPU_V7M3_PIPE] |706|  ; [ORIG 16-BIT INS]
     430 0000006e E014              B         ||$C$L7||             ; [DPU_V7M3_PIPE] |706|  ; [ORIG 16-BIT INS]
     431                            ; BRANCH OCCURS {||$C$L7||}      ; [] |706| 
     432                    ;* --------------------------------------------------------------------------*
     433 00000070           ||$C$L2||:    
     434                            .dwpsn  file "../Application/Services/nvocop.c",line 709,column 10,is_stmt,isa 1
     435 00000070 0006F8BD          LDRH      A1, [SP, #6]          ; [DPU_V7M3_PIPE] |709|  ; [KEEP 32-BIT INS]
     436 00000074 4603              MOV       A4, A1                ; [DPU_V7M3_PIPE] |709|  ; [ORIG 16-BIT INS]
     437 00000076 030EF36F          BFC       A4, #0, #15           ; [DPU_V7M3_PIPE] |709|  ; [KEEP 32-BIT INS]
     438 0000007a B94B              CBNZ      A4, ||$C$L4||         ; []  ; [ORIG 16-BIT INS]
     439                            ; BRANCHCC OCCURS {||$C$L4||}    ; [] |709| 
     440                    ;* --------------------------------------------------------------------------*
TI ARM Assembler PC v18.1.1 Wed Apr 25 09:49:35 2018

Tools Copyright (c) 1996-2017 Texas Instruments Incorporated
C:\Users\devops\AppData\Local\Temp\2\{2E9581CE-A7E5-4D75-B068-1A0EA728AB6B} PAGE    9

     441                            .dwpsn  file "../Application/Services/nvocop.c",line 716,column 7,is_stmt,isa 1
     442 0000007c 4601              MOV       A2, A1                ; [DPU_V7M3_PIPE] |716|  ; [ORIG 16-BIT INS]
     443 0000007e 3108              ADDS      A2, A2, #8            ; [DPU_V7M3_PIPE] |716|  ; [ORIG 16-BIT INS]
     444 00000080 428C              CMP       V1, A2                ; [DPU_V7M3_PIPE] |716|  ; [ORIG 16-BIT INS]
     445 00000082 DA02              BGE       ||$C$L3||             ; [DPU_V7M3_PIPE] |716|  ; [ORIG 16-BIT INS]
     446                            ; BRANCHCC OCCURS {||$C$L3||}    ; [] |716| 
     447                    ;* --------------------------------------------------------------------------*
     448                            .dwpsn  file "../Application/Services/nvocop.c",line 726,column 9,is_stmt,isa 1
     449                    $C$DW$43        .dwtag  DW_TAG_TI_branch
     450                            .dwattr $C$DW$43, DW_AT_low_pc(0x00)
     451                            .dwattr $C$DW$43, DW_AT_name("HAL_APPASRT_callAssrtHanlder")
     452                            .dwattr $C$DW$43, DW_AT_TI_call
     453                    
     454 00000084 FFFEF7FF!         BL        HAL_APPASRT_callAssrtHanlder ; [DPU_V7M3_PIPE] |726|  ; [KEEP 32-BIT INS]
     455                            ; CALL OCCURS {HAL_APPASRT_callAssrtHanlder }  ; [] |726| 
     456                            .dwpsn  file "../Application/Services/nvocop.c",line 727,column 9,is_stmt,isa 1
     457 00000088 E006              B         ||$C$L6||             ; [DPU_V7M3_PIPE] |727|  ; [ORIG 16-BIT INS]
     458                            ; BRANCH OCCURS {||$C$L6||}      ; [] |727| 
     459                    ;* --------------------------------------------------------------------------*
     460 0000008a           ||$C$L3||:    
     461                            .dwpsn  file "../Application/Services/nvocop.c",line 719,column 9,is_stmt,isa 1
     462 0000008a 1A24              SUBS      V1, V1, A1            ; [DPU_V7M3_PIPE] |719|  ; [ORIG 16-BIT INS]
     463 0000008c 3C08              SUBS      V1, V1, #8            ; [DPU_V7M3_PIPE] |719|  ; [ORIG 16-BIT INS]
     464                            .dwpsn  file "../Application/Services/nvocop.c",line 720,column 7,is_stmt,isa 1
     465 0000008e E000              B         ||$C$L5||             ; [DPU_V7M3_PIPE] |720|  ; [ORIG 16-BIT INS]
     466                            ; BRANCH OCCURS {||$C$L5||}      ; [] |720| 
     467                    ;* --------------------------------------------------------------------------*
     468 00000090           ||$C$L4||:    
     469                            .dwpsn  file "../Application/Services/nvocop.c",line 711,column 7,is_stmt,isa 1
     470 00000090 1F24              SUBS      V1, V1, #4            ; [DPU_V7M3_PIPE] |711|  ; [ORIG 16-BIT INS]
     471                    ;* --------------------------------------------------------------------------*
     472 00000092           ||$C$L5||:    
     473 00000092 B2A4              UXTH      V1, V1                ; [DPU_V7M3_PIPE] |711|  ; [ORIG 16-BIT INS]
     474                            .dwpsn  file "../Application/Services/nvocop.c",line 685,column 10,is_stmt,isa 1
     475 00000094 2C08              CMP       V1, #8                ; [DPU_V7M3_PIPE] |685|  ; [ORIG 16-BIT INS]
     476 00000096 DAC5              BGE       ||$C$L1||             ; [DPU_V7M3_PIPE] |685|  ; [ORIG 16-BIT INS]
     477                            ; BRANCHCC OCCURS {||$C$L1||}    ; [] |685| 
     478                    ;* --------------------------------------------------------------------------*
     479 00000098           ||$C$L6||:    
     480                            .dwpsn  file "../Application/Services/nvocop.c",line 731,column 3,is_stmt,isa 1
     481 00000098 2000              MOVS      A1, #0                ; [DPU_V7M3_PIPE] |731|  ; [ORIG 16-BIT INS]
     482                    ;* --------------------------------------------------------------------------*
     483 0000009a           ||$C$L7||:    
     484 0000009a B003              ADD       SP, SP, #12           ; [DPU_V7M3_PIPE]  ; [ORIG 16-BIT INS]
     485                            .dwcfi  cfa_offset, 36
     486 0000009c 43F0E8BD          POP       {V1, V2, V3, V4, V5, V6, LR} ; [DPU_V7M3_PIPE]  ; [KEEP 32-BIT INS]
     487                            .dwcfi  cfa_offset, 8
     488                            .dwcfi  restore_reg, 14
     489                            .dwcfi  restore_reg, 9
     490                            .dwcfi  restore_reg, 8
     491                            .dwcfi  restore_reg, 7
     492                            .dwcfi  restore_reg, 6
     493                            .dwcfi  restore_reg, 5
     494                            .dwcfi  restore_reg, 4
     495 000000a0 B002              ADD       SP, SP, #8            ; [DPU_V7M3_PIPE]  ; [ORIG 16-BIT INS]
TI ARM Assembler PC v18.1.1 Wed Apr 25 09:49:35 2018

Tools Copyright (c) 1996-2017 Texas Instruments Incorporated
C:\Users\devops\AppData\Local\Temp\2\{2E9581CE-A7E5-4D75-B068-1A0EA728AB6B} PAGE   10

     496                            .dwcfi  cfa_offset, 0
     497                    $C$DW$44        .dwtag  DW_TAG_TI_branch
     498                            .dwattr $C$DW$44, DW_AT_low_pc(0x00)
     499                            .dwattr $C$DW$44, DW_AT_TI_return
     500                    
     501 000000a2 4770              BX        LR                    ; [DPU_V7M3_PIPE]  ; [ORIG 16-BIT INS]
     502                            ; BRANCH OCCURS                  ; [] 
     503                            .dwattr $C$DW$36, DW_AT_TI_end_file("../Application/Services/nvocop.c")
     504                            .dwattr $C$DW$36, DW_AT_TI_end_line(0x2dc)
     505                            .dwattr $C$DW$36, DW_AT_TI_end_column(0x01)
     506                            .dwendentry
     507                            .dwendtag $C$DW$36
     508                    
     509                    ;**     Parameter deleted: offset == pgOff;
     510 00000000                   .sect   ".text:findItem"
     511                            .clink
     512                            .thumbfunc findItem
     513 00000000                   .thumb
     514                    
     515                    $C$DW$45        .dwtag  DW_TAG_subprogram
     516                            .dwattr $C$DW$45, DW_AT_name("findItem")
     517                            .dwattr $C$DW$45, DW_AT_low_pc(findItem)
     518                            .dwattr $C$DW$45, DW_AT_high_pc(0x00)
     519                            .dwattr $C$DW$45, DW_AT_TI_symbol_name("findItem")
     520                            .dwattr $C$DW$45, DW_AT_type(*$C$DW$T$21)
     521                            .dwattr $C$DW$45, DW_AT_TI_begin_file("../Application/Services/nvocop.c")
     522                            .dwattr $C$DW$45, DW_AT_TI_begin_line(0x2f9)
     523                            .dwattr $C$DW$45, DW_AT_TI_begin_column(0x0f)
     524                            .dwattr $C$DW$45, DW_AT_decl_file("../Application/Services/nvocop.c")
     525                            .dwattr $C$DW$45, DW_AT_decl_line(0x2f9)
     526                            .dwattr $C$DW$45, DW_AT_decl_column(0x0f)
     527                            .dwattr $C$DW$45, DW_AT_TI_max_frame_size(0x18)
     528                            .dwpsn  file "../Application/Services/nvocop.c",line 762,column 1,is_stmt,address findItem,isa
     529                    
     530                            .dwfde $C$DW$CIE, findItem
     531                    $C$DW$46        .dwtag  DW_TAG_formal_parameter
     532                            .dwattr $C$DW$46, DW_AT_name("nv_id")
     533                            .dwattr $C$DW$46, DW_AT_TI_symbol_name("nv_id")
     534                            .dwattr $C$DW$46, DW_AT_type(*$C$DW$T$178)
     535                            .dwattr $C$DW$46, DW_AT_location[DW_OP_breg13 16]
     536                    
     537                    
     538                    ;*****************************************************************************
     539                    ;* FUNCTION NAME: findItem                                                   *
     540                    ;*                                                                           *
     541                    ;*   Regs Modified     : A1,A2,A3,A4,V4,V9,SP,LR,SR                          *
     542                    ;*   Regs Used         : A1,A2,A3,A4,V4,V9,SP,LR,SR                          *
     543                    ;*   Local Frame Size  : 0 Args + 8 Auto + 8 Save = 16 byte                  *
     544                    ;*****************************************************************************
     545 00000000           findItem:
     546                    ;* --------------------------------------------------------------------------*
     547                            .dwcfi  cfa_offset, 0
     548 00000000 B403              PUSH      {A1, A2}              ; [DPU_V7M3_PIPE]  ; [ORIG 16-BIT INS]
     549                            .dwcfi  cfa_offset, 8
     550                            .dwcfi  save_reg_to_mem, 1, -4
TI ARM Assembler PC v18.1.1 Wed Apr 25 09:49:35 2018

Tools Copyright (c) 1996-2017 Texas Instruments Incorporated
C:\Users\devops\AppData\Local\Temp\2\{2E9581CE-A7E5-4D75-B068-1A0EA728AB6B} PAGE   11

     551                            .dwcfi  save_reg_to_mem, 0, -8
     552 00000002 B580              PUSH      {V4, LR}              ; [DPU_V7M3_PIPE]  ; [ORIG 16-BIT INS]
     553                            .dwcfi  cfa_offset, 16
     554                            .dwcfi  save_reg_to_mem, 14, -12
     555                            .dwcfi  save_reg_to_mem, 7, -16
     556 00000004 AF02              ADD       V4, SP, #8            ; [DPU_V7M3_PIPE]  ; [ORIG 16-BIT INS]
     557                            .dwpsn  file "../Application/Services/nvocop.c",line 763,column 5,is_stmt,isa 1
     558 00000006 6839              LDR       A2, [V4, #0]          ; [DPU_V7M3_PIPE] |763|  ; [ORIG 16-BIT INS]
     559 00000008 0D08F1AD          SUB       SP, SP, #8            ; [DPU_V7M3_PIPE]  ; [KEEP 32-BIT INS]
     560                            .dwcfi  cfa_offset, 24
     561 0000000c 4668              MOV       A1, SP                ; [DPU_V7M3_PIPE] |763|  ; [ORIG 16-BIT INS]
     562 0000000e 6001              STR       A2, [A1, #0]          ; [DPU_V7M3_PIPE] |763|  ; [ORIG 16-BIT INS]
     563 00000010 88B9              LDRH      A2, [V4, #4]          ; [DPU_V7M3_PIPE] |763|  ; [ORIG 16-BIT INS]
     564 00000012 8081              STRH      A2, [A1, #4]          ; [DPU_V7M3_PIPE] |763|  ; [ORIG 16-BIT INS]
     565 00000014 0003E89D          LDMIA     SP, {A1,A2}           ; [DPU_V7M3_PIPE] |763|  ; [KEEP 32-BIT INS]
     566 00000018 2200              MOVS      A3, #0                ; [DPU_V7M3_PIPE] |763|  ; [ORIG 16-BIT INS]
     567                    $C$DW$47        .dwtag  DW_TAG_TI_branch
     568                            .dwattr $C$DW$47, DW_AT_low_pc(0x00)
     569                            .dwattr $C$DW$47, DW_AT_name("findItemOffset")
     570                            .dwattr $C$DW$47, DW_AT_TI_call
     571                    
     572 0000001a FFFEF7FF!         BL        findItemOffset        ; [DPU_V7M3_PIPE] |763|  ; [KEEP 32-BIT INS]
     573                            ; CALL OCCURS {findItemOffset }  ; [] |763| 
     574 0000001e B002              ADD       SP, SP, #8            ; [DPU_V7M3_PIPE]  ; [ORIG 16-BIT INS]
     575                            .dwcfi  cfa_offset, 16
     576 00000020 4080E8BD          POP       {V4, LR}              ; [DPU_V7M3_PIPE]  ; [KEEP 32-BIT INS]
     577                            .dwcfi  cfa_offset, 8
     578                            .dwcfi  restore_reg, 14
     579                            .dwcfi  restore_reg, 7
     580 00000024 B002              ADD       SP, SP, #8            ; [DPU_V7M3_PIPE]  ; [ORIG 16-BIT INS]
     581                            .dwcfi  cfa_offset, 0
     582                    $C$DW$48        .dwtag  DW_TAG_TI_branch
     583                            .dwattr $C$DW$48, DW_AT_low_pc(0x00)
     584                            .dwattr $C$DW$48, DW_AT_TI_return
     585                    
     586 00000026 4770              BX        LR                    ; [DPU_V7M3_PIPE]  ; [ORIG 16-BIT INS]
     587                            ; BRANCH OCCURS                  ; [] 
     588                            .dwattr $C$DW$45, DW_AT_TI_end_file("../Application/Services/nvocop.c")
     589                            .dwattr $C$DW$45, DW_AT_TI_end_line(0x2fc)
     590                            .dwattr $C$DW$45, DW_AT_TI_end_column(0x01)
     591                            .dwendentry
     592                            .dwendtag $C$DW$45
     593                    
     594 00000000                   .sect   ".text:disableCache"
     595                            .clink
     596                            .thumbfunc disableCache
     597 00000000                   .thumb
     598                    
     599                    $C$DW$49        .dwtag  DW_TAG_subprogram
     600                            .dwattr $C$DW$49, DW_AT_name("disableCache")
     601                            .dwattr $C$DW$49, DW_AT_low_pc(disableCache)
     602                            .dwattr $C$DW$49, DW_AT_high_pc(0x00)
     603                            .dwattr $C$DW$49, DW_AT_TI_symbol_name("disableCache")
     604                            .dwattr $C$DW$49, DW_AT_type(*$C$DW$T$218)
     605                            .dwattr $C$DW$49, DW_AT_TI_begin_file("../Application/Services/nvocop.c")
TI ARM Assembler PC v18.1.1 Wed Apr 25 09:49:35 2018

Tools Copyright (c) 1996-2017 Texas Instruments Incorporated
C:\Users\devops\AppData\Local\Temp\2\{2E9581CE-A7E5-4D75-B068-1A0EA728AB6B} PAGE   12

     606                            .dwattr $C$DW$49, DW_AT_TI_begin_line(0x4a1)
     607                            .dwattr $C$DW$49, DW_AT_TI_begin_column(0x0e)
     608                            .dwattr $C$DW$49, DW_AT_decl_file("../Application/Services/nvocop.c")
     609                            .dwattr $C$DW$49, DW_AT_decl_line(0x4a1)
     610                            .dwattr $C$DW$49, DW_AT_decl_column(0x0e)
     611                            .dwattr $C$DW$49, DW_AT_TI_max_frame_size(0x10)
     612                            .dwpsn  file "../Application/Services/nvocop.c",line 1186,column 1,is_stmt,address disableCach
     613                    
     614                            .dwfde $C$DW$CIE, disableCache
     615                    
     616                    ;*****************************************************************************
     617                    ;* FUNCTION NAME: disableCache                                               *
     618                    ;*                                                                           *
     619                    ;*   Regs Modified     : A1,A2,A3,A4,V1,V4,V9,SP,LR,SR                       *
     620                    ;*   Regs Used         : A1,A2,A3,A4,V1,V4,V9,SP,LR,SR                       *
     621                    ;*   Local Frame Size  : 0 Args + 0 Auto + 12 Save = 12 byte                 *
     622                    ;*****************************************************************************
     623                    disableCache:
     624                    ;* --------------------------------------------------------------------------*
     625                    ;* V4    assigned to state
     626                    $C$DW$50        .dwtag  DW_TAG_variable
     627                            .dwattr $C$DW$50, DW_AT_name("state")
     628                            .dwattr $C$DW$50, DW_AT_TI_symbol_name("state")
     629                            .dwattr $C$DW$50, DW_AT_type(*$C$DW$T$218)
     630                            .dwattr $C$DW$50, DW_AT_location[DW_OP_reg7]
     631                    
     632                            .dwcfi  cfa_offset, 0
     633 00000000 B598              PUSH      {A4, V1, V4, LR}      ; [DPU_V7M3_PIPE]  ; [ORIG 16-BIT INS]
     634                            .dwcfi  cfa_offset, 16
     635                            .dwcfi  save_reg_to_mem, 14, -4
     636                            .dwcfi  save_reg_to_mem, 7, -8
     637                            .dwcfi  save_reg_to_mem, 4, -12
     638                            .dwcfi  save_reg_to_mem, 3, -16
     639                            .dwpsn  file "../Application/Services/nvocop.c",line 1196,column 13,is_stmt,isa 1
     640 00000002 4C09              LDR       V1, $C$CON3           ; [DPU_V7M3_PIPE] |1196|  ; [ORIG 16-BIT INS]
     641                            .dwpsn  file "../Application/Services/nvocop.c",line 1187,column 15,is_stmt,isa 1
     642 00000004 4620              MOV       A1, V1                ; [DPU_V7M3_PIPE] |1187|  ; [ORIG 16-BIT INS]
     643                    $C$DW$51        .dwtag  DW_TAG_TI_branch
     644                            .dwattr $C$DW$51, DW_AT_low_pc(0x00)
     645                            .dwattr $C$DW$51, DW_AT_name("NOROM_VIMSModeGet")
     646                            .dwattr $C$DW$51, DW_AT_TI_call
     647                    
     648 00000006 FFFEF7FF!         BL        NOROM_VIMSModeGet     ; [DPU_V7M3_PIPE] |1187|  ; [KEEP 32-BIT INS]
     649                            ; CALL OCCURS {NOROM_VIMSModeGet }  ; [] |1187| 
     650 0000000a B2C7              UXTB      V4, A1                ; [DPU_V7M3_PIPE] |1187|  ; [ORIG 16-BIT INS]
     651 0000000c B157              CBZ       V4, ||$C$L9||         ; []  ; [ORIG 16-BIT INS]
     652                            ; BRANCHCC OCCURS {||$C$L9||}    ; [] |1187| 
     653                    ;* --------------------------------------------------------------------------*
     654                            .dwpsn  file "../Application/Services/nvocop.c",line 1193,column 5,is_stmt,isa 1
     655 0000000e 4807              LDR       A1, $C$CON4           ; [DPU_V7M3_PIPE] |1193|  ; [ORIG 16-BIT INS]
     656 00000010 6800              LDR       A1, [A1, #0]          ; [DPU_V7M3_PIPE] |1193|  ; [ORIG 16-BIT INS]
     657 00000012 6842              LDR       A3, [A1, #4]          ; [DPU_V7M3_PIPE] |1193|  ; [ORIG 16-BIT INS]
     658 00000014 2100              MOVS      A2, #0                ; [DPU_V7M3_PIPE] |1193|  ; [ORIG 16-BIT INS]
     659 00000016 4620              MOV       A1, V1                ; [DPU_V7M3_PIPE] |1193|  ; [ORIG 16-BIT INS]
     660                    $C$DW$52        .dwtag  DW_TAG_TI_branch
TI ARM Assembler PC v18.1.1 Wed Apr 25 09:49:35 2018

Tools Copyright (c) 1996-2017 Texas Instruments Incorporated
C:\Users\devops\AppData\Local\Temp\2\{2E9581CE-A7E5-4D75-B068-1A0EA728AB6B} PAGE   13

     661                            .dwattr $C$DW$52, DW_AT_low_pc(0x00)
     662                            .dwattr $C$DW$52, DW_AT_TI_call
     663                            .dwattr $C$DW$52, DW_AT_TI_indirect
     664                    
     665 00000018 4790              BLX       A3                    ; [DPU_V7M3_PIPE] |1193|  ; [ORIG 16-BIT INS]
     666                            ; CALL OCCURS {}                 ; [] |1193| 
     667                    ;* --------------------------------------------------------------------------*
     668                    ;*   BEGIN LOOP ||$C$L8||
     669                    ;*
     670                    ;*   Loop source line                : 1196
     671                    ;*   Loop closing brace source line  : 1196
     672                    ;*   Known Minimum Trip Count        : 1
     673                    ;*   Known Maximum Trip Count        : 4294967295
     674                    ;*   Known Max Trip Count Factor     : 1
     675                    ;* --------------------------------------------------------------------------*
     676 0000001a           ||$C$L8||:    
     677                            .dwpsn  file "../Application/Services/nvocop.c",line 1196,column 13,is_stmt,isa 1
     678 0000001a 4620              MOV       A1, V1                ; [DPU_V7M3_PIPE] |1196|  ; [ORIG 16-BIT INS]
     679                    $C$DW$53        .dwtag  DW_TAG_TI_branch
     680                            .dwattr $C$DW$53, DW_AT_low_pc(0x00)
     681                            .dwattr $C$DW$53, DW_AT_name("NOROM_VIMSModeGet")
     682                            .dwattr $C$DW$53, DW_AT_TI_call
     683                    
     684 0000001c FFFEF7FF!         BL        NOROM_VIMSModeGet     ; [DPU_V7M3_PIPE] |1196|  ; [KEEP 32-BIT INS]
     685                            ; CALL OCCURS {NOROM_VIMSModeGet }  ; [] |1196| 
     686 00000020 2800              CMP       A1, #0                ; [DPU_V7M3_PIPE] |1196|  ; [ORIG 16-BIT INS]
     687 00000022 D1FA              BNE       ||$C$L8||             ; [DPU_V7M3_PIPE] |1196|  ; [ORIG 16-BIT INS]
     688                            ; BRANCHCC OCCURS {||$C$L8||}    ; [] |1196| 
     689                    ;* --------------------------------------------------------------------------*
     690 00000024           ||$C$L9||:    
     691                            .dwpsn  file "../Application/Services/nvocop.c",line 1200,column 3,is_stmt,isa 1
     692 00000024 4638              MOV       A1, V4                ; [DPU_V7M3_PIPE] |1200|  ; [ORIG 16-BIT INS]
     693                    $C$DW$54        .dwtag  DW_TAG_TI_branch
     694                            .dwattr $C$DW$54, DW_AT_low_pc(0x00)
     695                            .dwattr $C$DW$54, DW_AT_TI_return
     696                    
     697 00000026 BD98              POP       {A4, V1, V4, PC}      ; [DPU_V7M3_PIPE]  ; [ORIG 16-BIT INS]
     698                            .dwcfi  cfa_offset, 0
     699                            .dwcfi  restore_reg, 7
     700                            .dwcfi  restore_reg, 4
     701                            .dwcfi  restore_reg, 3
     702                            ; BRANCH OCCURS                  ; [] 
     703                            .dwattr $C$DW$49, DW_AT_TI_end_file("../Application/Services/nvocop.c")
     704                            .dwattr $C$DW$49, DW_AT_TI_end_line(0x4b1)
     705                            .dwattr $C$DW$49, DW_AT_TI_end_column(0x01)
     706                            .dwendentry
     707                            .dwendtag $C$DW$49
     708                    
     709 00000000                   .sect   ".text:enableCache"
     710                            .clink
     711                            .thumbfunc enableCache
     712 00000000                   .thumb
     713                    
     714                    $C$DW$55        .dwtag  DW_TAG_subprogram
     715                            .dwattr $C$DW$55, DW_AT_name("enableCache")
TI ARM Assembler PC v18.1.1 Wed Apr 25 09:49:35 2018

Tools Copyright (c) 1996-2017 Texas Instruments Incorporated
C:\Users\devops\AppData\Local\Temp\2\{2E9581CE-A7E5-4D75-B068-1A0EA728AB6B} PAGE   14

     716                            .dwattr $C$DW$55, DW_AT_low_pc(enableCache)
     717                            .dwattr $C$DW$55, DW_AT_high_pc(0x00)
     718                            .dwattr $C$DW$55, DW_AT_TI_symbol_name("enableCache")
     719                            .dwattr $C$DW$55, DW_AT_TI_begin_file("../Application/Services/nvocop.c")
     720                            .dwattr $C$DW$55, DW_AT_TI_begin_line(0x48f)
     721                            .dwattr $C$DW$55, DW_AT_TI_begin_column(0x0d)
     722                            .dwattr $C$DW$55, DW_AT_decl_file("../Application/Services/nvocop.c")
     723                            .dwattr $C$DW$55, DW_AT_decl_line(0x48f)
     724                            .dwattr $C$DW$55, DW_AT_decl_column(0x0d)
     725                            .dwattr $C$DW$55, DW_AT_TI_max_frame_size(0x08)
     726                            .dwpsn  file "../Application/Services/nvocop.c",line 1168,column 1,is_stmt,address enableCache
     727                    
     728                            .dwfde $C$DW$CIE, enableCache
     729                    $C$DW$56        .dwtag  DW_TAG_formal_parameter
     730                            .dwattr $C$DW$56, DW_AT_name("state")
     731                            .dwattr $C$DW$56, DW_AT_TI_symbol_name("state")
     732                            .dwattr $C$DW$56, DW_AT_type(*$C$DW$T$218)
     733                            .dwattr $C$DW$56, DW_AT_location[DW_OP_reg0]
     734                    
     735                    
     736                    ;*****************************************************************************
     737                    ;* FUNCTION NAME: enableCache                                                *
     738                    ;*                                                                           *
     739                    ;*   Regs Modified     : A1,A2,A3,A4,V9,SP,LR,SR                             *
     740                    ;*   Regs Used         : A1,A2,A3,A4,V9,SP,LR,SR                             *
     741                    ;*   Local Frame Size  : 0 Args + 0 Auto + 4 Save = 4 byte                   *
     742                    ;*****************************************************************************
     743                    enableCache:
     744                    ;* --------------------------------------------------------------------------*
     745                    ;* A1    assigned to state
     746                    $C$DW$57        .dwtag  DW_TAG_variable
     747                            .dwattr $C$DW$57, DW_AT_name("state")
     748                            .dwattr $C$DW$57, DW_AT_TI_symbol_name("state")
     749                            .dwattr $C$DW$57, DW_AT_type(*$C$DW$T$278)
     750                            .dwattr $C$DW$57, DW_AT_location[DW_OP_reg0]
     751                    
     752                            .dwcfi  cfa_offset, 0
     753 00000000 B508              PUSH      {A4, LR}              ; [DPU_V7M3_PIPE]  ; [ORIG 16-BIT INS]
     754                            .dwcfi  cfa_offset, 8
     755                            .dwcfi  save_reg_to_mem, 14, -4
     756                            .dwcfi  save_reg_to_mem, 3, -8
     757 00000002 B128              CBZ       A1, ||$C$L10||        ; []  ; [ORIG 16-BIT INS]
     758                            .dwpsn  file "../Application/Services/nvocop.c",line 1169,column 3,is_stmt,isa 1
     759                            ; BRANCHCC OCCURS {||$C$L10||}   ; [] |1169| 
     760                    ;* --------------------------------------------------------------------------*
     761                            .dwpsn  file "../Application/Services/nvocop.c",line 1172,column 5,is_stmt,isa 1
     762 00000004 4803              LDR       A1, $C$CON5           ; [DPU_V7M3_PIPE] |1172|  ; [ORIG 16-BIT INS]
     763 00000006 6800              LDR       A1, [A1, #0]          ; [DPU_V7M3_PIPE] |1172|  ; [ORIG 16-BIT INS]
     764 00000008 6842              LDR       A3, [A1, #4]          ; [DPU_V7M3_PIPE] |1172|  ; [ORIG 16-BIT INS]
     765 0000000a 4803              LDR       A1, $C$CON6           ; [DPU_V7M3_PIPE] |1172|  ; [ORIG 16-BIT INS]
     766 0000000c 2101              MOVS      A2, #1                ; [DPU_V7M3_PIPE] |1172|  ; [ORIG 16-BIT INS]
     767                    $C$DW$58        .dwtag  DW_TAG_TI_branch
     768                            .dwattr $C$DW$58, DW_AT_low_pc(0x00)
     769                            .dwattr $C$DW$58, DW_AT_TI_call
     770                            .dwattr $C$DW$58, DW_AT_TI_indirect
TI ARM Assembler PC v18.1.1 Wed Apr 25 09:49:35 2018

Tools Copyright (c) 1996-2017 Texas Instruments Incorporated
C:\Users\devops\AppData\Local\Temp\2\{2E9581CE-A7E5-4D75-B068-1A0EA728AB6B} PAGE   15

     771                    
     772 0000000e 4790              BLX       A3                    ; [DPU_V7M3_PIPE] |1172|  ; [ORIG 16-BIT INS]
     773                            ; CALL OCCURS {}                 ; [] |1172| 
     774                    ;* --------------------------------------------------------------------------*
     775                    ||$C$L10||:    
     776                    $C$DW$59        .dwtag  DW_TAG_TI_branch
     777                            .dwattr $C$DW$59, DW_AT_low_pc(0x00)
     778                            .dwattr $C$DW$59, DW_AT_TI_return
     779                    
     780 00000010 BD08              POP       {A4, PC}              ; [DPU_V7M3_PIPE]  ; [ORIG 16-BIT INS]
     781                            .dwcfi  cfa_offset, 0
     782                            .dwcfi  restore_reg, 3
     783                            ; BRANCH OCCURS                  ; [] 
     784                            .dwattr $C$DW$55, DW_AT_TI_end_file("../Application/Services/nvocop.c")
     785                            .dwattr $C$DW$55, DW_AT_TI_end_line(0x496)
     786                            .dwattr $C$DW$55, DW_AT_TI_end_column(0x01)
     787                            .dwendentry
     788                            .dwendtag $C$DW$55
     789                    
     790 00000000                   .sect   ".text:writeWord"
     791                            .clink
     792                            .thumbfunc writeWord
     793 00000000                   .thumb
     794                    
     795                    $C$DW$60        .dwtag  DW_TAG_subprogram
     796                            .dwattr $C$DW$60, DW_AT_name("writeWord")
     797                            .dwattr $C$DW$60, DW_AT_low_pc(writeWord)
     798                            .dwattr $C$DW$60, DW_AT_high_pc(0x00)
     799                            .dwattr $C$DW$60, DW_AT_TI_symbol_name("writeWord")
     800                            .dwattr $C$DW$60, DW_AT_TI_begin_file("../Application/Services/nvocop.c")
     801                            .dwattr $C$DW$60, DW_AT_TI_begin_line(0x468)
     802                            .dwattr $C$DW$60, DW_AT_TI_begin_column(0x0d)
     803                            .dwattr $C$DW$60, DW_AT_decl_file("../Application/Services/nvocop.c")
     804                            .dwattr $C$DW$60, DW_AT_decl_line(0x468)
     805                            .dwattr $C$DW$60, DW_AT_decl_column(0x0d)
     806                            .dwattr $C$DW$60, DW_AT_TI_max_frame_size(0x28)
     807                            .dwpsn  file "../Application/Services/nvocop.c",line 1129,column 1,is_stmt,address writeWord,i
     808                    
     809                            .dwfde $C$DW$CIE, writeWord
     810                    $C$DW$61        .dwtag  DW_TAG_formal_parameter
     811                            .dwattr $C$DW$61, DW_AT_name("offset")
     812                            .dwattr $C$DW$61, DW_AT_TI_symbol_name("offset")
     813                            .dwattr $C$DW$61, DW_AT_type(*$C$DW$T$21)
     814                            .dwattr $C$DW$61, DW_AT_location[DW_OP_reg0]
     815                    
     816                    $C$DW$62        .dwtag  DW_TAG_formal_parameter
     817                            .dwattr $C$DW$62, DW_AT_name("pBuf")
     818                            .dwattr $C$DW$62, DW_AT_TI_symbol_name("pBuf")
     819                            .dwattr $C$DW$62, DW_AT_type(*$C$DW$T$219)
     820                            .dwattr $C$DW$62, DW_AT_location[DW_OP_reg1]
     821                    
     822                    $C$DW$63        .dwtag  DW_TAG_formal_parameter
     823                            .dwattr $C$DW$63, DW_AT_name("cnt")
     824                            .dwattr $C$DW$63, DW_AT_TI_symbol_name("cnt")
     825                            .dwattr $C$DW$63, DW_AT_type(*$C$DW$T$227)
TI ARM Assembler PC v18.1.1 Wed Apr 25 09:49:35 2018

Tools Copyright (c) 1996-2017 Texas Instruments Incorporated
C:\Users\devops\AppData\Local\Temp\2\{2E9581CE-A7E5-4D75-B068-1A0EA728AB6B} PAGE   16

     826                            .dwattr $C$DW$63, DW_AT_location[DW_OP_reg2]
     827                    
     828                    
     829                    ;*****************************************************************************
     830                    ;* FUNCTION NAME: writeWord                                                  *
     831                    ;*                                                                           *
     832                    ;*   Regs Modified     : A1,A2,A3,A4,V1,V2,V3,V4,V5,V6,V7,V9,SP,LR,SR        *
     833                    ;*   Regs Used         : A1,A2,A3,A4,V1,V2,V3,V4,V5,V6,V7,V9,SP,LR,SR        *
     834                    ;*   Local Frame Size  : 0 Args + 4 Auto + 32 Save = 36 byte                 *
     835                    ;*****************************************************************************
     836                    writeWord:
     837                    ;* --------------------------------------------------------------------------*
     838                    $C$DW$64        .dwtag  DW_TAG_variable
     839                            .dwattr $C$DW$64, DW_AT_name("tmp")
     840                            .dwattr $C$DW$64, DW_AT_TI_symbol_name("tmp")
     841                            .dwattr $C$DW$64, DW_AT_type(*$C$DW$T$275)
     842                            .dwattr $C$DW$64, DW_AT_location[DW_OP_breg13 0]
     843                    
     844                    ;* A2    assigned to $O$C1
     845                    ;* A1    assigned to $O$C2
     846                    ;* A1    assigned to $O$C3
     847                    ;* V4    assigned to $O$K8
     848                    ;* V1    assigned to offset
     849                    $C$DW$65        .dwtag  DW_TAG_variable
     850                            .dwattr $C$DW$65, DW_AT_name("offset")
     851                            .dwattr $C$DW$65, DW_AT_TI_symbol_name("offset")
     852                            .dwattr $C$DW$65, DW_AT_type(*$C$DW$T$299)
     853                            .dwattr $C$DW$65, DW_AT_location[DW_OP_reg4]
     854                    
     855                    ;* V2    assigned to pBuf
     856                    $C$DW$66        .dwtag  DW_TAG_variable
     857                            .dwattr $C$DW$66, DW_AT_name("pBuf")
     858                            .dwattr $C$DW$66, DW_AT_TI_symbol_name("pBuf")
     859                            .dwattr $C$DW$66, DW_AT_type(*$C$DW$T$268)
     860                            .dwattr $C$DW$66, DW_AT_location[DW_OP_reg5]
     861                    
     862                    ;* V3    assigned to cnt
     863                    $C$DW$67        .dwtag  DW_TAG_variable
     864                            .dwattr $C$DW$67, DW_AT_name("cnt")
     865                            .dwattr $C$DW$67, DW_AT_TI_symbol_name("cnt")
     866                            .dwattr $C$DW$67, DW_AT_type(*$C$DW$T$277)
     867                            .dwattr $C$DW$67, DW_AT_location[DW_OP_reg6]
     868                    
     869                    ;* V6    assigned to addr
     870                    $C$DW$68        .dwtag  DW_TAG_variable
     871                            .dwattr $C$DW$68, DW_AT_name("addr")
     872                            .dwattr $C$DW$68, DW_AT_TI_symbol_name("addr")
     873                            .dwattr $C$DW$68, DW_AT_type(*$C$DW$T$222)
     874                            .dwattr $C$DW$68, DW_AT_location[DW_OP_reg9]
     875                    
     876                    ;* V5    assigned to cs
     877                    $C$DW$69        .dwtag  DW_TAG_variable
     878                            .dwattr $C$DW$69, DW_AT_name("cs")
     879                            .dwattr $C$DW$69, DW_AT_TI_symbol_name("cs")
     880                            .dwattr $C$DW$69, DW_AT_type(*$C$DW$T$351)
TI ARM Assembler PC v18.1.1 Wed Apr 25 09:49:35 2018

Tools Copyright (c) 1996-2017 Texas Instruments Incorporated
C:\Users\devops\AppData\Local\Temp\2\{2E9581CE-A7E5-4D75-B068-1A0EA728AB6B} PAGE   17

     881                            .dwattr $C$DW$69, DW_AT_location[DW_OP_reg8]
     882                    
     883                    ;* V7    assigned to state
     884                    $C$DW$70        .dwtag  DW_TAG_variable
     885                            .dwattr $C$DW$70, DW_AT_name("state")
     886                            .dwattr $C$DW$70, DW_AT_TI_symbol_name("state")
     887                            .dwattr $C$DW$70, DW_AT_type(*$C$DW$T$10)
     888                            .dwattr $C$DW$70, DW_AT_location[DW_OP_reg10]
     889                    
     890                    ;* V1    assigned to offset
     891                    $C$DW$71        .dwtag  DW_TAG_variable
     892                            .dwattr $C$DW$71, DW_AT_name("offset")
     893                            .dwattr $C$DW$71, DW_AT_TI_symbol_name("offset")
     894                            .dwattr $C$DW$71, DW_AT_type(*$C$DW$T$21)
     895                            .dwattr $C$DW$71, DW_AT_location[DW_OP_reg4]
     896                    
     897                    ;* V2    assigned to pBuf
     898                    $C$DW$72        .dwtag  DW_TAG_variable
     899                            .dwattr $C$DW$72, DW_AT_name("pBuf")
     900                            .dwattr $C$DW$72, DW_AT_TI_symbol_name("pBuf")
     901                            .dwattr $C$DW$72, DW_AT_type(*$C$DW$T$219)
     902                            .dwattr $C$DW$72, DW_AT_location[DW_OP_reg5]
     903                    
     904                    ;* V3    assigned to cnt
     905                    $C$DW$73        .dwtag  DW_TAG_variable
     906                            .dwattr $C$DW$73, DW_AT_name("cnt")
     907                            .dwattr $C$DW$73, DW_AT_TI_symbol_name("cnt")
     908                            .dwattr $C$DW$73, DW_AT_type(*$C$DW$T$227)
     909                            .dwattr $C$DW$73, DW_AT_location[DW_OP_reg6]
     910                    
     911                            .dwcfi  cfa_offset, 0
     912 00000000 47FCE92D          PUSH      {A3, A4, V1, V2, V3, V4, V5, V6, V7, LR} ; [DPU_V7M3_PIPE]  ; [KEEP 32-BIT INS]
     913                            .dwcfi  cfa_offset, 40
     914                            .dwcfi  save_reg_to_mem, 14, -4
     915                            .dwcfi  save_reg_to_mem, 10, -8
     916                            .dwcfi  save_reg_to_mem, 9, -12
     917                            .dwcfi  save_reg_to_mem, 8, -16
     918                            .dwcfi  save_reg_to_mem, 7, -20
     919                            .dwcfi  save_reg_to_mem, 6, -24
     920                            .dwcfi  save_reg_to_mem, 5, -28
     921                            .dwcfi  save_reg_to_mem, 4, -32
     922                            .dwcfi  save_reg_to_mem, 3, -36
     923                            .dwcfi  save_reg_to_mem, 2, -40
     924 00000004 4604              MOV       V1, A1                ; [DPU_V7M3_PIPE] |1129|  ; [ORIG 16-BIT INS]
     925                            .dwpsn  file "../Application/Services/nvocop.c",line 1130,column 15,is_stmt,isa 1
     926 00000006 481F              LDR       A1, $C$CON11          ; [DPU_V7M3_PIPE] |1130|  ; [ORIG 16-BIT INS]
     927                            .dwpsn  file "../Application/Services/nvocop.c",line 1129,column 1,is_stmt,isa 1
     928 00000008 460D              MOV       V2, A2                ; [DPU_V7M3_PIPE] |1129|  ; [ORIG 16-BIT INS]
     929 0000000a 4616              MOV       V3, A3                ; [DPU_V7M3_PIPE] |1129|  ; [ORIG 16-BIT INS]
     930                            .dwpsn  file "../Application/Services/nvocop.c",line 1130,column 15,is_stmt,isa 1
     931 0000000c 4621              MOV       A2, V1                ; [DPU_V7M3_PIPE] |1130|  ; [ORIG 16-BIT INS]
     932 0000000e 0B00              LSRS      A1, A1, #12           ; [DPU_V7M3_PIPE] |1130|  ; [ORIG 16-BIT INS]
     933 00000010 B2C0              UXTB      A1, A1                ; [DPU_V7M3_PIPE] |1130|  ; [ORIG 16-BIT INS]
     934 00000012 4607              MOV       V4, A1                ; [DPU_V7M3_PIPE] |1130|  ; [ORIG 16-BIT INS]
     935                    $C$DW$74        .dwtag  DW_TAG_TI_branch
TI ARM Assembler PC v18.1.1 Wed Apr 25 09:49:35 2018

Tools Copyright (c) 1996-2017 Texas Instruments Incorporated
C:\Users\devops\AppData\Local\Temp\2\{2E9581CE-A7E5-4D75-B068-1A0EA728AB6B} PAGE   18

     936                            .dwattr $C$DW$74, DW_AT_low_pc(0x00)
     937                            .dwattr $C$DW$74, DW_AT_name("HalFlashGetAddress")
     938                            .dwattr $C$DW$74, DW_AT_TI_call
     939                    
     940 00000014 FFFEF7FF!         BL        HalFlashGetAddress    ; [DPU_V7M3_PIPE] |1130|  ; [KEEP 32-BIT INS]
     941                            ; CALL OCCURS {HalFlashGetAddress }  ; [] |1130| 
     942 00000018 4681              MOV       V6, A1                ; [DPU_V7M3_PIPE] |1130|  ; [ORIG 16-BIT INS]
     943                            .dwpsn  file "../Application/Services/nvocop.c",line 1136,column 5,is_stmt,isa 1
     944 0000001a 4817              LDR       A1, $C$CON8           ; [DPU_V7M3_PIPE] |1136|  ; [ORIG 16-BIT INS]
     945 0000001c 6800              LDR       A1, [A1, #0]          ; [DPU_V7M3_PIPE] |1136|  ; [ORIG 16-BIT INS]
     946                    $C$DW$75        .dwtag  DW_TAG_TI_branch
     947                            .dwattr $C$DW$75, DW_AT_low_pc(0x00)
     948                            .dwattr $C$DW$75, DW_AT_TI_call
     949                            .dwattr $C$DW$75, DW_AT_TI_indirect
     950                    
     951 0000001e 4780              BLX       A1                    ; [DPU_V7M3_PIPE] |1136|  ; [ORIG 16-BIT INS]
     952                            ; CALL OCCURS {}                 ; [] |1136| 
     953 00000020 4680              MOV       V5, A1                ; [DPU_V7M3_PIPE] |1136|  ; [ORIG 16-BIT INS]
     954                            .dwpsn  file "../Application/Services/nvocop.c",line 1140,column 5,is_stmt,isa 1
     955                    $C$DW$76        .dwtag  DW_TAG_TI_branch
     956                            .dwattr $C$DW$76, DW_AT_low_pc(0x00)
     957                            .dwattr $C$DW$76, DW_AT_name("disableCache")
     958                            .dwattr $C$DW$76, DW_AT_TI_call
     959                    
     960 00000022 FFFEF7FF!         BL        disableCache          ; [DPU_V7M3_PIPE] |1140|  ; [KEEP 32-BIT INS]
     961                            ; CALL OCCURS {disableCache }    ; [] |1140| 
     962 00000026 4682              MOV       V7, A1                ; [DPU_V7M3_PIPE] |1140|  ; [ORIG 16-BIT INS]
     963                            .dwpsn  file "../Application/Services/nvocop.c",line 1143,column 5,is_stmt,isa 1
     964 00000028 00B2              LSLS      A3, V3, #2            ; [DPU_V7M3_PIPE] |1143|  ; [ORIG 16-BIT INS]
     965 0000002a 4629              MOV       A2, V2                ; [DPU_V7M3_PIPE] |1143|  ; [ORIG 16-BIT INS]
     966 0000002c 4648              MOV       A1, V6                ; [DPU_V7M3_PIPE] |1143|  ; [ORIG 16-BIT INS]
     967                    $C$DW$77        .dwtag  DW_TAG_TI_branch
     968                            .dwattr $C$DW$77, DW_AT_low_pc(0x00)
     969                            .dwattr $C$DW$77, DW_AT_name("HalFlashWrite")
     970                            .dwattr $C$DW$77, DW_AT_TI_call
     971                    
     972 0000002e FFFEF7FF!         BL        HalFlashWrite         ; [DPU_V7M3_PIPE] |1143|  ; [KEEP 32-BIT INS]
     973                            ; CALL OCCURS {HalFlashWrite }   ; [] |1143| 
     974                            .dwpsn  file "../Application/Services/nvocop.c",line 1146,column 5,is_stmt,isa 1
     975 00000032 4650              MOV       A1, V7                ; [DPU_V7M3_PIPE] |1146|  ; [ORIG 16-BIT INS]
     976                    $C$DW$78        .dwtag  DW_TAG_TI_branch
     977                            .dwattr $C$DW$78, DW_AT_low_pc(0x00)
     978                            .dwattr $C$DW$78, DW_AT_name("enableCache")
     979                            .dwattr $C$DW$78, DW_AT_TI_call
     980                    
     981 00000034 FFFEF7FF!         BL        enableCache           ; [DPU_V7M3_PIPE] |1146|  ; [KEEP 32-BIT INS]
     982                            ; CALL OCCURS {enableCache }     ; [] |1146| 
     983                            .dwpsn  file "../Application/Services/nvocop.c",line 1102,column 3,is_stmt,isa 1
     984 00000038 E002              B         ||$C$L12||            ; [DPU_V7M3_PIPE] |1102|  ; [ORIG 16-BIT INS]
     985                            ; BRANCH OCCURS {||$C$L12||}     ; [] |1102| 
     986                    ;* --------------------------------------------------------------------------*
     987 0000003a           ||$C$L11||:    
     988                            .dwpsn  file "../Application/Services/nvocop.c",line 1112,column 5,is_stmt,isa 1
     989 0000003a 1D24              ADDS      V1, V1, #4            ; [DPU_V7M3_PIPE] |1112|  ; [ORIG 16-BIT INS]
     990                            .dwpsn  file "../Application/Services/nvocop.c",line 1113,column 5,is_stmt,isa 1
TI ARM Assembler PC v18.1.1 Wed Apr 25 09:49:35 2018

Tools Copyright (c) 1996-2017 Texas Instruments Incorporated
C:\Users\devops\AppData\Local\Temp\2\{2E9581CE-A7E5-4D75-B068-1A0EA728AB6B} PAGE   19

     991 0000003c 1D2D              ADDS      V2, V2, #4            ; [DPU_V7M3_PIPE] |1113|  ; [ORIG 16-BIT INS]
     992                            .dwpsn  file "../Application/Services/nvocop.c",line 1112,column 5,is_stmt,isa 1
     993 0000003e B2A4              UXTH      V1, V1                ; [DPU_V7M3_PIPE] |1112|  ; [ORIG 16-BIT INS]
     994                    ;* --------------------------------------------------------------------------*
     995                    ;*   BEGIN LOOP ||$C$L12||
     996                    ;* --------------------------------------------------------------------------*
     997 00000040           ||$C$L12||:    
     998                            .dwpsn  file "../Application/Services/nvocop.c",line 1102,column 3,is_stmt,isa 1
     999 00000040 4630              MOV       A1, V3                ; [DPU_V7M3_PIPE] |1102|  ; [ORIG 16-BIT INS]
    1000 00000042 1E41              SUBS      A2, A1, #1            ; [DPU_V7M3_PIPE] |1102|  ; [ORIG 16-BIT INS]
    1001 00000044 B2CE              UXTB      V3, A2                ; [DPU_V7M3_PIPE] |1102|  ; [ORIG 16-BIT INS]
    1002 00000046 B180              CBZ       A1, ||$C$L13||        ; []  ; [ORIG 16-BIT INS]
    1003                            ; BRANCHCC OCCURS {||$C$L13||}   ; [] |1102| 
    1004                    ;* --------------------------------------------------------------------------*
    1005                            .dwpsn  file "../Application/Services/nvocop.c",line 1106,column 5,is_stmt,isa 1
    1006 00000048 4638              MOV       A1, V4                ; [DPU_V7M3_PIPE] |1106|  ; [ORIG 16-BIT INS]
    1007 0000004a 4621              MOV       A2, V1                ; [DPU_V7M3_PIPE] |1106|  ; [ORIG 16-BIT INS]
    1008 0000004c 466A              MOV       A3, SP                ; [DPU_V7M3_PIPE] |1106|  ; [ORIG 16-BIT INS]
    1009 0000004e 2304              MOVS      A4, #4                ; [DPU_V7M3_PIPE] |1106|  ; [ORIG 16-BIT INS]
    1010                    $C$DW$79        .dwtag  DW_TAG_TI_branch
    1011                            .dwattr $C$DW$79, DW_AT_low_pc(0x00)
    1012                            .dwattr $C$DW$79, DW_AT_name("HalFlashRead")
    1013                            .dwattr $C$DW$79, DW_AT_TI_call
    1014                    
    1015 00000050 FFFEF7FF!         BL        HalFlashRead          ; [DPU_V7M3_PIPE] |1106|  ; [KEEP 32-BIT INS]
    1016                            ; CALL OCCURS {HalFlashRead }    ; [] |1106| 
    1017                            .dwpsn  file "../Application/Services/nvocop.c",line 1107,column 5,is_stmt,isa 1
    1018 00000054 4668              MOV       A1, SP                ; [DPU_V7M3_PIPE] |1107|  ; [ORIG 16-BIT INS]
    1019 00000056 4629              MOV       A2, V2                ; [DPU_V7M3_PIPE] |1107|  ; [ORIG 16-BIT INS]
    1020 00000058 2204              MOVS      A3, #4                ; [DPU_V7M3_PIPE] |1107|  ; [ORIG 16-BIT INS]
    1021                    $C$DW$80        .dwtag  DW_TAG_TI_branch
    1022                            .dwattr $C$DW$80, DW_AT_low_pc(0x00)
    1023                            .dwattr $C$DW$80, DW_AT_name("memcmp")
    1024                            .dwattr $C$DW$80, DW_AT_TI_call
    1025                    
    1026 0000005a FFFEF7FF!         BL        memcmp                ; [DPU_V7M3_PIPE] |1107|  ; [KEEP 32-BIT INS]
    1027                            ; CALL OCCURS {memcmp }          ; [] |1107| 
    1028 0000005e 2800              CMP       A1, #0                ; [DPU_V7M3_PIPE] |1107|  ; [ORIG 16-BIT INS]
    1029 00000060 D0EB              BEQ       ||$C$L11||            ; [DPU_V7M3_PIPE] |1107|  ; [ORIG 16-BIT INS]
    1030                            ; BRANCHCC OCCURS {||$C$L11||}   ; [] |1107| 
    1031                    ;* --------------------------------------------------------------------------*
    1032                            .dwpsn  file "../Application/Services/nvocop.c",line 1109,column 7,is_stmt,isa 1
    1033 00000062 4906              LDR       A2, $C$CON9           ; [DPU_V7M3_PIPE] |1109|  ; [ORIG 16-BIT INS]
    1034 00000064 2001              MOVS      A1, #1                ; [DPU_V7M3_PIPE] |1109|  ; [ORIG 16-BIT INS]
    1035 00000066 7048              STRB      A1, [A2, #1]          ; [DPU_V7M3_PIPE] |1109|  ; [ORIG 16-BIT INS]
    1036 00000068 7008              STRB      A1, [A2, #0]          ; [DPU_V7M3_PIPE] |1109|  ; [ORIG 16-BIT INS]
    1037                    ;* --------------------------------------------------------------------------*
    1038 0000006a           ||$C$L13||:    
    1039                            .dwpsn  file "../Application/Services/nvocop.c",line 1150,column 5,is_stmt,isa 1
    1040 0000006a 4805              LDR       A1, $C$CON10          ; [DPU_V7M3_PIPE] |1150|  ; [ORIG 16-BIT INS]
    1041 0000006c 6801              LDR       A2, [A1, #0]          ; [DPU_V7M3_PIPE] |1150|  ; [ORIG 16-BIT INS]
    1042 0000006e 4640              MOV       A1, V5                ; [DPU_V7M3_PIPE] |1150|  ; [ORIG 16-BIT INS]
    1043                    $C$DW$81        .dwtag  DW_TAG_TI_branch
    1044                            .dwattr $C$DW$81, DW_AT_low_pc(0x00)
    1045                            .dwattr $C$DW$81, DW_AT_TI_call
TI ARM Assembler PC v18.1.1 Wed Apr 25 09:49:35 2018

Tools Copyright (c) 1996-2017 Texas Instruments Incorporated
C:\Users\devops\AppData\Local\Temp\2\{2E9581CE-A7E5-4D75-B068-1A0EA728AB6B} PAGE   20

    1046                            .dwattr $C$DW$81, DW_AT_TI_indirect
    1047                    
    1048 00000070 4788              BLX       A2                    ; [DPU_V7M3_PIPE] |1150|  ; [ORIG 16-BIT INS]
    1049                            ; CALL OCCURS {}                 ; [] |1150| 
    1050                    $C$DW$82        .dwtag  DW_TAG_TI_branch
    1051                            .dwattr $C$DW$82, DW_AT_low_pc(0x00)
    1052                            .dwattr $C$DW$82, DW_AT_TI_return
    1053                    
    1054 00000072 87FCE8BD          POP       {A3, A4, V1, V2, V3, V4, V5, V6, V7, PC} ; [DPU_V7M3_PIPE]  ; [KEEP 32-BIT INS]
    1055                            .dwcfi  cfa_offset, 0
    1056                            .dwcfi  restore_reg, 10
    1057                            .dwcfi  restore_reg, 9
    1058                            .dwcfi  restore_reg, 8
    1059                            .dwcfi  restore_reg, 7
    1060                            .dwcfi  restore_reg, 6
    1061                            .dwcfi  restore_reg, 5
    1062                            .dwcfi  restore_reg, 4
    1063                            .dwcfi  restore_reg, 3
    1064                            .dwcfi  restore_reg, 2
    1065                            ; BRANCH OCCURS                  ; [] 
    1066                            .dwattr $C$DW$60, DW_AT_TI_end_file("../Application/Services/nvocop.c")
    1067                            .dwattr $C$DW$60, DW_AT_TI_end_line(0x484)
    1068                            .dwattr $C$DW$60, DW_AT_TI_end_column(0x01)
    1069                            .dwendentry
    1070                            .dwendtag $C$DW$60
    1071                    
    1072 00000000                   .sect   ".text:setXferPage"
    1073                            .clink
    1074                            .thumbfunc setXferPage
    1075 00000000                   .thumb
    1076                    
    1077                    $C$DW$83        .dwtag  DW_TAG_subprogram
    1078                            .dwattr $C$DW$83, DW_AT_name("setXferPage")
    1079                            .dwattr $C$DW$83, DW_AT_low_pc(setXferPage)
    1080                            .dwattr $C$DW$83, DW_AT_high_pc(0x00)
    1081                            .dwattr $C$DW$83, DW_AT_TI_symbol_name("setXferPage")
    1082                            .dwattr $C$DW$83, DW_AT_TI_begin_file("../Application/Services/nvocop.c")
    1083                            .dwattr $C$DW$83, DW_AT_TI_begin_line(0x246)
    1084                            .dwattr $C$DW$83, DW_AT_TI_begin_column(0x0d)
    1085                            .dwattr $C$DW$83, DW_AT_decl_file("../Application/Services/nvocop.c")
    1086                            .dwattr $C$DW$83, DW_AT_decl_line(0x246)
    1087                            .dwattr $C$DW$83, DW_AT_decl_column(0x0d)
    1088                            .dwattr $C$DW$83, DW_AT_TI_max_frame_size(0x08)
    1089                            .dwpsn  file "../Application/Services/nvocop.c",line 583,column 1,is_stmt,address setXferPage,
    1090                    
    1091                            .dwfde $C$DW$CIE, setXferPage
    1092                    
    1093                    ;*****************************************************************************
    1094                    ;* FUNCTION NAME: setXferPage                                                *
    1095                    ;*                                                                           *
    1096                    ;*   Regs Modified     : A1,A2,A3,A4,V9,SP,LR,SR                             *
    1097                    ;*   Regs Used         : A1,A2,A3,A4,V9,SP,LR,SR                             *
    1098                    ;*   Local Frame Size  : 0 Args + 4 Auto + 4 Save = 8 byte                   *
    1099                    ;*****************************************************************************
    1100                    setXferPage:
TI ARM Assembler PC v18.1.1 Wed Apr 25 09:49:35 2018

Tools Copyright (c) 1996-2017 Texas Instruments Incorporated
C:\Users\devops\AppData\Local\Temp\2\{2E9581CE-A7E5-4D75-B068-1A0EA728AB6B} PAGE   21

    1101                    ;* --------------------------------------------------------------------------*
    1102                    $C$DW$84        .dwtag  DW_TAG_variable
    1103                            .dwattr $C$DW$84, DW_AT_name("pgHdr")
    1104                            .dwattr $C$DW$84, DW_AT_TI_symbol_name("pgHdr")
    1105                            .dwattr $C$DW$84, DW_AT_type(*$C$DW$T$222)
    1106                            .dwattr $C$DW$84, DW_AT_location[DW_OP_breg13 0]
    1107                    
    1108                            .dwcfi  cfa_offset, 0
    1109 00000000 B508              PUSH      {A4, LR}              ; [DPU_V7M3_PIPE]  ; [ORIG 16-BIT INS]
    1110                            .dwcfi  cfa_offset, 8
    1111                            .dwcfi  save_reg_to_mem, 14, -4
    1112                            .dwcfi  save_reg_to_mem, 3, -8
    1113                            .dwpsn  file "../Application/Services/nvocop.c",line 587,column 3,is_stmt,isa 1
    1114 00000002 2000              MOVS      A1, #0                ; [DPU_V7M3_PIPE] |587|  ; [ORIG 16-BIT INS]
    1115                            .dwpsn  file "../Application/Services/nvocop.c",line 589,column 3,is_stmt,isa 1
    1116 00000004 2201              MOVS      A3, #1                ; [DPU_V7M3_PIPE] |589|  ; [ORIG 16-BIT INS]
    1117 00000006 4669              MOV       A2, SP                ; [DPU_V7M3_PIPE] |589|  ; [ORIG 16-BIT INS]
    1118                            .dwpsn  file "../Application/Services/nvocop.c",line 587,column 3,is_stmt,isa 1
    1119 00000008 9000              STR       A1, [SP, #0]          ; [DPU_V7M3_PIPE] |587|  ; [ORIG 16-BIT INS]
    1120                            .dwpsn  file "../Application/Services/nvocop.c",line 589,column 3,is_stmt,isa 1
    1121                    $C$DW$85        .dwtag  DW_TAG_TI_branch
    1122                            .dwattr $C$DW$85, DW_AT_low_pc(0x00)
    1123                            .dwattr $C$DW$85, DW_AT_name("writeWord")
    1124                            .dwattr $C$DW$85, DW_AT_TI_call
    1125                    
    1126 0000000a FFFEF7FF!         BL        writeWord             ; [DPU_V7M3_PIPE] |589|  ; [KEEP 32-BIT INS]
    1127                            ; CALL OCCURS {writeWord }       ; [] |589| 
    1128                    $C$DW$86        .dwtag  DW_TAG_TI_branch
    1129                            .dwattr $C$DW$86, DW_AT_low_pc(0x00)
    1130                            .dwattr $C$DW$86, DW_AT_TI_return
    1131                    
    1132 0000000e BD08              POP       {A4, PC}              ; [DPU_V7M3_PIPE]  ; [ORIG 16-BIT INS]
    1133                            .dwcfi  cfa_offset, 0
    1134                            .dwcfi  restore_reg, 3
    1135                            ; BRANCH OCCURS                  ; [] 
    1136                            .dwattr $C$DW$83, DW_AT_TI_end_file("../Application/Services/nvocop.c")
    1137                            .dwattr $C$DW$83, DW_AT_TI_end_line(0x24e)
    1138                            .dwattr $C$DW$83, DW_AT_TI_end_column(0x01)
    1139                            .dwendentry
    1140                            .dwendtag $C$DW$83
    1141                    
    1142 00000000                   .sect   ".text:findItemInCache"
    1143                            .clink
    1144                            .thumbfunc findItemInCache
    1145 00000000                   .thumb
    1146                    
    1147                    $C$DW$87        .dwtag  DW_TAG_subprogram
    1148                            .dwattr $C$DW$87, DW_AT_name("findItemInCache")
    1149                            .dwattr $C$DW$87, DW_AT_low_pc(findItemInCache)
    1150                            .dwattr $C$DW$87, DW_AT_high_pc(0x00)
    1151                            .dwattr $C$DW$87, DW_AT_TI_symbol_name("findItemInCache")
    1152                            .dwattr $C$DW$87, DW_AT_type(*$C$DW$T$21)
    1153                            .dwattr $C$DW$87, DW_AT_TI_begin_file("../Application/Services/nvocop.c")
    1154                            .dwattr $C$DW$87, DW_AT_TI_begin_line(0x343)
    1155                            .dwattr $C$DW$87, DW_AT_TI_begin_column(0x0f)
TI ARM Assembler PC v18.1.1 Wed Apr 25 09:49:35 2018

Tools Copyright (c) 1996-2017 Texas Instruments Incorporated
C:\Users\devops\AppData\Local\Temp\2\{2E9581CE-A7E5-4D75-B068-1A0EA728AB6B} PAGE   22

    1156                            .dwattr $C$DW$87, DW_AT_decl_file("../Application/Services/nvocop.c")
    1157                            .dwattr $C$DW$87, DW_AT_decl_line(0x343)
    1158                            .dwattr $C$DW$87, DW_AT_decl_column(0x0f)
    1159                            .dwattr $C$DW$87, DW_AT_TI_max_frame_size(0x18)
    1160                            .dwpsn  file "../Application/Services/nvocop.c",line 837,column 1,is_stmt,address findItemInCa
    1161                    
    1162                            .dwfde $C$DW$CIE, findItemInCache
    1163                    $C$DW$88        .dwtag  DW_TAG_formal_parameter
    1164                            .dwattr $C$DW$88, DW_AT_name("offset")
    1165                            .dwattr $C$DW$88, DW_AT_TI_symbol_name("offset")
    1166                            .dwattr $C$DW$88, DW_AT_type(*$C$DW$T$21)
    1167                            .dwattr $C$DW$88, DW_AT_location[DW_OP_reg0]
    1168                    
    1169                    $C$DW$89        .dwtag  DW_TAG_formal_parameter
    1170                            .dwattr $C$DW$89, DW_AT_name("nv_id")
    1171                            .dwattr $C$DW$89, DW_AT_TI_symbol_name("nv_id")
    1172                            .dwattr $C$DW$89, DW_AT_type(*$C$DW$T$178)
    1173                            .dwattr $C$DW$89, DW_AT_location[DW_OP_breg13 16]
    1174                    
    1175                    
    1176                    ;*****************************************************************************
    1177                    ;* FUNCTION NAME: findItemInCache                                            *
    1178                    ;*                                                                           *
    1179                    ;*   Regs Modified     : A1,A2,A3,A4,V4,SP,LR,SR                             *
    1180                    ;*   Regs Used         : A1,A2,A3,A4,V4,SP,LR,SR                             *
    1181                    ;*   Local Frame Size  : 0 Args + 8 Auto + 8 Save = 16 byte                  *
    1182                    ;*****************************************************************************
    1183                    findItemInCache:
    1184                    ;* --------------------------------------------------------------------------*
    1185                    $C$DW$90        .dwtag  DW_TAG_variable
    1186                            .dwattr $C$DW$90, DW_AT_name("hdr")
    1187                            .dwattr $C$DW$90, DW_AT_TI_symbol_name("hdr")
    1188                            .dwattr $C$DW$90, DW_AT_type(*$C$DW$T$203)
    1189                            .dwattr $C$DW$90, DW_AT_location[DW_OP_breg13 0]
    1190                    
    1191                    ;* A2    assigned to $O$C1
    1192                    ;* A1    assigned to offset
    1193                    $C$DW$91        .dwtag  DW_TAG_variable
    1194                            .dwattr $C$DW$91, DW_AT_name("offset")
    1195                            .dwattr $C$DW$91, DW_AT_TI_symbol_name("offset")
    1196                            .dwattr $C$DW$91, DW_AT_type(*$C$DW$T$21)
    1197                            .dwattr $C$DW$91, DW_AT_location[DW_OP_reg0]
    1198                    
    1199                            .dwcfi  cfa_offset, 0
    1200                            .dwpsn  file "../Application/Services/nvocop.c",line 840,column 10,is_stmt,isa 1
    1201 00000000 1F00              SUBS      A1, A1, #4            ; [DPU_V7M3_PIPE] |840|  ; [ORIG 16-BIT INS]
    1202 00000002 B406              PUSH      {A2, A3}              ; [DPU_V7M3_PIPE]  ; [ORIG 16-BIT INS]
    1203                            .dwcfi  cfa_offset, 8
    1204                            .dwcfi  save_reg_to_mem, 2, -4
    1205                            .dwcfi  save_reg_to_mem, 1, -8
    1206 00000004 B280              UXTH      A1, A1                ; [DPU_V7M3_PIPE] |840|  ; [ORIG 16-BIT INS]
    1207 00000006 B580              PUSH      {V4, LR}              ; [DPU_V7M3_PIPE]  ; [ORIG 16-BIT INS]
    1208                            .dwcfi  cfa_offset, 16
    1209                            .dwcfi  save_reg_to_mem, 14, -12
    1210                            .dwcfi  save_reg_to_mem, 7, -16
TI ARM Assembler PC v18.1.1 Wed Apr 25 09:49:35 2018

Tools Copyright (c) 1996-2017 Texas Instruments Incorporated
C:\Users\devops\AppData\Local\Temp\2\{2E9581CE-A7E5-4D75-B068-1A0EA728AB6B} PAGE   23

    1211 00000008 2808              CMP       A1, #8                ; [DPU_V7M3_PIPE] |840|  ; [ORIG 16-BIT INS]
    1212 0000000a AF02              ADD       V4, SP, #8            ; [DPU_V7M3_PIPE]  ; [ORIG 16-BIT INS]
    1213 0000000c 0D08F1AD          SUB       SP, SP, #8            ; [DPU_V7M3_PIPE]  ; [KEEP 32-BIT INS]
    1214                            .dwcfi  cfa_offset, 24
    1215 00000010 DB26              BLT       ||$C$L16||            ; [DPU_V7M3_PIPE] |840|  ; [ORIG 16-BIT INS]
    1216                            ; BRANCHCC OCCURS {||$C$L16||}   ; [] |840| 
    1217                    ;* --------------------------------------------------------------------------*
    1218                    ;*   BEGIN LOOP ||$C$L14||
    1219                    ;*
    1220                    ;*   Loop source line                : 840
    1221                    ;*   Loop closing brace source line  : 865
    1222                    ;*   Known Minimum Trip Count        : 1
    1223                    ;*   Known Maximum Trip Count        : 4294967295
    1224                    ;*   Known Max Trip Count Factor     : 1
    1225                    ;* --------------------------------------------------------------------------*
    1226 00000012           ||$C$L14||:    
    1227 00000012 5F80F5B0          CMP       A1, #4096             ; [DPU_V7M3_PIPE] |840|  ; [KEEP 32-BIT INS]
    1228 00000016 DA23              BGE       ||$C$L16||            ; [DPU_V7M3_PIPE] |840|  ; [ORIG 16-BIT INS]
    1229                            ; BRANCHCC OCCURS {||$C$L16||}   ; [] |840| 
    1230                    ;* --------------------------------------------------------------------------*
    1231                            .dwpsn  file "../Application/Services/nvocop.c",line 846,column 5,is_stmt,isa 1
    1232 00000018 5188F100          ADD       A2, A1, #285212672    ; [DPU_V7M3_PIPE] |846|  ; [KEEP 32-BIT INS]
    1233 0000001c 1F09              SUBS      A2, A2, #4            ; [DPU_V7M3_PIPE] |846|  ; [ORIG 16-BIT INS]
    1234 0000001e 680B              LDR       A4, [A2, #0]          ; [DPU_V7M3_PIPE] |846|  ; [ORIG 16-BIT INS]
    1235 00000020 466A              MOV       A3, SP                ; [DPU_V7M3_PIPE] |846|  ; [ORIG 16-BIT INS]
    1236 00000022 6013              STR       A4, [A3, #0]          ; [DPU_V7M3_PIPE] |846|  ; [ORIG 16-BIT INS]
    1237 00000024 6849              LDR       A2, [A2, #4]          ; [DPU_V7M3_PIPE] |846|  ; [ORIG 16-BIT INS]
    1238 00000026 6051              STR       A2, [A3, #4]          ; [DPU_V7M3_PIPE] |846|  ; [ORIG 16-BIT INS]
    1239                            .dwpsn  file "../Application/Services/nvocop.c",line 853,column 5,is_stmt,isa 1
    1240 00000028 1000F8BD          LDRH      A2, [SP, #0]          ; [DPU_V7M3_PIPE] |853|  ; [KEEP 32-BIT INS]
    1241 0000002c 0BCA              LSRS      A3, A2, #15           ; [DPU_V7M3_PIPE] |853|  ; [ORIG 16-BIT INS]
    1242 0000002e D310              BCC       ||$C$L15||            ; [DPU_V7M3_PIPE] |853|  ; [ORIG 16-BIT INS]
    1243                            ; BRANCHCC OCCURS {||$C$L15||}   ; [] |853| 
    1244                    ;* --------------------------------------------------------------------------*
    1245 00000030 783A              LDRB      A3, [V4, #0]          ; [DPU_V7M3_PIPE] |853|  ; [ORIG 16-BIT INS]
    1246 00000032 01FFF001          AND       A2, A2, #255          ; [DPU_V7M3_PIPE] |853|  ; [KEEP 32-BIT INS]
    1247 00000036 428A              CMP       A3, A2                ; [DPU_V7M3_PIPE] |853|  ; [ORIG 16-BIT INS]
    1248 00000038 D10B              BNE       ||$C$L15||            ; [DPU_V7M3_PIPE] |853|  ; [ORIG 16-BIT INS]
    1249                            ; BRANCHCC OCCURS {||$C$L15||}   ; [] |853| 
    1250                    ;* --------------------------------------------------------------------------*
    1251 0000003a 8879              LDRH      A2, [V4, #2]          ; [DPU_V7M3_PIPE] |853|  ; [ORIG 16-BIT INS]
    1252 0000003c 2002F8BD          LDRH      A3, [SP, #2]          ; [DPU_V7M3_PIPE] |853|  ; [KEEP 32-BIT INS]
    1253 00000040 4291              CMP       A2, A3                ; [DPU_V7M3_PIPE] |853|  ; [ORIG 16-BIT INS]
    1254 00000042 D106              BNE       ||$C$L15||            ; [DPU_V7M3_PIPE] |853|  ; [ORIG 16-BIT INS]
    1255                            ; BRANCHCC OCCURS {||$C$L15||}   ; [] |853| 
    1256                    ;* --------------------------------------------------------------------------*
    1257 00000044 88B9              LDRH      A2, [V4, #4]          ; [DPU_V7M3_PIPE] |853|  ; [ORIG 16-BIT INS]
    1258 00000046 2004F8BD          LDRH      A3, [SP, #4]          ; [DPU_V7M3_PIPE] |853|  ; [KEEP 32-BIT INS]
    1259 0000004a 4291              CMP       A2, A3                ; [DPU_V7M3_PIPE] |853|  ; [ORIG 16-BIT INS]
    1260 0000004c BF08              IT        EQ                    ; [DPU_V7M3_PIPE]  ; [ORIG 16-BIT INS]
    1261                            .dwpsn  file "../Application/Services/nvocop.c",line 859,column 7,is_stmt,isa 1
    1262 0000004e 2001              MOVEQ     A1, #1                ; [DPU_V7M3_PIPE] |859|  ; [ORIG 16-BIT INS]
    1263 00000050 D007              BEQ       ||$C$L17||            ; [DPU_V7M3_PIPE] |859|  ; [ORIG 16-BIT INS]
    1264                            ; BRANCHCC OCCURS {||$C$L17||}   ; [] |859| 
    1265                    ;* --------------------------------------------------------------------------*
TI ARM Assembler PC v18.1.1 Wed Apr 25 09:49:35 2018

Tools Copyright (c) 1996-2017 Texas Instruments Incorporated
C:\Users\devops\AppData\Local\Temp\2\{2E9581CE-A7E5-4D75-B068-1A0EA728AB6B} PAGE   24

    1266 00000052           ||$C$L15||:    
    1267                            .dwpsn  file "../Application/Services/nvocop.c",line 863,column 7,is_stmt,isa 1
    1268 00000052 1006F8BD          LDRH      A2, [SP, #6]          ; [DPU_V7M3_PIPE] |863|  ; [KEEP 32-BIT INS]
    1269 00000056 1A40              SUBS      A1, A1, A2            ; [DPU_V7M3_PIPE] |863|  ; [ORIG 16-BIT INS]
    1270 00000058 3808              SUBS      A1, A1, #8            ; [DPU_V7M3_PIPE] |863|  ; [ORIG 16-BIT INS]
    1271 0000005a B280              UXTH      A1, A1                ; [DPU_V7M3_PIPE] |863|  ; [ORIG 16-BIT INS]
    1272 0000005c 2808              CMP       A1, #8                ; [DPU_V7M3_PIPE] |863|  ; [ORIG 16-BIT INS]
    1273 0000005e DAD8              BGE       ||$C$L14||            ; [DPU_V7M3_PIPE] |863|  ; [ORIG 16-BIT INS]
    1274                            ; BRANCHCC OCCURS {||$C$L14||}   ; [] |863| 
    1275                    ;* --------------------------------------------------------------------------*
    1276 00000060           ||$C$L16||:    
    1277                            .dwpsn  file "../Application/Services/nvocop.c",line 867,column 3,is_stmt,isa 1
    1278 00000060 2000              MOVS      A1, #0                ; [DPU_V7M3_PIPE] |867|  ; [ORIG 16-BIT INS]
    1279                    ;* --------------------------------------------------------------------------*
    1280 00000062           ||$C$L17||:    
    1281 00000062 B002              ADD       SP, SP, #8            ; [DPU_V7M3_PIPE]  ; [ORIG 16-BIT INS]
    1282                            .dwcfi  cfa_offset, 16
    1283 00000064 4080E8BD          POP       {V4, LR}              ; [DPU_V7M3_PIPE]  ; [KEEP 32-BIT INS]
    1284                            .dwcfi  cfa_offset, 8
    1285                            .dwcfi  restore_reg, 14
    1286                            .dwcfi  restore_reg, 7
    1287 00000068 B002              ADD       SP, SP, #8            ; [DPU_V7M3_PIPE]  ; [ORIG 16-BIT INS]
    1288                            .dwcfi  cfa_offset, 0
    1289                    $C$DW$92        .dwtag  DW_TAG_TI_branch
    1290                            .dwattr $C$DW$92, DW_AT_low_pc(0x00)
    1291                            .dwattr $C$DW$92, DW_AT_TI_return
    1292                    
    1293 0000006a 4770              BX        LR                    ; [DPU_V7M3_PIPE]  ; [ORIG 16-BIT INS]
    1294                            ; BRANCH OCCURS                  ; [] 
    1295                            .dwattr $C$DW$87, DW_AT_TI_end_file("../Application/Services/nvocop.c")
    1296                            .dwattr $C$DW$87, DW_AT_TI_end_line(0x364)
    1297                            .dwattr $C$DW$87, DW_AT_TI_end_column(0x01)
    1298                            .dwendentry
    1299                            .dwendtag $C$DW$87
    1300                    
    1301 00000000                   .sect   ".text:erasePage"
    1302                            .clink
    1303                            .thumbfunc erasePage
    1304 00000000                   .thumb
    1305                    
    1306                    $C$DW$93        .dwtag  DW_TAG_subprogram
    1307                            .dwattr $C$DW$93, DW_AT_name("erasePage")
    1308                            .dwattr $C$DW$93, DW_AT_low_pc(erasePage)
    1309                            .dwattr $C$DW$93, DW_AT_high_pc(0x00)
    1310                            .dwattr $C$DW$93, DW_AT_TI_symbol_name("erasePage")
    1311                            .dwattr $C$DW$93, DW_AT_TI_begin_file("../Application/Services/nvocop.c")
    1312                            .dwattr $C$DW$93, DW_AT_TI_begin_line(0x25a)
    1313                            .dwattr $C$DW$93, DW_AT_TI_begin_column(0x0d)
    1314                            .dwattr $C$DW$93, DW_AT_decl_file("../Application/Services/nvocop.c")
    1315                            .dwattr $C$DW$93, DW_AT_decl_line(0x25a)
    1316                            .dwattr $C$DW$93, DW_AT_decl_column(0x0d)
    1317                            .dwattr $C$DW$93, DW_AT_TI_max_frame_size(0x18)
    1318                            .dwpsn  file "../Application/Services/nvocop.c",line 603,column 1,is_stmt,address erasePage,is
    1319                    
    1320                            .dwfde $C$DW$CIE, erasePage
TI ARM Assembler PC v18.1.1 Wed Apr 25 09:49:35 2018

Tools Copyright (c) 1996-2017 Texas Instruments Incorporated
C:\Users\devops\AppData\Local\Temp\2\{2E9581CE-A7E5-4D75-B068-1A0EA728AB6B} PAGE   25

    1321                    
    1322                    ;*****************************************************************************
    1323                    ;* FUNCTION NAME: erasePage                                                  *
    1324                    ;*                                                                           *
    1325                    ;*   Regs Modified     : A1,A2,A3,A4,V1,V2,V3,V4,V9,SP,LR,SR                 *
    1326                    ;*   Regs Used         : A1,A2,A3,A4,V1,V2,V3,V4,V9,SP,LR,SR                 *
    1327                    ;*   Local Frame Size  : 0 Args + 0 Auto + 20 Save = 20 byte                 *
    1328                    ;*****************************************************************************
    1329                    erasePage:
    1330                    ;* --------------------------------------------------------------------------*
    1331                    ;* A1    assigned to $O$C1
    1332                    ;* V1    assigned to $O$C2
    1333                    ;* V1    assigned to $O$K15
    1334                    ;* A1    assigned to $O$v1
    1335                    ;* V2    assigned to cs
    1336                    $C$DW$94        .dwtag  DW_TAG_variable
    1337                            .dwattr $C$DW$94, DW_AT_name("cs")
    1338                            .dwattr $C$DW$94, DW_AT_TI_symbol_name("cs")
    1339                            .dwattr $C$DW$94, DW_AT_type(*$C$DW$T$351)
    1340                            .dwattr $C$DW$94, DW_AT_location[DW_OP_reg5]
    1341                    
    1342                    ;* V3    assigned to state
    1343                    $C$DW$95        .dwtag  DW_TAG_variable
    1344                            .dwattr $C$DW$95, DW_AT_name("state")
    1345                            .dwattr $C$DW$95, DW_AT_TI_symbol_name("state")
    1346                            .dwattr $C$DW$95, DW_AT_type(*$C$DW$T$10)
    1347                            .dwattr $C$DW$95, DW_AT_location[DW_OP_reg6]
    1348                    
    1349                    ;* V4    assigned to err
    1350                    $C$DW$96        .dwtag  DW_TAG_variable
    1351                            .dwattr $C$DW$96, DW_AT_name("err")
    1352                            .dwattr $C$DW$96, DW_AT_TI_symbol_name("err")
    1353                            .dwattr $C$DW$96, DW_AT_type(*$C$DW$T$25)
    1354                            .dwattr $C$DW$96, DW_AT_location[DW_OP_reg7]
    1355                    
    1356                            .dwcfi  cfa_offset, 0
    1357                            .dwpsn  file "../Application/Services/nvocop.c",line 616,column 5,is_stmt,isa 1
    1358 00000000 4810              LDR       A1, $C$CON16          ; [DPU_V7M3_PIPE] |616|  ; [ORIG 16-BIT INS]
    1359 00000002 B5F8              PUSH      {A4, V1, V2, V3, V4, LR} ; [DPU_V7M3_PIPE]  ; [ORIG 16-BIT INS]
    1360                            .dwcfi  cfa_offset, 24
    1361                            .dwcfi  save_reg_to_mem, 14, -4
    1362                            .dwcfi  save_reg_to_mem, 7, -8
    1363                            .dwcfi  save_reg_to_mem, 6, -12
    1364                            .dwcfi  save_reg_to_mem, 5, -16
    1365                            .dwcfi  save_reg_to_mem, 4, -20
    1366                            .dwcfi  save_reg_to_mem, 3, -24
    1367 00000004 6800              LDR       A1, [A1, #0]          ; [DPU_V7M3_PIPE] |616|  ; [ORIG 16-BIT INS]
    1368                    $C$DW$97        .dwtag  DW_TAG_TI_branch
    1369                            .dwattr $C$DW$97, DW_AT_low_pc(0x00)
    1370                            .dwattr $C$DW$97, DW_AT_TI_call
    1371                            .dwattr $C$DW$97, DW_AT_TI_indirect
    1372                    
    1373 00000006 4780              BLX       A1                    ; [DPU_V7M3_PIPE] |616|  ; [ORIG 16-BIT INS]
    1374                            ; CALL OCCURS {}                 ; [] |616| 
    1375 00000008 4605              MOV       V2, A1                ; [DPU_V7M3_PIPE] |616|  ; [ORIG 16-BIT INS]
TI ARM Assembler PC v18.1.1 Wed Apr 25 09:49:35 2018

Tools Copyright (c) 1996-2017 Texas Instruments Incorporated
C:\Users\devops\AppData\Local\Temp\2\{2E9581CE-A7E5-4D75-B068-1A0EA728AB6B} PAGE   26

    1376                            .dwpsn  file "../Application/Services/nvocop.c",line 619,column 5,is_stmt,isa 1
    1377                    $C$DW$98        .dwtag  DW_TAG_TI_branch
    1378                            .dwattr $C$DW$98, DW_AT_low_pc(0x00)
    1379                            .dwattr $C$DW$98, DW_AT_name("disableCache")
    1380                            .dwattr $C$DW$98, DW_AT_TI_call
    1381                    
    1382 0000000a FFFEF7FF!         BL        disableCache          ; [DPU_V7M3_PIPE] |619|  ; [KEEP 32-BIT INS]
    1383                            ; CALL OCCURS {disableCache }    ; [] |619| 
    1384 0000000e 4606              MOV       V3, A1                ; [DPU_V7M3_PIPE] |619|  ; [ORIG 16-BIT INS]
    1385                            .dwpsn  file "../Application/Services/nvocop.c",line 621,column 5,is_stmt,isa 1
    1386 00000010 480B              LDR       A1, $C$CON13          ; [DPU_V7M3_PIPE] |621|  ; [ORIG 16-BIT INS]
    1387 00000012 2100              MOVS      A2, #0                ; [DPU_V7M3_PIPE] |621|  ; [ORIG 16-BIT INS]
    1388 00000014 0B00              LSRS      A1, A1, #12           ; [DPU_V7M3_PIPE] |621|  ; [ORIG 16-BIT INS]
    1389 00000016 B2C0              UXTB      A1, A1                ; [DPU_V7M3_PIPE] |621|  ; [ORIG 16-BIT INS]
    1390                    $C$DW$99        .dwtag  DW_TAG_TI_branch
    1391                            .dwattr $C$DW$99, DW_AT_low_pc(0x00)
    1392                            .dwattr $C$DW$99, DW_AT_name("HalFlashGetAddress")
    1393                            .dwattr $C$DW$99, DW_AT_TI_call
    1394                    
    1395 00000018 FFFEF7FF!         BL        HalFlashGetAddress    ; [DPU_V7M3_PIPE] |621|  ; [KEEP 32-BIT INS]
    1396                            ; CALL OCCURS {HalFlashGetAddress }  ; [] |621| 
    1397 0000001c 4C0A              LDR       V1, $C$CON17          ; [DPU_V7M3_PIPE] |621|  ; [ORIG 16-BIT INS]
    1398 0000001e 6060              STR       A1, [V1, #4]          ; [DPU_V7M3_PIPE] |621|  ; [ORIG 16-BIT INS]
    1399                            .dwpsn  file "../Application/Services/nvocop.c",line 624,column 5,is_stmt,isa 1
    1400                    $C$DW$100       .dwtag  DW_TAG_TI_branch
    1401                            .dwattr $C$DW$100, DW_AT_low_pc(0x00)
    1402                            .dwattr $C$DW$100, DW_AT_name("NOROM_FlashSectorErase")
    1403                            .dwattr $C$DW$100, DW_AT_TI_call
    1404                    
    1405 00000020 FFFEF7FF!         BL        NOROM_FlashSectorErase ; [DPU_V7M3_PIPE] |624|  ; [KEEP 32-BIT INS]
    1406                            ; CALL OCCURS {NOROM_FlashSectorErase }  ; [] |624| 
    1407 00000024 4607              MOV       V4, A1                ; [DPU_V7M3_PIPE] |624|  ; [ORIG 16-BIT INS]
    1408                            .dwpsn  file "../Application/Services/nvocop.c",line 627,column 5,is_stmt,isa 1
    1409 00000026 4630              MOV       A1, V3                ; [DPU_V7M3_PIPE] |627|  ; [ORIG 16-BIT INS]
    1410                    $C$DW$101       .dwtag  DW_TAG_TI_branch
    1411                            .dwattr $C$DW$101, DW_AT_low_pc(0x00)
    1412                            .dwattr $C$DW$101, DW_AT_name("enableCache")
    1413                            .dwattr $C$DW$101, DW_AT_TI_call
    1414                    
    1415 00000028 FFFEF7FF!         BL        enableCache           ; [DPU_V7M3_PIPE] |627|  ; [KEEP 32-BIT INS]
    1416                            ; CALL OCCURS {enableCache }     ; [] |627| 
    1417 0000002c B117              CBZ       V4, ||$C$L18||        ; []  ; [ORIG 16-BIT INS]
    1418                            .dwpsn  file "../Application/Services/nvocop.c",line 630,column 5,is_stmt,isa 1
    1419                            ; BRANCHCC OCCURS {||$C$L18||}   ; [] |630| 
    1420                    ;* --------------------------------------------------------------------------*
    1421                            .dwpsn  file "../Application/Services/nvocop.c",line 632,column 7,is_stmt,isa 1
    1422 0000002e 2001              MOVS      A1, #1                ; [DPU_V7M3_PIPE] |632|  ; [ORIG 16-BIT INS]
    1423 00000030 7060              STRB      A1, [V1, #1]          ; [DPU_V7M3_PIPE] |632|  ; [ORIG 16-BIT INS]
    1424 00000032 7020              STRB      A1, [V1, #0]          ; [DPU_V7M3_PIPE] |632|  ; [ORIG 16-BIT INS]
    1425                    ;* --------------------------------------------------------------------------*
    1426 00000034           ||$C$L18||:    
    1427                            .dwpsn  file "../Application/Services/nvocop.c",line 635,column 5,is_stmt,isa 1
    1428 00000034 4805              LDR       A1, $C$CON18          ; [DPU_V7M3_PIPE] |635|  ; [ORIG 16-BIT INS]
    1429 00000036 6801              LDR       A2, [A1, #0]          ; [DPU_V7M3_PIPE] |635|  ; [ORIG 16-BIT INS]
    1430 00000038 4628              MOV       A1, V2                ; [DPU_V7M3_PIPE] |635|  ; [ORIG 16-BIT INS]
TI ARM Assembler PC v18.1.1 Wed Apr 25 09:49:35 2018

Tools Copyright (c) 1996-2017 Texas Instruments Incorporated
C:\Users\devops\AppData\Local\Temp\2\{2E9581CE-A7E5-4D75-B068-1A0EA728AB6B} PAGE   27

    1431                    $C$DW$102       .dwtag  DW_TAG_TI_branch
    1432                            .dwattr $C$DW$102, DW_AT_low_pc(0x00)
    1433                            .dwattr $C$DW$102, DW_AT_TI_call
    1434                            .dwattr $C$DW$102, DW_AT_TI_indirect
    1435                    
    1436 0000003a 4788              BLX       A2                    ; [DPU_V7M3_PIPE] |635|  ; [ORIG 16-BIT INS]
    1437                            ; CALL OCCURS {}                 ; [] |635| 
    1438                    $C$DW$103       .dwtag  DW_TAG_TI_branch
    1439                            .dwattr $C$DW$103, DW_AT_low_pc(0x00)
    1440                            .dwattr $C$DW$103, DW_AT_TI_return
    1441                    
    1442 0000003c BDF8              POP       {A4, V1, V2, V3, V4, PC} ; [DPU_V7M3_PIPE]  ; [ORIG 16-BIT INS]
    1443                            .dwcfi  cfa_offset, 0
    1444                            .dwcfi  restore_reg, 7
    1445                            .dwcfi  restore_reg, 6
    1446                            .dwcfi  restore_reg, 5
    1447                            .dwcfi  restore_reg, 4
    1448                            .dwcfi  restore_reg, 3
    1449                            ; BRANCH OCCURS                  ; [] 
    1450                            .dwattr $C$DW$93, DW_AT_TI_end_file("../Application/Services/nvocop.c")
    1451                            .dwattr $C$DW$93, DW_AT_TI_end_line(0x27d)
    1452                            .dwattr $C$DW$93, DW_AT_TI_end_column(0x01)
    1453                            .dwendentry
    1454                            .dwendtag $C$DW$93
    1455                    
    1456 00000000                   .sect   ".text:setActivePage"
    1457                            .clink
    1458                            .thumbfunc setActivePage
    1459 00000000                   .thumb
    1460                    
    1461                    $C$DW$104       .dwtag  DW_TAG_subprogram
    1462                            .dwattr $C$DW$104, DW_AT_name("setActivePage")
    1463                            .dwattr $C$DW$104, DW_AT_low_pc(setActivePage)
    1464                            .dwattr $C$DW$104, DW_AT_high_pc(0x00)
    1465                            .dwattr $C$DW$104, DW_AT_TI_symbol_name("setActivePage")
    1466                            .dwattr $C$DW$104, DW_AT_TI_begin_file("../Application/Services/nvocop.c")
    1467                            .dwattr $C$DW$104, DW_AT_TI_begin_line(0x234)
    1468                            .dwattr $C$DW$104, DW_AT_TI_begin_column(0x0d)
    1469                            .dwattr $C$DW$104, DW_AT_decl_file("../Application/Services/nvocop.c")
    1470                            .dwattr $C$DW$104, DW_AT_decl_line(0x234)
    1471                            .dwattr $C$DW$104, DW_AT_decl_column(0x0d)
    1472                            .dwattr $C$DW$104, DW_AT_TI_max_frame_size(0x08)
    1473                            .dwpsn  file "../Application/Services/nvocop.c",line 565,column 1,is_stmt,address setActivePag
    1474                    
    1475                            .dwfde $C$DW$CIE, setActivePage
    1476                    
    1477                    ;*****************************************************************************
    1478                    ;* FUNCTION NAME: setActivePage                                              *
    1479                    ;*                                                                           *
    1480                    ;*   Regs Modified     : A1,A2,A3,A4,V9,SP,LR,SR                             *
    1481                    ;*   Regs Used         : A1,A2,A3,A4,V9,SP,LR,SR                             *
    1482                    ;*   Local Frame Size  : 0 Args + 4 Auto + 4 Save = 8 byte                   *
    1483                    ;*****************************************************************************
    1484                    setActivePage:
    1485                    ;* --------------------------------------------------------------------------*
TI ARM Assembler PC v18.1.1 Wed Apr 25 09:49:35 2018

Tools Copyright (c) 1996-2017 Texas Instruments Incorporated
C:\Users\devops\AppData\Local\Temp\2\{2E9581CE-A7E5-4D75-B068-1A0EA728AB6B} PAGE   28

    1486                    $C$DW$105       .dwtag  DW_TAG_variable
    1487                            .dwattr $C$DW$105, DW_AT_name("pgHdr")
    1488                            .dwattr $C$DW$105, DW_AT_TI_symbol_name("pgHdr")
    1489                            .dwattr $C$DW$105, DW_AT_type(*$C$DW$T$222)
    1490                            .dwattr $C$DW$105, DW_AT_location[DW_OP_breg13 0]
    1491                    
    1492                            .dwcfi  cfa_offset, 0
    1493 00000000 B508              PUSH      {A4, LR}              ; [DPU_V7M3_PIPE]  ; [ORIG 16-BIT INS]
    1494                            .dwcfi  cfa_offset, 8
    1495                            .dwcfi  save_reg_to_mem, 14, -4
    1496                            .dwcfi  save_reg_to_mem, 3, -8
    1497                            .dwpsn  file "../Application/Services/nvocop.c",line 568,column 3,is_stmt,isa 1
    1498 00000002 1080F44F          MOV       A1, #1048576          ; [DPU_V7M3_PIPE] |568|  ; [KEEP 32-BIT INS]
    1499                            .dwpsn  file "../Application/Services/nvocop.c",line 570,column 3,is_stmt,isa 1
    1500 00000006 2201              MOVS      A3, #1                ; [DPU_V7M3_PIPE] |570|  ; [ORIG 16-BIT INS]
    1501 00000008 4669              MOV       A2, SP                ; [DPU_V7M3_PIPE] |570|  ; [ORIG 16-BIT INS]
    1502                            .dwpsn  file "../Application/Services/nvocop.c",line 568,column 3,is_stmt,isa 1
    1503 0000000a 9000              STR       A1, [SP, #0]          ; [DPU_V7M3_PIPE] |568|  ; [ORIG 16-BIT INS]
    1504                            .dwpsn  file "../Application/Services/nvocop.c",line 570,column 3,is_stmt,isa 1
    1505 0000000c 2000              MOVS      A1, #0                ; [DPU_V7M3_PIPE] |570|  ; [ORIG 16-BIT INS]
    1506                    $C$DW$106       .dwtag  DW_TAG_TI_branch
    1507                            .dwattr $C$DW$106, DW_AT_low_pc(0x00)
    1508                            .dwattr $C$DW$106, DW_AT_name("writeWord")
    1509                            .dwattr $C$DW$106, DW_AT_TI_call
    1510                    
    1511 0000000e FFFEF7FF!         BL        writeWord             ; [DPU_V7M3_PIPE] |570|  ; [KEEP 32-BIT INS]
    1512                            ; CALL OCCURS {writeWord }       ; [] |570| 
    1513                    $C$DW$107       .dwtag  DW_TAG_TI_branch
    1514                            .dwattr $C$DW$107, DW_AT_low_pc(0x00)
    1515                            .dwattr $C$DW$107, DW_AT_TI_return
    1516                    
    1517 00000012 BD08              POP       {A4, PC}              ; [DPU_V7M3_PIPE]  ; [ORIG 16-BIT INS]
    1518                            .dwcfi  cfa_offset, 0
    1519                            .dwcfi  restore_reg, 3
    1520                            ; BRANCH OCCURS                  ; [] 
    1521                            .dwattr $C$DW$104, DW_AT_TI_end_file("../Application/Services/nvocop.c")
    1522                            .dwattr $C$DW$104, DW_AT_TI_end_line(0x23b)
    1523                            .dwattr $C$DW$104, DW_AT_TI_end_column(0x01)
    1524                            .dwendentry
    1525                            .dwendtag $C$DW$104
    1526                    
    1527 00000000                   .sect   ".text:compactPage"
    1528                            .clink
    1529                            .thumbfunc compactPage
    1530 00000000                   .thumb
    1531                    
    1532                    $C$DW$108       .dwtag  DW_TAG_subprogram
    1533                            .dwattr $C$DW$108, DW_AT_name("compactPage")
    1534                            .dwattr $C$DW$108, DW_AT_low_pc(compactPage)
    1535                            .dwattr $C$DW$108, DW_AT_high_pc(0x00)
    1536                            .dwattr $C$DW$108, DW_AT_TI_symbol_name("compactPage")
    1537                            .dwattr $C$DW$108, DW_AT_type(*$C$DW$T$21)
    1538                            .dwattr $C$DW$108, DW_AT_TI_begin_file("../Application/Services/nvocop.c")
    1539                            .dwattr $C$DW$108, DW_AT_TI_begin_line(0x3aa)
    1540                            .dwattr $C$DW$108, DW_AT_TI_begin_column(0x0f)
TI ARM Assembler PC v18.1.1 Wed Apr 25 09:49:35 2018

Tools Copyright (c) 1996-2017 Texas Instruments Incorporated
C:\Users\devops\AppData\Local\Temp\2\{2E9581CE-A7E5-4D75-B068-1A0EA728AB6B} PAGE   29

    1541                            .dwattr $C$DW$108, DW_AT_decl_file("../Application/Services/nvocop.c")
    1542                            .dwattr $C$DW$108, DW_AT_decl_line(0x3aa)
    1543                            .dwattr $C$DW$108, DW_AT_decl_column(0x0f)
    1544                            .dwattr $C$DW$108, DW_AT_TI_max_frame_size(0x38)
    1545                            .dwpsn  file "../Application/Services/nvocop.c",line 939,column 1,is_stmt,address compactPage,
    1546                    
    1547                            .dwfde $C$DW$CIE, compactPage
    1548                    
    1549                    ;*****************************************************************************
    1550                    ;* FUNCTION NAME: compactPage                                                *
    1551                    ;*                                                                           *
    1552                    ;*   Regs Modified     : A1,A2,A3,A4,V1,V2,V3,V4,V5,V6,V7,V8,V9,SP,LR,SR     *
    1553                    ;*   Regs Used         : A1,A2,A3,A4,V1,V2,V3,V4,V5,V6,V7,V8,V9,SP,LR,SR     *
    1554                    ;*   Local Frame Size  : 0 Args + 20 Auto + 36 Save = 56 byte                *
    1555                    ;*****************************************************************************
    1556                    compactPage:
    1557                    ;* --------------------------------------------------------------------------*
    1558                    $C$DW$109       .dwtag  DW_TAG_variable
    1559                            .dwattr $C$DW$109, DW_AT_name("lastId")
    1560                            .dwattr $C$DW$109, DW_AT_TI_symbol_name("lastId")
    1561                            .dwattr $C$DW$109, DW_AT_type(*$C$DW$T$178)
    1562                            .dwattr $C$DW$109, DW_AT_location[DW_OP_breg13 0]
    1563                    
    1564                    $C$DW$110       .dwtag  DW_TAG_variable
    1565                            .dwattr $C$DW$110, DW_AT_name("hdr")
    1566                            .dwattr $C$DW$110, DW_AT_TI_symbol_name("hdr")
    1567                            .dwattr $C$DW$110, DW_AT_type(*$C$DW$T$203)
    1568                            .dwattr $C$DW$110, DW_AT_location[DW_OP_breg13 8]
    1569                    
    1570                    ;* A4    assigned to $O$C16
    1571                    ;* V7    assigned to $O$C17
    1572                    ;* V6    assigned to $O$K38
    1573                    ;* A1    assigned to $O$U62
    1574                    ;* A3    assigned to $O$K14
    1575                    ;* A4    assigned to $O$v7
    1576                    ;* V3    assigned to $O$v6
    1577                    ;* V5    assigned to $O$v5
    1578                    ;* V2    assigned to $O$v4
    1579                    ;* A1    assigned to $O$v3
    1580                    ;* A2    assigned to $O$v2
    1581                    $C$DW$111       .dwtag  DW_TAG_variable
    1582                            .dwattr $C$DW$111, DW_AT_name("state")
    1583                            .dwattr $C$DW$111, DW_AT_TI_symbol_name("state")
    1584                            .dwattr $C$DW$111, DW_AT_type(*$C$DW$T$10)
    1585                            .dwattr $C$DW$111, DW_AT_location[DW_OP_breg13 16]
    1586                    
    1587                    ;* V1    assigned to srcOff
    1588                    $C$DW$112       .dwtag  DW_TAG_variable
    1589                            .dwattr $C$DW$112, DW_AT_name("srcOff")
    1590                            .dwattr $C$DW$112, DW_AT_TI_symbol_name("srcOff")
    1591                            .dwattr $C$DW$112, DW_AT_type(*$C$DW$T$21)
    1592                            .dwattr $C$DW$112, DW_AT_location[DW_OP_reg4]
    1593                    
    1594                    ;* V4    assigned to dstOff
    1595                    $C$DW$113       .dwtag  DW_TAG_variable
TI ARM Assembler PC v18.1.1 Wed Apr 25 09:49:35 2018

Tools Copyright (c) 1996-2017 Texas Instruments Incorporated
C:\Users\devops\AppData\Local\Temp\2\{2E9581CE-A7E5-4D75-B068-1A0EA728AB6B} PAGE   30

    1596                            .dwattr $C$DW$113, DW_AT_name("dstOff")
    1597                            .dwattr $C$DW$113, DW_AT_TI_symbol_name("dstOff")
    1598                            .dwattr $C$DW$113, DW_AT_type(*$C$DW$T$10)
    1599                            .dwattr $C$DW$113, DW_AT_location[DW_OP_reg7]
    1600                    
    1601                            .dwcfi  cfa_offset, 0
    1602 00000000 4FF0E92D          PUSH      {V1, V2, V3, V4, V5, V6, V7, V8, LR} ; [DPU_V7M3_PIPE]  ; [KEEP 32-BIT INS]
    1603                            .dwcfi  cfa_offset, 36
    1604                            .dwcfi  save_reg_to_mem, 14, -4
    1605                            .dwcfi  save_reg_to_mem, 11, -8
    1606                            .dwcfi  save_reg_to_mem, 10, -12
    1607                            .dwcfi  save_reg_to_mem, 9, -16
    1608                            .dwcfi  save_reg_to_mem, 8, -20
    1609                            .dwcfi  save_reg_to_mem, 7, -24
    1610                            .dwcfi  save_reg_to_mem, 6, -28
    1611                            .dwcfi  save_reg_to_mem, 5, -32
    1612                            .dwcfi  save_reg_to_mem, 4, -36
    1613                            .dwpsn  file "../Application/Services/nvocop.c",line 947,column 3,is_stmt,isa 1
    1614 00000004 25FF              MOVS      V2, #255              ; [DPU_V7M3_PIPE] |947|  ; [ORIG 16-BIT INS]
    1615 00000006 0D14F1AD          SUB       SP, SP, #20           ; [DPU_V7M3_PIPE]  ; [KEEP 32-BIT INS]
    1616                            .dwcfi  cfa_offset, 56
    1617 0000000a 5000F88D          STRB      V2, [SP, #0]          ; [DPU_V7M3_PIPE] |947|  ; [KEEP 32-BIT INS]
    1618                            .dwpsn  file "../Application/Services/nvocop.c",line 948,column 3,is_stmt,isa 1
    1619 0000000e 7AFFF64F          MOV       V7, #65535            ; [DPU_V7M3_PIPE] |948|  ; [KEEP 32-BIT INS]
    1620 00000012 A002F8AD          STRH      V7, [SP, #2]          ; [DPU_V7M3_PIPE] |948|  ; [KEEP 32-BIT INS]
    1621                            .dwpsn  file "../Application/Services/nvocop.c",line 949,column 3,is_stmt,isa 1
    1622 00000016 A004F8AD          STRH      V7, [SP, #4]          ; [DPU_V7M3_PIPE] |949|  ; [KEEP 32-BIT INS]
    1623                            .dwpsn  file "../Application/Services/nvocop.c",line 956,column 3,is_stmt,isa 1
    1624                    $C$DW$114       .dwtag  DW_TAG_TI_branch
    1625                            .dwattr $C$DW$114, DW_AT_low_pc(0x00)
    1626                            .dwattr $C$DW$114, DW_AT_name("disableCache")
    1627                            .dwattr $C$DW$114, DW_AT_TI_call
    1628                    
    1629 0000001a FFFEF7FF!         BL        disableCache          ; [DPU_V7M3_PIPE] |956|  ; [KEEP 32-BIT INS]
    1630                            ; CALL OCCURS {disableCache }    ; [] |956| 
    1631 0000001e 9004              STR       A1, [SP, #16]         ; [DPU_V7M3_PIPE] |956|  ; [ORIG 16-BIT INS]
    1632                            .dwpsn  file "../Application/Services/nvocop.c",line 959,column 3,is_stmt,isa 1
    1633 00000020 4849              LDR       A1, $C$CON23          ; [DPU_V7M3_PIPE] |959|  ; [ORIG 16-BIT INS]
    1634 00000022 1C80              ADDS      A1, A1, #2            ; [DPU_V7M3_PIPE]  ; [ORIG 16-BIT INS]
    1635 00000024 8800              LDRH      A1, [A1, #0]          ; [DPU_V7M3_PIPE] |959|  ; [ORIG 16-BIT INS]
    1636                            .dwpsn  file "../Application/Services/nvocop.c",line 953,column 3,is_stmt,isa 1
    1637 00000026 2700              MOVS      V4, #0                ; [DPU_V7M3_PIPE] |953|  ; [ORIG 16-BIT INS]
    1638                            .dwpsn  file "../Application/Services/nvocop.c",line 959,column 3,is_stmt,isa 1
    1639 00000028 1F00              SUBS      A1, A1, #4            ; [DPU_V7M3_PIPE] |959|  ; [ORIG 16-BIT INS]
    1640 0000002a B284              UXTH      V1, A1                ; [DPU_V7M3_PIPE] |959|  ; [ORIG 16-BIT INS]
    1641                            .dwpsn  file "../Application/Services/nvocop.c",line 961,column 10,is_stmt,isa 1
    1642 0000002c 2C08              CMP       V1, #8                ; [DPU_V7M3_PIPE] |961|  ; [ORIG 16-BIT INS]
    1643 0000002e DB6A              BLT       ||$C$L29||            ; [DPU_V7M3_PIPE] |961|  ; [ORIG 16-BIT INS]
    1644                            ; BRANCHCC OCCURS {||$C$L29||}   ; [] |961| 
    1645                    ;* --------------------------------------------------------------------------*
    1646                            .dwpsn  file "../Application/Services/nvocop.c",line 1058,column 7,is_stmt,isa 1
    1647 00000030 4846              LDR       A1, $C$CON24          ; [DPU_V7M3_PIPE] |1058|  ; [ORIG 16-BIT INS]
    1648 00000032 46D0              MOV       V5, V7                ; [DPU_V7M3_PIPE]  ; [ORIG 16-BIT INS]
    1649 00000034 4646              MOV       V3, V5                ; [DPU_V7M3_PIPE]  ; [ORIG 16-BIT INS]
    1650 00000036 46C3              MOV       V8, V5                ; [DPU_V7M3_PIPE]  ; [ORIG 16-BIT INS]
TI ARM Assembler PC v18.1.1 Wed Apr 25 09:49:35 2018

Tools Copyright (c) 1996-2017 Texas Instruments Incorporated
C:\Users\devops\AppData\Local\Temp\2\{2E9581CE-A7E5-4D75-B068-1A0EA728AB6B} PAGE   31

    1651 00000038 0B00              LSRS      A1, A1, #12           ; [DPU_V7M3_PIPE]  ; [ORIG 16-BIT INS]
    1652 0000003a F980FA5F          UXTB      V6, A1                ; [DPU_V7M3_PIPE]  ; [KEEP 32-BIT INS]
    1653                    ;* --------------------------------------------------------------------------*
    1654                    ;*   BEGIN LOOP ||$C$L19||
    1655                    ;*
    1656                    ;*   Loop source line                : 961
    1657                    ;*   Loop closing brace source line  : 1048
    1658                    ;*   Known Minimum Trip Count        : 1
    1659                    ;*   Known Maximum Trip Count        : 4294967295
    1660                    ;*   Known Max Trip Count Factor     : 1
    1661                    ;* --------------------------------------------------------------------------*
    1662 0000003e           ||$C$L19||:    
    1663                            .dwpsn  file "../Application/Services/nvocop.c",line 965,column 5,is_stmt,isa 1
    1664 0000003e 1F21              SUBS      A2, V1, #4            ; [DPU_V7M3_PIPE] |965|  ; [ORIG 16-BIT INS]
    1665 00000040 4648              MOV       A1, V6                ; [DPU_V7M3_PIPE] |965|  ; [ORIG 16-BIT INS]
    1666 00000042 AA02              ADD       A3, SP, #8            ; [DPU_V7M3_PIPE] |965|  ; [ORIG 16-BIT INS]
    1667 00000044 2308              MOVS      A4, #8                ; [DPU_V7M3_PIPE] |965|  ; [ORIG 16-BIT INS]
    1668 00000046 B289              UXTH      A2, A2                ; [DPU_V7M3_PIPE] |965|  ; [ORIG 16-BIT INS]
    1669                    $C$DW$115       .dwtag  DW_TAG_TI_branch
    1670                            .dwattr $C$DW$115, DW_AT_low_pc(0x00)
    1671                            .dwattr $C$DW$115, DW_AT_name("HalFlashRead")
    1672                            .dwattr $C$DW$115, DW_AT_TI_call
    1673                    
    1674 00000048 FFFEF7FF!         BL        HalFlashRead          ; [DPU_V7M3_PIPE] |965|  ; [KEEP 32-BIT INS]
    1675                            ; CALL OCCURS {HalFlashRead }    ; [] |965| 
    1676                            .dwpsn  file "../Application/Services/nvocop.c",line 971,column 5,is_stmt,isa 1
    1677 0000004c 0008F8BD          LDRH      A1, [SP, #8]          ; [DPU_V7M3_PIPE] |971|  ; [KEEP 32-BIT INS]
    1678 00000050 4582              CMP       V7, A1                ; [DPU_V7M3_PIPE] |971|  ; [ORIG 16-BIT INS]
    1679 00000052 D108              BNE       ||$C$L20||            ; [DPU_V7M3_PIPE] |971|  ; [ORIG 16-BIT INS]
    1680                            ; BRANCHCC OCCURS {||$C$L20||}   ; [] |971| 
    1681                    ;* --------------------------------------------------------------------------*
    1682 00000054 100AF8BD          LDRH      A2, [SP, #10]         ; [DPU_V7M3_PIPE] |971|  ; [KEEP 32-BIT INS]
    1683 00000058 458A              CMP       V7, A2                ; [DPU_V7M3_PIPE] |971|  ; [ORIG 16-BIT INS]
    1684 0000005a D106              BNE       ||$C$L21||            ; [DPU_V7M3_PIPE] |971|  ; [ORIG 16-BIT INS]
    1685                            ; BRANCHCC OCCURS {||$C$L21||}   ; [] |971| 
    1686                    ;* --------------------------------------------------------------------------*
    1687 0000005c 200CF8BD          LDRH      A3, [SP, #12]         ; [DPU_V7M3_PIPE] |971|  ; [KEEP 32-BIT INS]
    1688 00000060 4593              CMP       V8, A3                ; [DPU_V7M3_PIPE] |971|  ; [ORIG 16-BIT INS]
    1689 00000062 D102              BNE       ||$C$L21||            ; [DPU_V7M3_PIPE] |971|  ; [ORIG 16-BIT INS]
    1690                            ; BRANCHCC OCCURS {||$C$L21||}   ; [] |971| 
    1691                    ;* --------------------------------------------------------------------------*
    1692 00000064 E007              B         ||$C$L22||            ; [DPU_V7M3_PIPE] |971|  ; [ORIG 16-BIT INS]
    1693                            ; BRANCH OCCURS {||$C$L22||}     ; [] |971| 
    1694                    ;* --------------------------------------------------------------------------*
    1695 00000066           ||$C$L20||:    
    1696 00000066 100AF8BD          LDRH      A2, [SP, #10]         ; [DPU_V7M3_PIPE]  ; [KEEP 32-BIT INS]
    1697                    ;* --------------------------------------------------------------------------*
    1698 0000006a           ||$C$L21||:    
    1699 0000006a 0300EA51          ORRS      A4, A2, A1            ; [DPU_V7M3_PIPE] |971|  ; [KEEP 32-BIT INS]
    1700 0000006e D114              BNE       ||$C$L24||            ; [DPU_V7M3_PIPE] |971|  ; [ORIG 16-BIT INS]
    1701                            ; BRANCHCC OCCURS {||$C$L24||}   ; [] |971| 
    1702                    ;* --------------------------------------------------------------------------*
    1703 00000070 300CF8BD          LDRH      A4, [SP, #12]         ; [DPU_V7M3_PIPE] |971|  ; [KEEP 32-BIT INS]
    1704 00000074 B98B              CBNZ      A4, ||$C$L24||        ; []  ; [ORIG 16-BIT INS]
    1705                            ; BRANCHCC OCCURS {||$C$L24||}   ; [] |971| 
TI ARM Assembler PC v18.1.1 Wed Apr 25 09:49:35 2018

Tools Copyright (c) 1996-2017 Texas Instruments Incorporated
C:\Users\devops\AppData\Local\Temp\2\{2E9581CE-A7E5-4D75-B068-1A0EA728AB6B} PAGE   32

    1706                    ;* --------------------------------------------------------------------------*
    1707 00000076           ||$C$L22||:    
    1708                            .dwpsn  file "../Application/Services/nvocop.c",line 977,column 7,is_stmt,isa 1
    1709 00000076 000EF8BD          LDRH      A1, [SP, #14]         ; [DPU_V7M3_PIPE] |977|  ; [KEEP 32-BIT INS]
    1710 0000007a 0BC1              LSRS      A2, A1, #15           ; [DPU_V7M3_PIPE] |977|  ; [ORIG 16-BIT INS]
    1711 0000007c 03CB              LSLS      A4, A2, #15           ; [DPU_V7M3_PIPE] |977|  ; [ORIG 16-BIT INS]
    1712 0000007e D10A              BNE       ||$C$L23||            ; [DPU_V7M3_PIPE] |977|  ; [ORIG 16-BIT INS]
    1713                            ; BRANCHCC OCCURS {||$C$L23||}   ; [] |977| 
    1714                    ;* --------------------------------------------------------------------------*
    1715                            .dwpsn  file "../Application/Services/nvocop.c",line 983,column 9,is_stmt,isa 1
    1716 00000080 0108F100          ADD       A2, A1, #8            ; [DPU_V7M3_PIPE] |983|  ; [KEEP 32-BIT INS]
    1717 00000084 428C              CMP       V1, A2                ; [DPU_V7M3_PIPE] |983|  ; [ORIG 16-BIT INS]
    1718 00000086 DA39              BGE       ||$C$L27||            ; [DPU_V7M3_PIPE] |983|  ; [ORIG 16-BIT INS]
    1719                            ; BRANCHCC OCCURS {||$C$L27||}   ; [] |983| 
    1720                    ;* --------------------------------------------------------------------------*
    1721                            .dwpsn  file "../Application/Services/nvocop.c",line 1003,column 11,is_stmt,isa 1
    1722                    $C$DW$116       .dwtag  DW_TAG_TI_branch
    1723                            .dwattr $C$DW$116, DW_AT_low_pc(0x00)
    1724                            .dwattr $C$DW$116, DW_AT_name("HAL_APPASRT_callAssrtHanlder")
    1725                            .dwattr $C$DW$116, DW_AT_TI_call
    1726                    
    1727 00000088 FFFEF7FF!         BL        HAL_APPASRT_callAssrtHanlder ; [DPU_V7M3_PIPE] |1003|  ; [KEEP 32-BIT INS]
    1728                            ; CALL OCCURS {HAL_APPASRT_callAssrtHanlder }  ; [] |1003| 
    1729 0000008c 9804              LDR       A1, [SP, #16]         ; [DPU_V7M3_PIPE] |1003|  ; [ORIG 16-BIT INS]
    1730                            .dwpsn  file "../Application/Services/nvocop.c",line 1006,column 11,is_stmt,isa 1
    1731                    $C$DW$117       .dwtag  DW_TAG_TI_branch
    1732                            .dwattr $C$DW$117, DW_AT_low_pc(0x00)
    1733                            .dwattr $C$DW$117, DW_AT_name("enableCache")
    1734                            .dwattr $C$DW$117, DW_AT_TI_call
    1735                    
    1736 0000008e FFFEF7FF!         BL        enableCache           ; [DPU_V7M3_PIPE] |1006|  ; [KEEP 32-BIT INS]
    1737                            ; CALL OCCURS {enableCache }     ; [] |1006| 
    1738                            .dwpsn  file "../Application/Services/nvocop.c",line 1008,column 11,is_stmt,isa 1
    1739 00000092 2000              MOVS      A1, #0                ; [DPU_V7M3_PIPE] |1008|  ; [ORIG 16-BIT INS]
    1740 00000094 E052              B         ||$C$L32||            ; [DPU_V7M3_PIPE] |1008|  ; [ORIG 16-BIT INS]
    1741                            ; BRANCH OCCURS {||$C$L32||}     ; [] |1008| 
    1742                    ;* --------------------------------------------------------------------------*
    1743 00000096           ||$C$L23||:    
    1744                            .dwpsn  file "../Application/Services/nvocop.c",line 979,column 9,is_stmt,isa 1
    1745 00000096 1F24              SUBS      V1, V1, #4            ; [DPU_V7M3_PIPE] |979|  ; [ORIG 16-BIT INS]
    1746                            .dwpsn  file "../Application/Services/nvocop.c",line 980,column 7,is_stmt,isa 1
    1747 00000098 E032              B         ||$C$L28||            ; [DPU_V7M3_PIPE] |980|  ; [ORIG 16-BIT INS]
    1748                            ; BRANCH OCCURS {||$C$L28||}     ; [] |980| 
    1749                    ;* --------------------------------------------------------------------------*
    1750 0000009a           ||$C$L24||:    
    1751                            .dwpsn  file "../Application/Services/nvocop.c",line 1019,column 5,is_stmt,isa 1
    1752 0000009a 0BC2              LSRS      A3, A1, #15           ; [DPU_V7M3_PIPE] |1019|  ; [ORIG 16-BIT INS]
    1753 0000009c 03D3              LSLS      A4, A3, #15           ; [DPU_V7M3_PIPE] |1019|  ; [ORIG 16-BIT INS]
    1754 0000009e D12B              BNE       ||$C$L26||            ; [DPU_V7M3_PIPE] |1019|  ; [ORIG 16-BIT INS]
    1755                            ; BRANCHCC OCCURS {||$C$L26||}   ; [] |1019| 
    1756                    ;* --------------------------------------------------------------------------*
    1757 000000a0 0BC2              LSRS      A3, A1, #15           ; [DPU_V7M3_PIPE] |1019|  ; [ORIG 16-BIT INS]
    1758 000000a2 D329              BCC       ||$C$L26||            ; [DPU_V7M3_PIPE] |1019|  ; [ORIG 16-BIT INS]
    1759                            ; BRANCHCC OCCURS {||$C$L26||}   ; [] |1019| 
    1760                    ;* --------------------------------------------------------------------------*
TI ARM Assembler PC v18.1.1 Wed Apr 25 09:49:35 2018

Tools Copyright (c) 1996-2017 Texas Instruments Incorporated
C:\Users\devops\AppData\Local\Temp\2\{2E9581CE-A7E5-4D75-B068-1A0EA728AB6B} PAGE   33

    1761 000000a4 300CF8BD          LDRH      A4, [SP, #12]         ; [DPU_V7M3_PIPE] |1019|  ; [KEEP 32-BIT INS]
    1762 000000a8 02FFF000          AND       A3, A1, #255          ; [DPU_V7M3_PIPE] |1019|  ; [KEEP 32-BIT INS]
    1763 000000ac 4295              CMP       V2, A3                ; [DPU_V7M3_PIPE] |1019|  ; [ORIG 16-BIT INS]
    1764 000000ae D103              BNE       ||$C$L25||            ; [DPU_V7M3_PIPE] |1019|  ; [ORIG 16-BIT INS]
    1765                            ; BRANCHCC OCCURS {||$C$L25||}   ; [] |1019| 
    1766                    ;* --------------------------------------------------------------------------*
    1767 000000b0 4588              CMP       V5, A2                ; [DPU_V7M3_PIPE] |1019|  ; [ORIG 16-BIT INS]
    1768 000000b2 BF08              IT        EQ                    ; [DPU_V7M3_PIPE]  ; [ORIG 16-BIT INS]
    1769 000000b4 429E              CMPEQ     V3, A4                ; [DPU_V7M3_PIPE] |1019|  ; [ORIG 16-BIT INS]
    1770 000000b6 D01F              BEQ       ||$C$L26||            ; [DPU_V7M3_PIPE] |1019|  ; [ORIG 16-BIT INS]
    1771                            ; BRANCHCC OCCURS {||$C$L26||}   ; [] |1019| 
    1772                    ;* --------------------------------------------------------------------------*
    1773 000000b8           ||$C$L25||:    
    1774                            .dwpsn  file "../Application/Services/nvocop.c",line 1029,column 7,is_stmt,isa 1
    1775 000000b8 B2C5              UXTB      V2, A1                ; [DPU_V7M3_PIPE] |1029|  ; [ORIG 16-BIT INS]
    1776 000000ba 5000F88D          STRB      V2, [SP, #0]          ; [DPU_V7M3_PIPE] |1029|  ; [KEEP 32-BIT INS]
    1777                            .dwpsn  file "../Application/Services/nvocop.c",line 1030,column 7,is_stmt,isa 1
    1778 000000be 4688              MOV       V5, A2                ; [DPU_V7M3_PIPE] |1030|  ; [ORIG 16-BIT INS]
    1779 000000c0 8002F8AD          STRH      V5, [SP, #2]          ; [DPU_V7M3_PIPE] |1030|  ; [KEEP 32-BIT INS]
    1780                            .dwpsn  file "../Application/Services/nvocop.c",line 1031,column 7,is_stmt,isa 1
    1781 000000c4 461E              MOV       V3, A4                ; [DPU_V7M3_PIPE] |1031|  ; [ORIG 16-BIT INS]
    1782 000000c6 6004F8AD          STRH      V3, [SP, #4]          ; [DPU_V7M3_PIPE] |1031|  ; [KEEP 32-BIT INS]
    1783                            .dwpsn  file "../Application/Services/nvocop.c",line 1035,column 7,is_stmt,isa 1
    1784 000000ca 0006E89D          LDMIA     SP, {A2,A3}           ; [DPU_V7M3_PIPE] |1035|  ; [KEEP 32-BIT INS]
    1785 000000ce 4638              MOV       A1, V4                ; [DPU_V7M3_PIPE] |1035|  ; [ORIG 16-BIT INS]
    1786                    $C$DW$118       .dwtag  DW_TAG_TI_branch
    1787                            .dwattr $C$DW$118, DW_AT_low_pc(0x00)
    1788                            .dwattr $C$DW$118, DW_AT_name("findItemInCache")
    1789                            .dwattr $C$DW$118, DW_AT_TI_call
    1790                    
    1791 000000d0 FFFEF7FF!         BL        findItemInCache       ; [DPU_V7M3_PIPE] |1035|  ; [KEEP 32-BIT INS]
    1792                            ; CALL OCCURS {findItemInCache }  ; [] |1035| 
    1793 000000d4 B980              CBNZ      A1, ||$C$L26||        ; []  ; [ORIG 16-BIT INS]
    1794                            ; BRANCHCC OCCURS {||$C$L26||}   ; [] |1035| 
    1795                    ;* --------------------------------------------------------------------------*
    1796                            .dwpsn  file "../Application/Services/nvocop.c",line 1040,column 9,is_stmt,isa 1
    1797 000000d6 300EF8BD          LDRH      A4, [SP, #14]         ; [DPU_V7M3_PIPE] |1040|  ; [KEEP 32-BIT INS]
    1798 000000da 1AE1              SUBS      A2, V1, A4            ; [DPU_V7M3_PIPE] |1040|  ; [ORIG 16-BIT INS]
    1799 000000dc 5288F107          ADD       A3, V4, #285212672    ; [DPU_V7M3_PIPE] |1040|  ; [KEEP 32-BIT INS]
    1800 000000e0 4648              MOV       A1, V6                ; [DPU_V7M3_PIPE] |1040|  ; [ORIG 16-BIT INS]
    1801 000000e2 1F09              SUBS      A2, A2, #4            ; [DPU_V7M3_PIPE] |1040|  ; [ORIG 16-BIT INS]
    1802 000000e4 3308              ADDS      A4, A4, #8            ; [DPU_V7M3_PIPE] |1040|  ; [ORIG 16-BIT INS]
    1803 000000e6 B289              UXTH      A2, A2                ; [DPU_V7M3_PIPE] |1040|  ; [ORIG 16-BIT INS]
    1804 000000e8 B29B              UXTH      A4, A4                ; [DPU_V7M3_PIPE] |1040|  ; [ORIG 16-BIT INS]
    1805                    $C$DW$119       .dwtag  DW_TAG_TI_branch
    1806                            .dwattr $C$DW$119, DW_AT_low_pc(0x00)
    1807                            .dwattr $C$DW$119, DW_AT_name("HalFlashRead")
    1808                            .dwattr $C$DW$119, DW_AT_TI_call
    1809                    
    1810 000000ea FFFEF7FF!         BL        HalFlashRead          ; [DPU_V7M3_PIPE] |1040|  ; [KEEP 32-BIT INS]
    1811                            ; CALL OCCURS {HalFlashRead }    ; [] |1040| 
    1812                            .dwpsn  file "../Application/Services/nvocop.c",line 1044,column 9,is_stmt,isa 1
    1813 000000ee 000EF8BD          LDRH      A1, [SP, #14]         ; [DPU_V7M3_PIPE] |1044|  ; [KEEP 32-BIT INS]
    1814 000000f2 19C0              ADDS      A1, A1, V4            ; [DPU_V7M3_PIPE] |1044|  ; [ORIG 16-BIT INS]
    1815 000000f4 3008              ADDS      A1, A1, #8            ; [DPU_V7M3_PIPE] |1044|  ; [ORIG 16-BIT INS]
TI ARM Assembler PC v18.1.1 Wed Apr 25 09:49:35 2018

Tools Copyright (c) 1996-2017 Texas Instruments Incorporated
C:\Users\devops\AppData\Local\Temp\2\{2E9581CE-A7E5-4D75-B068-1A0EA728AB6B} PAGE   34

    1816 000000f6 B287              UXTH      V4, A1                ; [DPU_V7M3_PIPE] |1044|  ; [ORIG 16-BIT INS]
    1817                    ;* --------------------------------------------------------------------------*
    1818 000000f8           ||$C$L26||:    
    1819                            .dwpsn  file "../Application/Services/nvocop.c",line 1047,column 5,is_stmt,isa 1
    1820 000000f8 000EF8BD          LDRH      A1, [SP, #14]         ; [DPU_V7M3_PIPE] |1047|  ; [KEEP 32-BIT INS]
    1821                    ;* --------------------------------------------------------------------------*
    1822 000000fc           ||$C$L27||:    
    1823 000000fc 1A24              SUBS      V1, V1, A1            ; [DPU_V7M3_PIPE] |1047|  ; [ORIG 16-BIT INS]
    1824 000000fe 3C08              SUBS      V1, V1, #8            ; [DPU_V7M3_PIPE] |1047|  ; [ORIG 16-BIT INS]
    1825                    ;* --------------------------------------------------------------------------*
    1826 00000100           ||$C$L28||:    
    1827 00000100 B2A4              UXTH      V1, V1                ; [DPU_V7M3_PIPE] |1047|  ; [ORIG 16-BIT INS]
    1828                            .dwpsn  file "../Application/Services/nvocop.c",line 961,column 10,is_stmt,isa 1
    1829 00000102 2C08              CMP       V1, #8                ; [DPU_V7M3_PIPE] |961|  ; [ORIG 16-BIT INS]
    1830 00000104 DA9B              BGE       ||$C$L19||            ; [DPU_V7M3_PIPE] |961|  ; [ORIG 16-BIT INS]
    1831                            ; BRANCHCC OCCURS {||$C$L19||}   ; [] |961| 
    1832                    ;* --------------------------------------------------------------------------*
    1833 00000106           ||$C$L29||:    
    1834                            .dwpsn  file "../Application/Services/nvocop.c",line 1051,column 3,is_stmt,isa 1
    1835                    $C$DW$120       .dwtag  DW_TAG_TI_branch
    1836                            .dwattr $C$DW$120, DW_AT_low_pc(0x00)
    1837                            .dwattr $C$DW$120, DW_AT_name("erasePage")
    1838                            .dwattr $C$DW$120, DW_AT_TI_call
    1839                    
    1840 00000106 FFFEF7FF!         BL        erasePage             ; [DPU_V7M3_PIPE] |1051|  ; [KEEP 32-BIT INS]
    1841                            ; CALL OCCURS {erasePage }       ; [] |1051| 
    1842 0000010a B147              CBZ       V4, ||$C$L30||        ; []  ; [ORIG 16-BIT INS]
    1843                            .dwpsn  file "../Application/Services/nvocop.c",line 1054,column 3,is_stmt,isa 1
    1844                            ; BRANCHCC OCCURS {||$C$L30||}   ; [] |1054| 
    1845                    ;* --------------------------------------------------------------------------*
    1846                            .dwpsn  file "../Application/Services/nvocop.c",line 1058,column 7,is_stmt,isa 1
    1847 0000010c 480F              LDR       A1, $C$CON24          ; [DPU_V7M3_PIPE] |1058|  ; [ORIG 16-BIT INS]
    1848 0000010e 5188F04F          MOV       A2, #285212672        ; [DPU_V7M3_PIPE] |1058|  ; [KEEP 32-BIT INS]
    1849 00000112 463A              MOV       A3, V4                ; [DPU_V7M3_PIPE] |1058|  ; [ORIG 16-BIT INS]
    1850 00000114 1D00              ADDS      A1, A1, #4            ; [DPU_V7M3_PIPE]  ; [ORIG 16-BIT INS]
    1851                    $C$DW$121       .dwtag  DW_TAG_TI_branch
    1852                            .dwattr $C$DW$121, DW_AT_low_pc(0x00)
    1853                            .dwattr $C$DW$121, DW_AT_name("HalFlashWrite")
    1854                            .dwattr $C$DW$121, DW_AT_TI_call
    1855                    
    1856 00000116 FFFEF7FF!         BL        HalFlashWrite         ; [DPU_V7M3_PIPE] |1058|  ; [KEEP 32-BIT INS]
    1857                            ; CALL OCCURS {HalFlashWrite }   ; [] |1058| 
    1858                            .dwpsn  file "../Application/Services/nvocop.c",line 1062,column 7,is_stmt,isa 1
    1859                    $C$DW$122       .dwtag  DW_TAG_TI_branch
    1860                            .dwattr $C$DW$122, DW_AT_low_pc(0x00)
    1861                            .dwattr $C$DW$122, DW_AT_name("setActivePage")
    1862                            .dwattr $C$DW$122, DW_AT_TI_call
    1863                    
    1864 0000011a FFFEF7FF!         BL        setActivePage         ; [DPU_V7M3_PIPE] |1062|  ; [KEEP 32-BIT INS]
    1865                            ; CALL OCCURS {setActivePage }   ; [] |1062| 
    1866                    ;* --------------------------------------------------------------------------*
    1867 0000011e           ||$C$L30||:    
    1868 0000011e 9804              LDR       A1, [SP, #16]         ; [DPU_V7M3_PIPE]  ; [ORIG 16-BIT INS]
    1869                            .dwpsn  file "../Application/Services/nvocop.c",line 1071,column 3,is_stmt,isa 1
    1870                    $C$DW$123       .dwtag  DW_TAG_TI_branch
TI ARM Assembler PC v18.1.1 Wed Apr 25 09:49:35 2018

Tools Copyright (c) 1996-2017 Texas Instruments Incorporated
C:\Users\devops\AppData\Local\Temp\2\{2E9581CE-A7E5-4D75-B068-1A0EA728AB6B} PAGE   35

    1871                            .dwattr $C$DW$123, DW_AT_low_pc(0x00)
    1872                            .dwattr $C$DW$123, DW_AT_name("enableCache")
    1873                            .dwattr $C$DW$123, DW_AT_TI_call
    1874                    
    1875 00000120 FFFEF7FF!         BL        enableCache           ; [DPU_V7M3_PIPE] |1071|  ; [KEEP 32-BIT INS]
    1876                            ; CALL OCCURS {enableCache }     ; [] |1071| 
    1877                            .dwpsn  file "../Application/Services/nvocop.c",line 1073,column 3,is_stmt,isa 1
    1878 00000124 4A07              LDR       A3, $C$CON22          ; [DPU_V7M3_PIPE] |1073|  ; [ORIG 16-BIT INS]
    1879 00000126 7850              LDRB      A1, [A3, #1]          ; [DPU_V7M3_PIPE] |1073|  ; [ORIG 16-BIT INS]
    1880 00000128 2800              CMP       A1, #0                ; [DPU_V7M3_PIPE] |1073|  ; [ORIG 16-BIT INS]
    1881 0000012a BF1C              ITT       NE                    ; [DPU_V7M3_PIPE]  ; [ORIG 16-BIT INS]
    1882                            .dwpsn  file "../Application/Services/nvocop.c",line 1081,column 5,is_stmt,isa 1
    1883 0000012c 2000              MOVNE     A1, #0                ; [DPU_V7M3_PIPE] |1081|  ; [ORIG 16-BIT INS]
    1884 0000012e 1C01              MOVNE     A2, A1                ; [DPU_V7M3_PIPE] |1081|  ; [ORIG 16-BIT INS]
    1885                            .dwpsn  file "../Application/Services/nvocop.c",line 1083,column 5,is_stmt,isa 1
    1886 00000130 D103              BNE       ||$C$L31||            ; [DPU_V7M3_PIPE] |1083|  ; [ORIG 16-BIT INS]
    1887                            ; BRANCHCC OCCURS {||$C$L31||}   ; [] |1083| 
    1888                    ;* --------------------------------------------------------------------------*
    1889                            .dwpsn  file "../Application/Services/nvocop.c",line 1077,column 5,is_stmt,isa 1
    1890 00000132 5480F5C7          RSB       V1, V4, #4096         ; [DPU_V7M3_PIPE] |1077|  ; [KEEP 32-BIT INS]
    1891                            .dwpsn  file "../Application/Services/nvocop.c",line 1075,column 5,is_stmt,isa 1
    1892 00000136 1D39              ADDS      A2, V4, #4            ; [DPU_V7M3_PIPE] |1075|  ; [ORIG 16-BIT INS]
    1893                            .dwpsn  file "../Application/Services/nvocop.c",line 1077,column 5,is_stmt,isa 1
    1894 00000138 B2A0              UXTH      A1, V1                ; [DPU_V7M3_PIPE] |1077|  ; [ORIG 16-BIT INS]
    1895                    ;* --------------------------------------------------------------------------*
    1896 0000013a           ||$C$L31||:    
    1897                            .dwpsn  file "../Application/Services/nvocop.c",line 1075,column 5,is_stmt,isa 1
    1898 0000013a 8051              STRH      A2, [A3, #2]          ; [DPU_V7M3_PIPE] |1075|  ; [ORIG 16-BIT INS]
    1899                    ;* --------------------------------------------------------------------------*
    1900 0000013c           ||$C$L32||:    
    1901 0000013c B005              ADD       SP, SP, #20           ; [DPU_V7M3_PIPE]  ; [ORIG 16-BIT INS]
    1902                            .dwcfi  cfa_offset, 36
    1903                    $C$DW$124       .dwtag  DW_TAG_TI_branch
    1904                            .dwattr $C$DW$124, DW_AT_low_pc(0x00)
    1905                            .dwattr $C$DW$124, DW_AT_TI_return
    1906                    
    1907 0000013e 8FF0E8BD          POP       {V1, V2, V3, V4, V5, V6, V7, V8, PC} ; [DPU_V7M3_PIPE]  ; [KEEP 32-BIT INS]
    1908                            .dwcfi  cfa_offset, 0
    1909                            .dwcfi  restore_reg, 11
    1910                            .dwcfi  restore_reg, 10
    1911                            .dwcfi  restore_reg, 9
    1912                            .dwcfi  restore_reg, 8
    1913                            .dwcfi  restore_reg, 7
    1914                            .dwcfi  restore_reg, 6
    1915                            .dwcfi  restore_reg, 5
    1916                            .dwcfi  restore_reg, 4
    1917                            ; BRANCH OCCURS                  ; [] 
    1918                            .dwattr $C$DW$108, DW_AT_TI_end_file("../Application/Services/nvocop.c")
    1919                            .dwattr $C$DW$108, DW_AT_TI_end_line(0x43d)
    1920                            .dwattr $C$DW$108, DW_AT_TI_end_column(0x01)
    1921                            .dwendentry
    1922                            .dwendtag $C$DW$108
    1923                    
    1924                    ;**     Parameter deleted: offset == pgOff;
    1925 00000000                   .sect   ".text:writeItem"
TI ARM Assembler PC v18.1.1 Wed Apr 25 09:49:35 2018

Tools Copyright (c) 1996-2017 Texas Instruments Incorporated
C:\Users\devops\AppData\Local\Temp\2\{2E9581CE-A7E5-4D75-B068-1A0EA728AB6B} PAGE   36

    1926                            .clink
    1927                            .thumbfunc writeItem
    1928 00000000                   .thumb
    1929                    
    1930                    $C$DW$125       .dwtag  DW_TAG_subprogram
    1931                            .dwattr $C$DW$125, DW_AT_name("writeItem")
    1932                            .dwattr $C$DW$125, DW_AT_low_pc(writeItem)
    1933                            .dwattr $C$DW$125, DW_AT_high_pc(0x00)
    1934                            .dwattr $C$DW$125, DW_AT_TI_symbol_name("writeItem")
    1935                            .dwattr $C$DW$125, DW_AT_TI_begin_file("../Application/Services/nvocop.c")
    1936                            .dwattr $C$DW$125, DW_AT_TI_begin_line(0x376)
    1937                            .dwattr $C$DW$125, DW_AT_TI_begin_column(0x0d)
    1938                            .dwattr $C$DW$125, DW_AT_decl_file("../Application/Services/nvocop.c")
    1939                            .dwattr $C$DW$125, DW_AT_decl_line(0x376)
    1940                            .dwattr $C$DW$125, DW_AT_decl_column(0x0d)
    1941                            .dwattr $C$DW$125, DW_AT_TI_max_frame_size(0x28)
    1942                            .dwpsn  file "../Application/Services/nvocop.c",line 888,column 1,is_stmt,address writeItem,is
    1943                    
    1944                            .dwfde $C$DW$CIE, writeItem
    1945                    $C$DW$126       .dwtag  DW_TAG_formal_parameter
    1946                            .dwattr $C$DW$126, DW_AT_name("nv_id")
    1947                            .dwattr $C$DW$126, DW_AT_TI_symbol_name("nv_id")
    1948                            .dwattr $C$DW$126, DW_AT_type(*$C$DW$T$178)
    1949                            .dwattr $C$DW$126, DW_AT_location[DW_OP_breg13 32]
    1950                    
    1951                    $C$DW$127       .dwtag  DW_TAG_formal_parameter
    1952                            .dwattr $C$DW$127, DW_AT_name("alignedLen")
    1953                            .dwattr $C$DW$127, DW_AT_TI_symbol_name("alignedLen")
    1954                            .dwattr $C$DW$127, DW_AT_type(*$C$DW$T$21)
    1955                            .dwattr $C$DW$127, DW_AT_location[DW_OP_reg2]
    1956                    
    1957                    $C$DW$128       .dwtag  DW_TAG_formal_parameter
    1958                            .dwattr $C$DW$128, DW_AT_name("pBuf")
    1959                            .dwattr $C$DW$128, DW_AT_TI_symbol_name("pBuf")
    1960                            .dwattr $C$DW$128, DW_AT_type(*$C$DW$T$219)
    1961                            .dwattr $C$DW$128, DW_AT_location[DW_OP_reg3]
    1962                    
    1963                    
    1964                    ;*****************************************************************************
    1965                    ;* FUNCTION NAME: writeItem                                                  *
    1966                    ;*                                                                           *
    1967                    ;*   Regs Modified     : A1,A2,A3,A4,V1,V2,V3,V4,V5,V9,SP,LR,SR              *
    1968                    ;*   Regs Used         : A1,A2,A3,A4,V1,V2,V3,V4,V5,V9,SP,LR,SR              *
    1969                    ;*   Local Frame Size  : 0 Args + 8 Auto + 24 Save = 32 byte                 *
    1970                    ;*****************************************************************************
    1971                    writeItem:
    1972                    ;* --------------------------------------------------------------------------*
    1973                    $C$DW$129       .dwtag  DW_TAG_variable
    1974                            .dwattr $C$DW$129, DW_AT_name("hdr")
    1975                            .dwattr $C$DW$129, DW_AT_TI_symbol_name("hdr")
    1976                            .dwattr $C$DW$129, DW_AT_type(*$C$DW$T$203)
    1977                            .dwattr $C$DW$129, DW_AT_location[DW_OP_breg13 0]
    1978                    
    1979                    ;* V3    assigned to $O$C1
    1980                    ;* A1    assigned to $O$C2
TI ARM Assembler PC v18.1.1 Wed Apr 25 09:49:35 2018

Tools Copyright (c) 1996-2017 Texas Instruments Incorporated
C:\Users\devops\AppData\Local\Temp\2\{2E9581CE-A7E5-4D75-B068-1A0EA728AB6B} PAGE   37

    1981                    ;* V2    assigned to offset
    1982                    $C$DW$130       .dwtag  DW_TAG_variable
    1983                            .dwattr $C$DW$130, DW_AT_name("offset")
    1984                            .dwattr $C$DW$130, DW_AT_TI_symbol_name("offset")
    1985                            .dwattr $C$DW$130, DW_AT_type(*$C$DW$T$299)
    1986                            .dwattr $C$DW$130, DW_AT_location[DW_OP_reg5]
    1987                    
    1988                    ;* V1    assigned to alignedLen
    1989                    $C$DW$131       .dwtag  DW_TAG_variable
    1990                            .dwattr $C$DW$131, DW_AT_name("alignedLen")
    1991                            .dwattr $C$DW$131, DW_AT_TI_symbol_name("alignedLen")
    1992                            .dwattr $C$DW$131, DW_AT_type(*$C$DW$T$299)
    1993                            .dwattr $C$DW$131, DW_AT_location[DW_OP_reg4]
    1994                    
    1995                    ;* V5    assigned to pBuf
    1996                    $C$DW$132       .dwtag  DW_TAG_variable
    1997                            .dwattr $C$DW$132, DW_AT_name("pBuf")
    1998                            .dwattr $C$DW$132, DW_AT_TI_symbol_name("pBuf")
    1999                            .dwattr $C$DW$132, DW_AT_type(*$C$DW$T$268)
    2000                            .dwattr $C$DW$132, DW_AT_location[DW_OP_reg8]
    2001                    
    2002                            .dwcfi  cfa_offset, 0
    2003 00000000 B403              PUSH      {A1, A2}              ; [DPU_V7M3_PIPE]  ; [ORIG 16-BIT INS]
    2004                            .dwcfi  cfa_offset, 8
    2005                            .dwcfi  save_reg_to_mem, 1, -4
    2006                            .dwcfi  save_reg_to_mem, 0, -8
    2007 00000002 4827              LDR       A1, $C$CON26          ; [DPU_V7M3_PIPE] |888|  ; [ORIG 16-BIT INS]
    2008 00000004 41F0E92D          PUSH      {V1, V2, V3, V4, V5, LR} ; [DPU_V7M3_PIPE]  ; [KEEP 32-BIT INS]
    2009                            .dwcfi  cfa_offset, 32
    2010                            .dwcfi  save_reg_to_mem, 14, -12
    2011                            .dwcfi  save_reg_to_mem, 8, -16
    2012                            .dwcfi  save_reg_to_mem, 7, -20
    2013                            .dwcfi  save_reg_to_mem, 6, -24
    2014                            .dwcfi  save_reg_to_mem, 5, -28
    2015                            .dwcfi  save_reg_to_mem, 4, -32
    2016 00000008 1C80              ADDS      A1, A1, #2            ; [DPU_V7M3_PIPE]  ; [ORIG 16-BIT INS]
    2017 0000000a 8805              LDRH      V2, [A1, #0]          ; [DPU_V7M3_PIPE] |888|  ; [ORIG 16-BIT INS]
    2018 0000000c AF06              ADD       V4, SP, #24           ; [DPU_V7M3_PIPE]  ; [ORIG 16-BIT INS]
    2019 0000000e 4614              MOV       V1, A3                ; [DPU_V7M3_PIPE] |888|  ; [ORIG 16-BIT INS]
    2020 00000010 0D08F1AD          SUB       SP, SP, #8            ; [DPU_V7M3_PIPE]  ; [KEEP 32-BIT INS]
    2021                            .dwcfi  cfa_offset, 40
    2022                            .dwpsn  file "../Application/Services/nvocop.c",line 894,column 3,is_stmt,isa 1
    2023 00000014 70FFF64F          MOV       A1, #65535            ; [DPU_V7M3_PIPE] |894|  ; [KEEP 32-BIT INS]
    2024 00000018 0000F8AD          STRH      A1, [SP, #0]          ; [DPU_V7M3_PIPE] |894|  ; [KEEP 32-BIT INS]
    2025                            .dwpsn  file "../Application/Services/nvocop.c",line 888,column 1,is_stmt,isa 1
    2026 0000001c 4698              MOV       V5, A4                ; [DPU_V7M3_PIPE] |888|  ; [ORIG 16-BIT INS]
    2027                            .dwpsn  file "../Application/Services/nvocop.c",line 895,column 3,is_stmt,isa 1
    2028 0000001e 0002F8AD          STRH      A1, [SP, #2]          ; [DPU_V7M3_PIPE] |895|  ; [KEEP 32-BIT INS]
    2029                            .dwpsn  file "../Application/Services/nvocop.c",line 901,column 3,is_stmt,isa 1
    2030 00000022 2202              MOVS      A3, #2                ; [DPU_V7M3_PIPE] |901|  ; [ORIG 16-BIT INS]
    2031                            .dwpsn  file "../Application/Services/nvocop.c",line 896,column 3,is_stmt,isa 1
    2032 00000024 0004F8AD          STRH      A1, [SP, #4]          ; [DPU_V7M3_PIPE] |896|  ; [KEEP 32-BIT INS]
    2033                            .dwpsn  file "../Application/Services/nvocop.c",line 901,column 3,is_stmt,isa 1
    2034 00000028 4669              MOV       A2, SP                ; [DPU_V7M3_PIPE] |901|  ; [ORIG 16-BIT INS]
    2035                            .dwpsn  file "../Application/Services/nvocop.c",line 898,column 3,is_stmt,isa 1
TI ARM Assembler PC v18.1.1 Wed Apr 25 09:49:35 2018

Tools Copyright (c) 1996-2017 Texas Instruments Incorporated
C:\Users\devops\AppData\Local\Temp\2\{2E9581CE-A7E5-4D75-B068-1A0EA728AB6B} PAGE   38

    2036 0000002a 4000F444          ORR       A1, V1, #32768        ; [DPU_V7M3_PIPE] |898|  ; [KEEP 32-BIT INS]
    2037 0000002e 0006F8AD          STRH      A1, [SP, #6]          ; [DPU_V7M3_PIPE] |898|  ; [KEEP 32-BIT INS]
    2038                            .dwpsn  file "../Application/Services/nvocop.c",line 901,column 3,is_stmt,isa 1
    2039 00000032 1928              ADDS      A1, V2, V1            ; [DPU_V7M3_PIPE] |901|  ; [ORIG 16-BIT INS]
    2040 00000034 B286              UXTH      V3, A1                ; [DPU_V7M3_PIPE] |901|  ; [ORIG 16-BIT INS]
    2041 00000036 4630              MOV       A1, V3                ; [DPU_V7M3_PIPE] |901|  ; [ORIG 16-BIT INS]
    2042                    $C$DW$133       .dwtag  DW_TAG_TI_branch
    2043                            .dwattr $C$DW$133, DW_AT_low_pc(0x00)
    2044                            .dwattr $C$DW$133, DW_AT_name("writeWord")
    2045                            .dwattr $C$DW$133, DW_AT_TI_call
    2046                    
    2047 00000038 FFFEF7FF!         BL        writeWord             ; [DPU_V7M3_PIPE] |901|  ; [KEEP 32-BIT INS]
    2048                            ; CALL OCCURS {writeWord }       ; [] |901| 
    2049                            .dwpsn  file "../Application/Services/nvocop.c",line 904,column 3,is_stmt,isa 1
    2050 0000003c 0006F8BD          LDRH      A1, [SP, #6]          ; [DPU_V7M3_PIPE] |904|  ; [KEEP 32-BIT INS]
    2051                            .dwpsn  file "../Application/Services/nvocop.c",line 905,column 3,is_stmt,isa 1
    2052 00000040 2202              MOVS      A3, #2                ; [DPU_V7M3_PIPE] |905|  ; [ORIG 16-BIT INS]
    2053 00000042 4669              MOV       A2, SP                ; [DPU_V7M3_PIPE] |905|  ; [ORIG 16-BIT INS]
    2054                            .dwpsn  file "../Application/Services/nvocop.c",line 904,column 3,is_stmt,isa 1
    2055 00000044 30DFF36F          BFC       A1, #15, #17          ; [DPU_V7M3_PIPE] |904|  ; [KEEP 32-BIT INS]
    2056 00000048 0006F8AD          STRH      A1, [SP, #6]          ; [DPU_V7M3_PIPE] |904|  ; [KEEP 32-BIT INS]
    2057                            .dwpsn  file "../Application/Services/nvocop.c",line 905,column 3,is_stmt,isa 1
    2058 0000004c 4630              MOV       A1, V3                ; [DPU_V7M3_PIPE] |905|  ; [ORIG 16-BIT INS]
    2059                    $C$DW$134       .dwtag  DW_TAG_TI_branch
    2060                            .dwattr $C$DW$134, DW_AT_low_pc(0x00)
    2061                            .dwattr $C$DW$134, DW_AT_name("writeWord")
    2062                            .dwattr $C$DW$134, DW_AT_TI_call
    2063                    
    2064 0000004e FFFEF7FF!         BL        writeWord             ; [DPU_V7M3_PIPE] |905|  ; [KEEP 32-BIT INS]
    2065                            ; CALL OCCURS {writeWord }       ; [] |905| 
    2066                            .dwpsn  file "../Application/Services/nvocop.c",line 908,column 3,is_stmt,isa 1
    2067 00000052 10A1              ASRS      A2, V1, #2            ; [DPU_V7M3_PIPE] |908|  ; [ORIG 16-BIT INS]
    2068 00000054 4628              MOV       A1, V2                ; [DPU_V7M3_PIPE] |908|  ; [ORIG 16-BIT INS]
    2069 00000056 B2CA              UXTB      A3, A2                ; [DPU_V7M3_PIPE] |908|  ; [ORIG 16-BIT INS]
    2070 00000058 4641              MOV       A2, V5                ; [DPU_V7M3_PIPE] |908|  ; [ORIG 16-BIT INS]
    2071                    $C$DW$135       .dwtag  DW_TAG_TI_branch
    2072                            .dwattr $C$DW$135, DW_AT_low_pc(0x00)
    2073                            .dwattr $C$DW$135, DW_AT_name("writeWord")
    2074                            .dwattr $C$DW$135, DW_AT_TI_call
    2075                    
    2076 0000005a FFFEF7FF!         BL        writeWord             ; [DPU_V7M3_PIPE] |908|  ; [KEEP 32-BIT INS]
    2077                            ; CALL OCCURS {writeWord }       ; [] |908| 
    2078                            .dwpsn  file "../Application/Services/nvocop.c",line 914,column 3,is_stmt,isa 1
    2079 0000005e 7838              LDRB      A1, [V4, #0]          ; [DPU_V7M3_PIPE] |914|  ; [ORIG 16-BIT INS]
    2080 00000060 4040F440          ORR       A1, A1, #49152        ; [DPU_V7M3_PIPE] |914|  ; [KEEP 32-BIT INS]
    2081 00000064 0000F8AD          STRH      A1, [SP, #0]          ; [DPU_V7M3_PIPE] |914|  ; [KEEP 32-BIT INS]
    2082                            .dwpsn  file "../Application/Services/nvocop.c",line 915,column 3,is_stmt,isa 1
    2083 00000068 8878              LDRH      A1, [V4, #2]          ; [DPU_V7M3_PIPE] |915|  ; [ORIG 16-BIT INS]
    2084 0000006a 0002F8AD          STRH      A1, [SP, #2]          ; [DPU_V7M3_PIPE] |915|  ; [KEEP 32-BIT INS]
    2085                            .dwpsn  file "../Application/Services/nvocop.c",line 916,column 3,is_stmt,isa 1
    2086 0000006e 88B8              LDRH      A1, [V4, #4]          ; [DPU_V7M3_PIPE] |916|  ; [ORIG 16-BIT INS]
    2087                            .dwpsn  file "../Application/Services/nvocop.c",line 918,column 3,is_stmt,isa 1
    2088 00000070 2202              MOVS      A3, #2                ; [DPU_V7M3_PIPE] |918|  ; [ORIG 16-BIT INS]
    2089 00000072 4669              MOV       A2, SP                ; [DPU_V7M3_PIPE] |918|  ; [ORIG 16-BIT INS]
    2090                            .dwpsn  file "../Application/Services/nvocop.c",line 916,column 3,is_stmt,isa 1
TI ARM Assembler PC v18.1.1 Wed Apr 25 09:49:35 2018

Tools Copyright (c) 1996-2017 Texas Instruments Incorporated
C:\Users\devops\AppData\Local\Temp\2\{2E9581CE-A7E5-4D75-B068-1A0EA728AB6B} PAGE   39

    2091 00000074 0004F8AD          STRH      A1, [SP, #4]          ; [DPU_V7M3_PIPE] |916|  ; [KEEP 32-BIT INS]
    2092                            .dwpsn  file "../Application/Services/nvocop.c",line 918,column 3,is_stmt,isa 1
    2093 00000078 4630              MOV       A1, V3                ; [DPU_V7M3_PIPE] |918|  ; [ORIG 16-BIT INS]
    2094                    $C$DW$136       .dwtag  DW_TAG_TI_branch
    2095                            .dwattr $C$DW$136, DW_AT_low_pc(0x00)
    2096                            .dwattr $C$DW$136, DW_AT_name("writeWord")
    2097                            .dwattr $C$DW$136, DW_AT_TI_call
    2098                    
    2099 0000007a FFFEF7FF!         BL        writeWord             ; [DPU_V7M3_PIPE] |918|  ; [KEEP 32-BIT INS]
    2100                            ; CALL OCCURS {writeWord }       ; [] |918| 
    2101                            .dwpsn  file "../Application/Services/nvocop.c",line 924,column 3,is_stmt,isa 1
    2102 0000007e 0000F8BD          LDRH      A1, [SP, #0]          ; [DPU_V7M3_PIPE] |924|  ; [KEEP 32-BIT INS]
    2103                            .dwpsn  file "../Application/Services/nvocop.c",line 926,column 3,is_stmt,isa 1
    2104 00000082 2202              MOVS      A3, #2                ; [DPU_V7M3_PIPE] |926|  ; [ORIG 16-BIT INS]
    2105 00000084 4669              MOV       A2, SP                ; [DPU_V7M3_PIPE] |926|  ; [ORIG 16-BIT INS]
    2106                            .dwpsn  file "../Application/Services/nvocop.c",line 924,column 3,is_stmt,isa 1
    2107 00000086 30DFF36F          BFC       A1, #15, #17          ; [DPU_V7M3_PIPE] |924|  ; [KEEP 32-BIT INS]
    2108 0000008a 0000F8AD          STRH      A1, [SP, #0]          ; [DPU_V7M3_PIPE] |924|  ; [KEEP 32-BIT INS]
    2109                            .dwpsn  file "../Application/Services/nvocop.c",line 926,column 3,is_stmt,isa 1
    2110 0000008e 4630              MOV       A1, V3                ; [DPU_V7M3_PIPE] |926|  ; [ORIG 16-BIT INS]
    2111                    $C$DW$137       .dwtag  DW_TAG_TI_branch
    2112                            .dwattr $C$DW$137, DW_AT_low_pc(0x00)
    2113                            .dwattr $C$DW$137, DW_AT_name("writeWord")
    2114                            .dwattr $C$DW$137, DW_AT_TI_call
    2115                    
    2116 00000090 FFFEF7FF!         BL        writeWord             ; [DPU_V7M3_PIPE] |926|  ; [KEEP 32-BIT INS]
    2117                            ; CALL OCCURS {writeWord }       ; [] |926| 
    2118 00000094 B002              ADD       SP, SP, #8            ; [DPU_V7M3_PIPE]  ; [ORIG 16-BIT INS]
    2119                            .dwcfi  cfa_offset, 32
    2120 00000096 41F0E8BD          POP       {V1, V2, V3, V4, V5, LR} ; [DPU_V7M3_PIPE]  ; [KEEP 32-BIT INS]
    2121                            .dwcfi  cfa_offset, 8
    2122                            .dwcfi  restore_reg, 14
    2123                            .dwcfi  restore_reg, 8
    2124                            .dwcfi  restore_reg, 7
    2125                            .dwcfi  restore_reg, 6
    2126                            .dwcfi  restore_reg, 5
    2127                            .dwcfi  restore_reg, 4
    2128 0000009a B002              ADD       SP, SP, #8            ; [DPU_V7M3_PIPE]  ; [ORIG 16-BIT INS]
    2129                            .dwcfi  cfa_offset, 0
    2130                    $C$DW$138       .dwtag  DW_TAG_TI_branch
    2131                            .dwattr $C$DW$138, DW_AT_low_pc(0x00)
    2132                            .dwattr $C$DW$138, DW_AT_TI_return
    2133                    
    2134 0000009c 4770              BX        LR                    ; [DPU_V7M3_PIPE]  ; [ORIG 16-BIT INS]
    2135                            ; BRANCH OCCURS                  ; [] 
    2136                            .dwattr $C$DW$125, DW_AT_TI_end_file("../Application/Services/nvocop.c")
    2137                            .dwattr $C$DW$125, DW_AT_TI_end_line(0x39f)
    2138                            .dwattr $C$DW$125, DW_AT_TI_end_column(0x01)
    2139                            .dwendentry
    2140                            .dwendtag $C$DW$125
    2141                    
    2142 00000000                   .sect   ".text:NVOCOP_writeItem"
    2143                            .clink
    2144                            .thumbfunc NVOCOP_writeItem
    2145 00000000                   .thumb
TI ARM Assembler PC v18.1.1 Wed Apr 25 09:49:35 2018

Tools Copyright (c) 1996-2017 Texas Instruments Incorporated
C:\Users\devops\AppData\Local\Temp\2\{2E9581CE-A7E5-4D75-B068-1A0EA728AB6B} PAGE   40

    2146                            .global NVOCOP_writeItem
    2147                    
    2148                    $C$DW$139       .dwtag  DW_TAG_subprogram
    2149                            .dwattr $C$DW$139, DW_AT_name("NVOCOP_writeItem")
    2150                            .dwattr $C$DW$139, DW_AT_low_pc(NVOCOP_writeItem)
    2151                            .dwattr $C$DW$139, DW_AT_high_pc(0x00)
    2152                            .dwattr $C$DW$139, DW_AT_TI_symbol_name("NVOCOP_writeItem")
    2153                            .dwattr $C$DW$139, DW_AT_external
    2154                            .dwattr $C$DW$139, DW_AT_type(*$C$DW$T$218)
    2155                            .dwattr $C$DW$139, DW_AT_TI_begin_file("../Application/Services/nvocop.c")
    2156                            .dwattr $C$DW$139, DW_AT_TI_begin_line(0x1a0)
    2157                            .dwattr $C$DW$139, DW_AT_TI_begin_column(0x07)
    2158                            .dwattr $C$DW$139, DW_AT_decl_file("../Application/Services/nvocop.c")
    2159                            .dwattr $C$DW$139, DW_AT_decl_line(0x1a0)
    2160                            .dwattr $C$DW$139, DW_AT_decl_column(0x07)
    2161                            .dwattr $C$DW$139, DW_AT_TI_max_frame_size(0x40)
    2162                            .dwpsn  file "../Application/Services/nvocop.c",line 417,column 1,is_stmt,address NVOCOP_write
    2163                    
    2164                            .dwfde $C$DW$CIE, NVOCOP_writeItem
    2165                    $C$DW$140       .dwtag  DW_TAG_formal_parameter
    2166                            .dwattr $C$DW$140, DW_AT_name("nv_id")
    2167                            .dwattr $C$DW$140, DW_AT_TI_symbol_name("nv_id")
    2168                            .dwattr $C$DW$140, DW_AT_type(*$C$DW$T$178)
    2169                            .dwattr $C$DW$140, DW_AT_location[DW_OP_breg13 56]
    2170                    
    2171                    $C$DW$141       .dwtag  DW_TAG_formal_parameter
    2172                            .dwattr $C$DW$141, DW_AT_name("len")
    2173                            .dwattr $C$DW$141, DW_AT_TI_symbol_name("len")
    2174                            .dwattr $C$DW$141, DW_AT_type(*$C$DW$T$21)
    2175                            .dwattr $C$DW$141, DW_AT_location[DW_OP_reg2]
    2176                    
    2177                    $C$DW$142       .dwtag  DW_TAG_formal_parameter
    2178                            .dwattr $C$DW$142, DW_AT_name("pBuf")
    2179                            .dwattr $C$DW$142, DW_AT_TI_symbol_name("pBuf")
    2180                            .dwattr $C$DW$142, DW_AT_type(*$C$DW$T$3)
    2181                            .dwattr $C$DW$142, DW_AT_location[DW_OP_reg3]
    2182                    
    2183                    
    2184                    ;*****************************************************************************
    2185                    ;* FUNCTION NAME: NVOCOP_writeItem                                           *
    2186                    ;*                                                                           *
    2187                    ;*   Regs Modified     : A1,A2,A3,A4,V1,V2,V3,V4,V5,V6,V7,V8,V9,SP,LR,SR     *
    2188                    ;*   Regs Used         : A1,A2,A3,A4,V1,V2,V3,V4,V5,V6,V7,V8,V9,SP,LR,SR     *
    2189                    ;*   Local Frame Size  : 0 Args + 16 Auto + 36 Save = 52 byte                *
    2190                    ;*****************************************************************************
    2191                    NVOCOP_writeItem:
    2192                    ;* --------------------------------------------------------------------------*
    2193                    $C$DW$143       .dwtag  DW_TAG_variable
    2194                            .dwattr $C$DW$143, DW_AT_name("tmp")
    2195                            .dwattr $C$DW$143, DW_AT_TI_symbol_name("tmp")
    2196                            .dwattr $C$DW$143, DW_AT_type(*$C$DW$T$218)
    2197                            .dwattr $C$DW$143, DW_AT_location[DW_OP_breg13 0]
    2198                    
    2199                    ;* A1    assigned to $O$C16
    2200                    ;* V1    assigned to $O$C17
TI ARM Assembler PC v18.1.1 Wed Apr 25 09:49:35 2018

Tools Copyright (c) 1996-2017 Texas Instruments Incorporated
C:\Users\devops\AppData\Local\Temp\2\{2E9581CE-A7E5-4D75-B068-1A0EA728AB6B} PAGE   41

    2201                    ;* V6    assigned to $O$K25
    2202                    ;* V5    assigned to $O$K8
    2203                    ;* V1    assigned to $O$K39
    2204                    ;* A2    assigned to $O$v2
    2205                    ;* V2    assigned to len
    2206                    $C$DW$144       .dwtag  DW_TAG_variable
    2207                            .dwattr $C$DW$144, DW_AT_name("len")
    2208                            .dwattr $C$DW$144, DW_AT_TI_symbol_name("len")
    2209                            .dwattr $C$DW$144, DW_AT_type(*$C$DW$T$299)
    2210                            .dwattr $C$DW$144, DW_AT_location[DW_OP_reg5]
    2211                    
    2212                    ;* V8    assigned to pBuf
    2213                    $C$DW$145       .dwtag  DW_TAG_variable
    2214                            .dwattr $C$DW$145, DW_AT_name("pBuf")
    2215                            .dwattr $C$DW$145, DW_AT_TI_symbol_name("pBuf")
    2216                            .dwattr $C$DW$145, DW_AT_type(*$C$DW$T$214)
    2217                            .dwattr $C$DW$145, DW_AT_location[DW_OP_reg11]
    2218                    
    2219                    ;* V1    assigned to alignedLen
    2220                    $C$DW$146       .dwtag  DW_TAG_variable
    2221                            .dwattr $C$DW$146, DW_AT_name("alignedLen")
    2222                            .dwattr $C$DW$146, DW_AT_TI_symbol_name("alignedLen")
    2223                            .dwattr $C$DW$146, DW_AT_type(*$C$DW$T$10)
    2224                            .dwattr $C$DW$146, DW_AT_location[DW_OP_reg4]
    2225                    
    2226                    ;* V3    assigned to offset
    2227                    $C$DW$147       .dwtag  DW_TAG_variable
    2228                            .dwattr $C$DW$147, DW_AT_name("offset")
    2229                            .dwattr $C$DW$147, DW_AT_TI_symbol_name("offset")
    2230                            .dwattr $C$DW$147, DW_AT_type(*$C$DW$T$21)
    2231                            .dwattr $C$DW$147, DW_AT_location[DW_OP_reg6]
    2232                    
    2233                    ;* V1    assigned to i
    2234                    $C$DW$148       .dwtag  DW_TAG_variable
    2235                            .dwattr $C$DW$148, DW_AT_name("i")
    2236                            .dwattr $C$DW$148, DW_AT_TI_symbol_name("i")
    2237                            .dwattr $C$DW$148, DW_AT_type(*$C$DW$T$227)
    2238                            .dwattr $C$DW$148, DW_AT_location[DW_OP_reg4]
    2239                    
    2240                            .dwcfi  cfa_offset, 0
    2241 00000000 B403              PUSH      {A1, A2}              ; [DPU_V7M3_PIPE]  ; [ORIG 16-BIT INS]
    2242                            .dwcfi  cfa_offset, 8
    2243                            .dwcfi  save_reg_to_mem, 1, -4
    2244                            .dwcfi  save_reg_to_mem, 0, -8
    2245 00000002 4FF0E92D          PUSH      {V1, V2, V3, V4, V5, V6, V7, V8, LR} ; [DPU_V7M3_PIPE]  ; [KEEP 32-BIT INS]
    2246                            .dwcfi  cfa_offset, 44
    2247                            .dwcfi  save_reg_to_mem, 14, -12
    2248                            .dwcfi  save_reg_to_mem, 11, -16
    2249                            .dwcfi  save_reg_to_mem, 10, -20
    2250                            .dwcfi  save_reg_to_mem, 9, -24
    2251                            .dwcfi  save_reg_to_mem, 8, -28
    2252                            .dwcfi  save_reg_to_mem, 7, -32
    2253                            .dwcfi  save_reg_to_mem, 6, -36
    2254                            .dwcfi  save_reg_to_mem, 5, -40
    2255                            .dwcfi  save_reg_to_mem, 4, -44
TI ARM Assembler PC v18.1.1 Wed Apr 25 09:49:35 2018

Tools Copyright (c) 1996-2017 Texas Instruments Incorporated
C:\Users\devops\AppData\Local\Temp\2\{2E9581CE-A7E5-4D75-B068-1A0EA728AB6B} PAGE   42

    2256                            .dwpsn  file "../Application/Services/nvocop.c",line 425,column 3,is_stmt,isa 1
    2257 00000006 4C33              LDR       V1, $C$CON29          ; [DPU_V7M3_PIPE] |425|  ; [ORIG 16-BIT INS]
    2258 00000008 0A00F04F          MOV       V7, #0                ; [DPU_V7M3_PIPE] |425|  ; [KEEP 32-BIT INS]
    2259 0000000c AF09              ADD       V4, SP, #36           ; [DPU_V7M3_PIPE]  ; [ORIG 16-BIT INS]
    2260 0000000e A001F884          STRB      V7, [V1, #1]          ; [DPU_V7M3_PIPE] |425|  ; [KEEP 32-BIT INS]
    2261                            .dwpsn  file "../Application/Services/nvocop.c",line 431,column 19,is_stmt,isa 1
    2262 00000012 6839              LDR       A2, [V4, #0]          ; [DPU_V7M3_PIPE] |431|  ; [ORIG 16-BIT INS]
    2263 00000014 0D14F1AD          SUB       SP, SP, #20           ; [DPU_V7M3_PIPE]  ; [KEEP 32-BIT INS]
    2264                            .dwcfi  cfa_offset, 64
    2265 00000018 A802              ADD       A1, SP, #8            ; [DPU_V7M3_PIPE] |431|  ; [ORIG 16-BIT INS]
    2266 0000001a 6001              STR       A2, [A1, #0]          ; [DPU_V7M3_PIPE] |431|  ; [ORIG 16-BIT INS]
    2267 0000001c 88B9              LDRH      A2, [V4, #4]          ; [DPU_V7M3_PIPE] |431|  ; [ORIG 16-BIT INS]
    2268 0000001e 8081              STRH      A2, [A1, #4]          ; [DPU_V7M3_PIPE] |431|  ; [ORIG 16-BIT INS]
    2269 00000020 A802              ADD       A1, SP, #8            ; [DPU_V7M3_PIPE] |431|  ; [ORIG 16-BIT INS]
    2270 00000022 C803              LDMIA     A1, {A1,A2}           ; [DPU_V7M3_PIPE] |431|  ; [ORIG 16-BIT INS]
    2271                            .dwpsn  file "../Application/Services/nvocop.c",line 417,column 1,is_stmt,isa 1
    2272 00000024 469B              MOV       V8, A4                ; [DPU_V7M3_PIPE] |417|  ; [ORIG 16-BIT INS]
    2273 00000026 4615              MOV       V2, A3                ; [DPU_V7M3_PIPE] |417|  ; [ORIG 16-BIT INS]
    2274                            .dwpsn  file "../Application/Services/nvocop.c",line 431,column 19,is_stmt,isa 1
    2275                    $C$DW$149       .dwtag  DW_TAG_TI_branch
    2276                            .dwattr $C$DW$149, DW_AT_low_pc(0x00)
    2277                            .dwattr $C$DW$149, DW_AT_name("findItem")
    2278                            .dwattr $C$DW$149, DW_AT_TI_call
    2279                    
    2280 00000028 FFFEF7FF!         BL        findItem              ; [DPU_V7M3_PIPE] |431|  ; [KEEP 32-BIT INS]
    2281                            ; CALL OCCURS {findItem }        ; [] |431| 
    2282                            .dwpsn  file "../Application/Services/nvocop.c",line 425,column 3,is_stmt,isa 1
    2283 0000002c 46A0              MOV       V5, V1                ; [DPU_V7M3_PIPE] |425|  ; [ORIG 16-BIT INS]
    2284                            .dwpsn  file "../Application/Services/nvocop.c",line 434,column 5,is_stmt,isa 1
    2285 0000002e 1C06              MOVS      V3, A1                ; [DPU_V7M3_PIPE] |434|  ; [ORIG 16-BIT INS]
    2286 00000030 D019              BEQ       ||$C$L35||            ; [DPU_V7M3_PIPE] |434|  ; [ORIG 16-BIT INS]
    2287                            ; BRANCHCC OCCURS {||$C$L35||}   ; [] |434| 
    2288                    ;* --------------------------------------------------------------------------*
    2289 00000032 4654              MOV       V1, V7                ; [DPU_V7M3_PIPE]  ; [ORIG 16-BIT INS]
    2290 00000034 B1AD              CBZ       V2, ||$C$L34||        ; []  ; [ORIG 16-BIT INS]
    2291                            .dwpsn  file "../Application/Services/nvocop.c",line 439,column 19,is_stmt,isa 1
    2292                            ; BRANCHCC OCCURS {||$C$L34||}   ; [] |439| 
    2293                    ;* --------------------------------------------------------------------------*
    2294 00000036 4826              LDR       A1, $C$CON28          ; [DPU_V7M3_PIPE]  ; [ORIG 16-BIT INS]
    2295 00000038 0B00              LSRS      A1, A1, #12           ; [DPU_V7M3_PIPE]  ; [ORIG 16-BIT INS]
    2296 0000003a F980FA5F          UXTB      V6, A1                ; [DPU_V7M3_PIPE]  ; [KEEP 32-BIT INS]
    2297                    ;* --------------------------------------------------------------------------*
    2298                    ;*   BEGIN LOOP ||$C$L33||
    2299                    ;*
    2300                    ;*   Loop source line                : 439
    2301                    ;*   Loop closing brace source line  : 447
    2302                    ;*   Known Minimum Trip Count        : 1
    2303                    ;*   Known Maximum Trip Count        : 256
    2304                    ;*   Known Max Trip Count Factor     : 1
    2305                    ;* --------------------------------------------------------------------------*
    2306 0000003e           ||$C$L33||:    
    2307                            .dwpsn  file "../Application/Services/nvocop.c",line 441,column 9,is_stmt,isa 1
    2308 0000003e 4648              MOV       A1, V6                ; [DPU_V7M3_PIPE] |441|  ; [ORIG 16-BIT INS]
    2309 00000040 4631              MOV       A2, V3                ; [DPU_V7M3_PIPE] |441|  ; [ORIG 16-BIT INS]
    2310 00000042 466A              MOV       A3, SP                ; [DPU_V7M3_PIPE] |441|  ; [ORIG 16-BIT INS]
TI ARM Assembler PC v18.1.1 Wed Apr 25 09:49:35 2018

Tools Copyright (c) 1996-2017 Texas Instruments Incorporated
C:\Users\devops\AppData\Local\Temp\2\{2E9581CE-A7E5-4D75-B068-1A0EA728AB6B} PAGE   43

    2311 00000044 2301              MOVS      A4, #1                ; [DPU_V7M3_PIPE] |441|  ; [ORIG 16-BIT INS]
    2312                    $C$DW$150       .dwtag  DW_TAG_TI_branch
    2313                            .dwattr $C$DW$150, DW_AT_low_pc(0x00)
    2314                            .dwattr $C$DW$150, DW_AT_name("HalFlashRead")
    2315                            .dwattr $C$DW$150, DW_AT_TI_call
    2316                    
    2317 00000046 FFFEF7FF!         BL        HalFlashRead          ; [DPU_V7M3_PIPE] |441|  ; [KEEP 32-BIT INS]
    2318                            ; CALL OCCURS {HalFlashRead }    ; [] |441| 
    2319                            .dwpsn  file "../Application/Services/nvocop.c",line 444,column 11,is_stmt,isa 1
    2320 0000004a 0004F81B          LDRB      A1, [V8, +V1]         ; [DPU_V7M3_PIPE] |444|  ; [KEEP 32-BIT INS]
    2321 0000004e 1000F89D          LDRB      A2, [SP, #0]          ; [DPU_V7M3_PIPE] |444|  ; [KEEP 32-BIT INS]
    2322 00000052 4288              CMP       A1, A2                ; [DPU_V7M3_PIPE] |444|  ; [ORIG 16-BIT INS]
    2323 00000054 D105              BNE       ||$C$L34||            ; [DPU_V7M3_PIPE] |444|  ; [ORIG 16-BIT INS]
    2324                            ; BRANCHCC OCCURS {||$C$L34||}   ; [] |444| 
    2325                    ;* --------------------------------------------------------------------------*
    2326                            .dwpsn  file "../Application/Services/nvocop.c",line 439,column 28,is_stmt,isa 1
    2327 00000056 1C64              ADDS      V1, V1, #1            ; [DPU_V7M3_PIPE] |439|  ; [ORIG 16-BIT INS]
    2328                            .dwpsn  file "../Application/Services/nvocop.c",line 446,column 9,is_stmt,isa 1
    2329 00000058 1C76              ADDS      V3, V3, #1            ; [DPU_V7M3_PIPE] |446|  ; [ORIG 16-BIT INS]
    2330                            .dwpsn  file "../Application/Services/nvocop.c",line 439,column 28,is_stmt,isa 1
    2331 0000005a B2E4              UXTB      V1, V1                ; [DPU_V7M3_PIPE] |439|  ; [ORIG 16-BIT INS]
    2332                            .dwpsn  file "../Application/Services/nvocop.c",line 446,column 9,is_stmt,isa 1
    2333 0000005c B2B6              UXTH      V3, V3                ; [DPU_V7M3_PIPE] |446|  ; [ORIG 16-BIT INS]
    2334                            .dwpsn  file "../Application/Services/nvocop.c",line 439,column 28,is_stmt,isa 1
    2335 0000005e 42A5              CMP       V2, V1                ; [DPU_V7M3_PIPE] |439|  ; [ORIG 16-BIT INS]
    2336 00000060 DCED              BGT       ||$C$L33||            ; [DPU_V7M3_PIPE] |439|  ; [ORIG 16-BIT INS]
    2337                            ; BRANCHCC OCCURS {||$C$L33||}   ; [] |439| 
    2338                    ;* --------------------------------------------------------------------------*
    2339 00000062           ||$C$L34||:    
    2340                            .dwpsn  file "../Application/Services/nvocop.c",line 449,column 7,is_stmt,isa 1
    2341 00000062 42A5              CMP       V2, V1                ; [DPU_V7M3_PIPE] |449|  ; [ORIG 16-BIT INS]
    2342 00000064 D02E              BEQ       ||$C$L37||            ; [DPU_V7M3_PIPE] |449|  ; [ORIG 16-BIT INS]
    2343                            ; BRANCHCC OCCURS {||$C$L37||}   ; [] |449| 
    2344                    ;* --------------------------------------------------------------------------*
    2345 00000066           ||$C$L35||:    
    2346                            .dwpsn  file "../Application/Services/nvocop.c",line 460,column 3,is_stmt,isa 1
    2347 00000066 0002F8B8          LDRH      A1, [V5, #2]          ; [DPU_V7M3_PIPE] |460|  ; [KEEP 32-BIT INS]
    2348                            .dwpsn  file "../Application/Services/nvocop.c",line 458,column 3,is_stmt,isa 1
    2349 0000006a 1CED              ADDS      V2, V2, #3            ; [DPU_V7M3_PIPE] |458|  ; [ORIG 16-BIT INS]
    2350 0000006c 74FCF64F          MOV       V1, #65532            ; [DPU_V7M3_PIPE] |458|  ; [KEEP 32-BIT INS]
    2351 00000070 402C              ANDS      V1, V1, V2            ; [DPU_V7M3_PIPE] |458|  ; [ORIG 16-BIT INS]
    2352                            .dwpsn  file "../Application/Services/nvocop.c",line 460,column 3,is_stmt,isa 1
    2353 00000072 75F8F640          MOV       V2, #4088             ; [DPU_V7M3_PIPE] |460|  ; [KEEP 32-BIT INS]
    2354 00000076 1900              ADDS      A1, A1, V1            ; [DPU_V7M3_PIPE] |460|  ; [ORIG 16-BIT INS]
    2355 00000078 4285              CMP       V2, A1                ; [DPU_V7M3_PIPE] |460|  ; [ORIG 16-BIT INS]
    2356 0000007a DA0A              BGE       ||$C$L36||            ; [DPU_V7M3_PIPE] |460|  ; [ORIG 16-BIT INS]
    2357                            ; BRANCHCC OCCURS {||$C$L36||}   ; [] |460| 
    2358                    ;* --------------------------------------------------------------------------*
    2359                            .dwpsn  file "../Application/Services/nvocop.c",line 462,column 5,is_stmt,isa 1
    2360                    $C$DW$151       .dwtag  DW_TAG_TI_branch
    2361                            .dwattr $C$DW$151, DW_AT_low_pc(0x00)
    2362                            .dwattr $C$DW$151, DW_AT_name("setXferPage")
    2363                            .dwattr $C$DW$151, DW_AT_TI_call
    2364                    
    2365 0000007c FFFEF7FF!         BL        setXferPage           ; [DPU_V7M3_PIPE] |462|  ; [KEEP 32-BIT INS]
TI ARM Assembler PC v18.1.1 Wed Apr 25 09:49:35 2018

Tools Copyright (c) 1996-2017 Texas Instruments Incorporated
C:\Users\devops\AppData\Local\Temp\2\{2E9581CE-A7E5-4D75-B068-1A0EA728AB6B} PAGE   44

    2366                            ; CALL OCCURS {setXferPage }     ; [] |462| 
    2367                            .dwpsn  file "../Application/Services/nvocop.c",line 463,column 5,is_stmt,isa 1
    2368                    $C$DW$152       .dwtag  DW_TAG_TI_branch
    2369                            .dwattr $C$DW$152, DW_AT_low_pc(0x00)
    2370                            .dwattr $C$DW$152, DW_AT_name("compactPage")
    2371                            .dwattr $C$DW$152, DW_AT_TI_call
    2372                    
    2373 00000080 FFFEF7FF!         BL        compactPage           ; [DPU_V7M3_PIPE] |463|  ; [KEEP 32-BIT INS]
    2374                            ; CALL OCCURS {compactPage }     ; [] |463| 
    2375                            .dwpsn  file "../Application/Services/nvocop.c",line 466,column 5,is_stmt,isa 1
    2376 00000084 0002F8B8          LDRH      A1, [V5, #2]          ; [DPU_V7M3_PIPE] |466|  ; [KEEP 32-BIT INS]
    2377 00000088 1900              ADDS      A1, A1, V1            ; [DPU_V7M3_PIPE] |466|  ; [ORIG 16-BIT INS]
    2378 0000008a 4285              CMP       V2, A1                ; [DPU_V7M3_PIPE] |466|  ; [ORIG 16-BIT INS]
    2379 0000008c BFB8              IT        LT                    ; [DPU_V7M3_PIPE]  ; [ORIG 16-BIT INS]
    2380                            .dwpsn  file "../Application/Services/nvocop.c",line 468,column 9,is_stmt,isa 1
    2381 0000008e 2001              MOVLT     A1, #1                ; [DPU_V7M3_PIPE] |468|  ; [ORIG 16-BIT INS]
    2382 00000090 DB19              BLT       ||$C$L38||            ; [DPU_V7M3_PIPE] |468|  ; [ORIG 16-BIT INS]
    2383                            ; BRANCHCC OCCURS {||$C$L38||}   ; [] |468| 
    2384                    ;* --------------------------------------------------------------------------*
    2385 00000092           ||$C$L36||:    
    2386                            .dwpsn  file "../Application/Services/nvocop.c",line 477,column 3,is_stmt,isa 1
    2387 00000092 6839              LDR       A2, [V4, #0]          ; [DPU_V7M3_PIPE] |477|  ; [ORIG 16-BIT INS]
    2388 00000094 A802              ADD       A1, SP, #8            ; [DPU_V7M3_PIPE] |477|  ; [ORIG 16-BIT INS]
    2389 00000096 88BE              LDRH      V3, [V4, #4]          ; [DPU_V7M3_PIPE] |477|  ; [ORIG 16-BIT INS]
    2390 00000098 6001              STR       A2, [A1, #0]          ; [DPU_V7M3_PIPE] |477|  ; [ORIG 16-BIT INS]
    2391 0000009a AD02              ADD       V2, SP, #8            ; [DPU_V7M3_PIPE] |477|  ; [ORIG 16-BIT INS]
    2392 0000009c 8086              STRH      V3, [A1, #4]          ; [DPU_V7M3_PIPE] |477|  ; [ORIG 16-BIT INS]
    2393 0000009e 0003E895          LDMIA     V2, {A1,A2}           ; [DPU_V7M3_PIPE] |477|  ; [KEEP 32-BIT INS]
    2394 000000a2 4622              MOV       A3, V1                ; [DPU_V7M3_PIPE] |477|  ; [ORIG 16-BIT INS]
    2395 000000a4 465B              MOV       A4, V8                ; [DPU_V7M3_PIPE] |477|  ; [ORIG 16-BIT INS]
    2396                    $C$DW$153       .dwtag  DW_TAG_TI_branch
    2397                            .dwattr $C$DW$153, DW_AT_low_pc(0x00)
    2398                            .dwattr $C$DW$153, DW_AT_name("writeItem")
    2399                            .dwattr $C$DW$153, DW_AT_TI_call
    2400                    
    2401 000000a6 FFFEF7FF!         BL        writeItem             ; [DPU_V7M3_PIPE] |477|  ; [KEEP 32-BIT INS]
    2402                            ; CALL OCCURS {writeItem }       ; [] |477| 
    2403                            .dwpsn  file "../Application/Services/nvocop.c",line 481,column 3,is_stmt,isa 1
    2404 000000aa 0001F898          LDRB      A1, [V5, #1]          ; [DPU_V7M3_PIPE] |481|  ; [KEEP 32-BIT INS]
    2405 000000ae 1002F8B8          LDRH      A2, [V5, #2]          ; [DPU_V7M3_PIPE] |481|  ; [KEEP 32-BIT INS]
    2406 000000b2 2800              CMP       A1, #0                ; [DPU_V7M3_PIPE] |481|  ; [ORIG 16-BIT INS]
    2407 000000b4 BF18              IT        NE                    ; [DPU_V7M3_PIPE]  ; [ORIG 16-BIT INS]
    2408 000000b6 4682              MOVNE     V7, A1                ; [DPU_V7M3_PIPE]  ; [ORIG 16-BIT INS]
    2409                            .dwpsn  file "../Application/Services/nvocop.c",line 483,column 5,is_stmt,isa 1
    2410 000000b8 D104              BNE       ||$C$L37||            ; [DPU_V7M3_PIPE] |483|  ; [ORIG 16-BIT INS]
    2411                            ; BRANCHCC OCCURS {||$C$L37||}   ; [] |483| 
    2412                    ;* --------------------------------------------------------------------------*
    2413                            .dwpsn  file "../Application/Services/nvocop.c",line 486,column 3,is_stmt,isa 1
    2414 000000ba 1864              ADDS      V1, V1, A2            ; [DPU_V7M3_PIPE] |486|  ; [ORIG 16-BIT INS]
    2415 000000bc 3408              ADDS      V1, V1, #8            ; [DPU_V7M3_PIPE] |486|  ; [ORIG 16-BIT INS]
    2416 000000be B2A0              UXTH      A1, V1                ; [DPU_V7M3_PIPE] |486|  ; [ORIG 16-BIT INS]
    2417 000000c0 0002F8A8          STRH      A1, [V5, #2]          ; [DPU_V7M3_PIPE] |486|  ; [KEEP 32-BIT INS]
    2418                    ;* --------------------------------------------------------------------------*
    2419 000000c4           ||$C$L37||:    
    2420 000000c4 4650              MOV       A1, V7                ; [DPU_V7M3_PIPE] |486|  ; [ORIG 16-BIT INS]
TI ARM Assembler PC v18.1.1 Wed Apr 25 09:49:35 2018

Tools Copyright (c) 1996-2017 Texas Instruments Incorporated
C:\Users\devops\AppData\Local\Temp\2\{2E9581CE-A7E5-4D75-B068-1A0EA728AB6B} PAGE   45

    2421                    ;* --------------------------------------------------------------------------*
    2422 000000c6           ||$C$L38||:    
    2423 000000c6 B005              ADD       SP, SP, #20           ; [DPU_V7M3_PIPE]  ; [ORIG 16-BIT INS]
    2424                            .dwcfi  cfa_offset, 44
    2425 000000c8 4FF0E8BD          POP       {V1, V2, V3, V4, V5, V6, V7, V8, LR} ; [DPU_V7M3_PIPE]  ; [KEEP 32-BIT INS]
    2426                            .dwcfi  cfa_offset, 8
    2427                            .dwcfi  restore_reg, 14
    2428                            .dwcfi  restore_reg, 11
    2429                            .dwcfi  restore_reg, 10
    2430                            .dwcfi  restore_reg, 9
    2431                            .dwcfi  restore_reg, 8
    2432                            .dwcfi  restore_reg, 7
    2433                            .dwcfi  restore_reg, 6
    2434                            .dwcfi  restore_reg, 5
    2435                            .dwcfi  restore_reg, 4
    2436 000000cc B002              ADD       SP, SP, #8            ; [DPU_V7M3_PIPE]  ; [ORIG 16-BIT INS]
    2437                            .dwcfi  cfa_offset, 0
    2438                    $C$DW$154       .dwtag  DW_TAG_TI_branch
    2439                            .dwattr $C$DW$154, DW_AT_low_pc(0x00)
    2440                            .dwattr $C$DW$154, DW_AT_TI_return
    2441                    
    2442 000000ce 4770              BX        LR                    ; [DPU_V7M3_PIPE]  ; [ORIG 16-BIT INS]
    2443                            ; BRANCH OCCURS                  ; [] 
    2444                            .dwattr $C$DW$139, DW_AT_TI_end_file("../Application/Services/nvocop.c")
    2445                            .dwattr $C$DW$139, DW_AT_TI_end_line(0x1ed)
    2446                            .dwattr $C$DW$139, DW_AT_TI_end_column(0x01)
    2447                            .dwendentry
    2448                            .dwendtag $C$DW$139
    2449                    
    2450 00000000                   .sect   ".text:NVOCOP_readItem"
    2451                            .clink
    2452                            .thumbfunc NVOCOP_readItem
    2453 00000000                   .thumb
    2454                            .global NVOCOP_readItem
    2455                    
    2456                    $C$DW$155       .dwtag  DW_TAG_subprogram
    2457                            .dwattr $C$DW$155, DW_AT_name("NVOCOP_readItem")
    2458                            .dwattr $C$DW$155, DW_AT_low_pc(NVOCOP_readItem)
    2459                            .dwattr $C$DW$155, DW_AT_high_pc(0x00)
    2460                            .dwattr $C$DW$155, DW_AT_TI_symbol_name("NVOCOP_readItem")
    2461                            .dwattr $C$DW$155, DW_AT_external
    2462                            .dwattr $C$DW$155, DW_AT_type(*$C$DW$T$218)
    2463                            .dwattr $C$DW$155, DW_AT_TI_begin_file("../Application/Services/nvocop.c")
    2464                            .dwattr $C$DW$155, DW_AT_TI_begin_line(0x17f)
    2465                            .dwattr $C$DW$155, DW_AT_TI_begin_column(0x07)
    2466                            .dwattr $C$DW$155, DW_AT_decl_file("../Application/Services/nvocop.c")
    2467                            .dwattr $C$DW$155, DW_AT_decl_line(0x17f)
    2468                            .dwattr $C$DW$155, DW_AT_decl_column(0x07)
    2469                            .dwattr $C$DW$155, DW_AT_TI_max_frame_size(0x20)
    2470                            .dwpsn  file "../Application/Services/nvocop.c",line 384,column 1,is_stmt,address NVOCOP_readI
    2471                    
    2472                            .dwfde $C$DW$CIE, NVOCOP_readItem
    2473                    $C$DW$156       .dwtag  DW_TAG_formal_parameter
    2474                            .dwattr $C$DW$156, DW_AT_name("nv_id")
    2475                            .dwattr $C$DW$156, DW_AT_TI_symbol_name("nv_id")
TI ARM Assembler PC v18.1.1 Wed Apr 25 09:49:35 2018

Tools Copyright (c) 1996-2017 Texas Instruments Incorporated
C:\Users\devops\AppData\Local\Temp\2\{2E9581CE-A7E5-4D75-B068-1A0EA728AB6B} PAGE   46

    2476                            .dwattr $C$DW$156, DW_AT_type(*$C$DW$T$178)
    2477                            .dwattr $C$DW$156, DW_AT_location[DW_OP_breg13 24]
    2478                    
    2479                    $C$DW$157       .dwtag  DW_TAG_formal_parameter
    2480                            .dwattr $C$DW$157, DW_AT_name("offset")
    2481                            .dwattr $C$DW$157, DW_AT_TI_symbol_name("offset")
    2482                            .dwattr $C$DW$157, DW_AT_type(*$C$DW$T$21)
    2483                            .dwattr $C$DW$157, DW_AT_location[DW_OP_reg2]
    2484                    
    2485                    $C$DW$158       .dwtag  DW_TAG_formal_parameter
    2486                            .dwattr $C$DW$158, DW_AT_name("len")
    2487                            .dwattr $C$DW$158, DW_AT_TI_symbol_name("len")
    2488                            .dwattr $C$DW$158, DW_AT_type(*$C$DW$T$21)
    2489                            .dwattr $C$DW$158, DW_AT_location[DW_OP_reg3]
    2490                    
    2491                    $C$DW$159       .dwtag  DW_TAG_formal_parameter
    2492                            .dwattr $C$DW$159, DW_AT_name("pBuf")
    2493                            .dwattr $C$DW$159, DW_AT_TI_symbol_name("pBuf")
    2494                            .dwattr $C$DW$159, DW_AT_type(*$C$DW$T$3)
    2495                            .dwattr $C$DW$159, DW_AT_location[DW_OP_breg13 32]
    2496                    
    2497                    
    2498                    ;*****************************************************************************
    2499                    ;* FUNCTION NAME: NVOCOP_readItem                                            *
    2500                    ;*                                                                           *
    2501                    ;*   Regs Modified     : A1,A2,A3,A4,V1,V4,V9,SP,LR,SR                       *
    2502                    ;*   Regs Used         : A1,A2,A3,A4,V1,V4,V9,SP,LR,SR                       *
    2503                    ;*   Local Frame Size  : 0 Args + 8 Auto + 12 Save = 20 byte                 *
    2504                    ;*****************************************************************************
    2505                    NVOCOP_readItem:
    2506                    ;* --------------------------------------------------------------------------*
    2507                    ;* V1    assigned to len
    2508                    $C$DW$160       .dwtag  DW_TAG_variable
    2509                            .dwattr $C$DW$160, DW_AT_name("len")
    2510                            .dwattr $C$DW$160, DW_AT_TI_symbol_name("len")
    2511                            .dwattr $C$DW$160, DW_AT_type(*$C$DW$T$299)
    2512                            .dwattr $C$DW$160, DW_AT_location[DW_OP_reg4]
    2513                    
    2514                    ;* A2    assigned to itemOffset
    2515                    $C$DW$161       .dwtag  DW_TAG_variable
    2516                            .dwattr $C$DW$161, DW_AT_name("itemOffset")
    2517                            .dwattr $C$DW$161, DW_AT_TI_symbol_name("itemOffset")
    2518                            .dwattr $C$DW$161, DW_AT_type(*$C$DW$T$10)
    2519                            .dwattr $C$DW$161, DW_AT_location[DW_OP_reg1]
    2520                    
    2521                            .dwcfi  cfa_offset, 0
    2522 00000000 B403              PUSH      {A1, A2}              ; [DPU_V7M3_PIPE]  ; [ORIG 16-BIT INS]
    2523                            .dwcfi  cfa_offset, 8
    2524                            .dwcfi  save_reg_to_mem, 1, -4
    2525                            .dwcfi  save_reg_to_mem, 0, -8
    2526 00000002 B590              PUSH      {V1, V4, LR}          ; [DPU_V7M3_PIPE]  ; [ORIG 16-BIT INS]
    2527                            .dwcfi  cfa_offset, 20
    2528                            .dwcfi  save_reg_to_mem, 14, -12
    2529                            .dwcfi  save_reg_to_mem, 7, -16
    2530                            .dwcfi  save_reg_to_mem, 4, -20
TI ARM Assembler PC v18.1.1 Wed Apr 25 09:49:35 2018

Tools Copyright (c) 1996-2017 Texas Instruments Incorporated
C:\Users\devops\AppData\Local\Temp\2\{2E9581CE-A7E5-4D75-B068-1A0EA728AB6B} PAGE   47

    2531 00000004 AF03              ADD       V4, SP, #12           ; [DPU_V7M3_PIPE]  ; [ORIG 16-BIT INS]
    2532                            .dwpsn  file "../Application/Services/nvocop.c",line 391,column 21,is_stmt,isa 1
    2533 00000006 6839              LDR       A2, [V4, #0]          ; [DPU_V7M3_PIPE] |391|  ; [ORIG 16-BIT INS]
    2534 00000008 0D0CF1AD          SUB       SP, SP, #12           ; [DPU_V7M3_PIPE]  ; [KEEP 32-BIT INS]
    2535                            .dwcfi  cfa_offset, 32
    2536 0000000c 4668              MOV       A1, SP                ; [DPU_V7M3_PIPE] |391|  ; [ORIG 16-BIT INS]
    2537 0000000e 6001              STR       A2, [A1, #0]          ; [DPU_V7M3_PIPE] |391|  ; [ORIG 16-BIT INS]
    2538 00000010 88B9              LDRH      A2, [V4, #4]          ; [DPU_V7M3_PIPE] |391|  ; [ORIG 16-BIT INS]
    2539 00000012 8081              STRH      A2, [A1, #4]          ; [DPU_V7M3_PIPE] |391|  ; [ORIG 16-BIT INS]
    2540 00000014 0003E89D          LDMIA     SP, {A1,A2}           ; [DPU_V7M3_PIPE] |391|  ; [KEEP 32-BIT INS]
    2541                            .dwpsn  file "../Application/Services/nvocop.c",line 384,column 1,is_stmt,isa 1
    2542 00000018 461C              MOV       V1, A4                ; [DPU_V7M3_PIPE] |384|  ; [ORIG 16-BIT INS]
    2543                            .dwpsn  file "../Application/Services/nvocop.c",line 391,column 21,is_stmt,isa 1
    2544                    $C$DW$162       .dwtag  DW_TAG_TI_branch
    2545                            .dwattr $C$DW$162, DW_AT_low_pc(0x00)
    2546                            .dwattr $C$DW$162, DW_AT_name("findItem")
    2547                            .dwattr $C$DW$162, DW_AT_TI_call
    2548                    
    2549 0000001a FFFEF7FF!         BL        findItem              ; [DPU_V7M3_PIPE] |391|  ; [KEEP 32-BIT INS]
    2550                            ; CALL OCCURS {findItem }        ; [] |391| 
    2551 0000001e 1C01              MOVS      A2, A1                ; [DPU_V7M3_PIPE] |391|  ; [ORIG 16-BIT INS]
    2552 00000020 D008              BEQ       ||$C$L39||            ; [DPU_V7M3_PIPE] |391|  ; [ORIG 16-BIT INS]
    2553                            ; BRANCHCC OCCURS {||$C$L39||}   ; [] |391| 
    2554                    ;* --------------------------------------------------------------------------*
    2555                            .dwpsn  file "../Application/Services/nvocop.c",line 396,column 5,is_stmt,isa 1
    2556 00000022 4807              LDR       A1, $C$CON31          ; [DPU_V7M3_PIPE] |396|  ; [ORIG 16-BIT INS]
    2557 00000024 68BA              LDR       A3, [V4, #8]          ; [DPU_V7M3_PIPE] |396|  ; [ORIG 16-BIT INS]
    2558 00000026 4623              MOV       A4, V1                ; [DPU_V7M3_PIPE] |396|  ; [ORIG 16-BIT INS]
    2559 00000028 0B00              LSRS      A1, A1, #12           ; [DPU_V7M3_PIPE] |396|  ; [ORIG 16-BIT INS]
    2560 0000002a B2C0              UXTB      A1, A1                ; [DPU_V7M3_PIPE] |396|  ; [ORIG 16-BIT INS]
    2561                    $C$DW$163       .dwtag  DW_TAG_TI_branch
    2562                            .dwattr $C$DW$163, DW_AT_low_pc(0x00)
    2563                            .dwattr $C$DW$163, DW_AT_name("HalFlashRead")
    2564                            .dwattr $C$DW$163, DW_AT_TI_call
    2565                    
    2566 0000002c FFFEF7FF!         BL        HalFlashRead          ; [DPU_V7M3_PIPE] |396|  ; [KEEP 32-BIT INS]
    2567                            ; CALL OCCURS {HalFlashRead }    ; [] |396| 
    2568                            .dwpsn  file "../Application/Services/nvocop.c",line 398,column 5,is_stmt,isa 1
    2569 00000030 2000              MOVS      A1, #0                ; [DPU_V7M3_PIPE] |398|  ; [ORIG 16-BIT INS]
    2570 00000032 E000              B         ||$C$L40||            ; [DPU_V7M3_PIPE] |398|  ; [ORIG 16-BIT INS]
    2571                            ; BRANCH OCCURS {||$C$L40||}     ; [] |398| 
    2572                    ;* --------------------------------------------------------------------------*
    2573 00000034           ||$C$L39||:    
    2574                            .dwpsn  file "../Application/Services/nvocop.c",line 402,column 3,is_stmt,isa 1
    2575 00000034 2001              MOVS      A1, #1                ; [DPU_V7M3_PIPE] |402|  ; [ORIG 16-BIT INS]
    2576                    ;* --------------------------------------------------------------------------*
    2577 00000036           ||$C$L40||:    
    2578 00000036 B003              ADD       SP, SP, #12           ; [DPU_V7M3_PIPE]  ; [ORIG 16-BIT INS]
    2579                            .dwcfi  cfa_offset, 20
    2580 00000038 4090E8BD          POP       {V1, V4, LR}          ; [DPU_V7M3_PIPE]  ; [KEEP 32-BIT INS]
    2581                            .dwcfi  cfa_offset, 8
    2582                            .dwcfi  restore_reg, 14
    2583                            .dwcfi  restore_reg, 7
    2584                            .dwcfi  restore_reg, 4
    2585 0000003c B002              ADD       SP, SP, #8            ; [DPU_V7M3_PIPE]  ; [ORIG 16-BIT INS]
TI ARM Assembler PC v18.1.1 Wed Apr 25 09:49:35 2018

Tools Copyright (c) 1996-2017 Texas Instruments Incorporated
C:\Users\devops\AppData\Local\Temp\2\{2E9581CE-A7E5-4D75-B068-1A0EA728AB6B} PAGE   48

    2586                            .dwcfi  cfa_offset, 0
    2587                    $C$DW$164       .dwtag  DW_TAG_TI_branch
    2588                            .dwattr $C$DW$164, DW_AT_low_pc(0x00)
    2589                            .dwattr $C$DW$164, DW_AT_TI_return
    2590                    
    2591 0000003e 4770              BX        LR                    ; [DPU_V7M3_PIPE]  ; [ORIG 16-BIT INS]
    2592                            ; BRANCH OCCURS                  ; [] 
    2593                            .dwattr $C$DW$155, DW_AT_TI_end_file("../Application/Services/nvocop.c")
    2594                            .dwattr $C$DW$155, DW_AT_TI_end_line(0x193)
    2595                            .dwattr $C$DW$155, DW_AT_TI_end_column(0x01)
    2596                            .dwendentry
    2597                            .dwendtag $C$DW$155
    2598                    
    2599 00000000                   .sect   ".text:findOffset"
    2600                            .clink
    2601                            .thumbfunc findOffset
    2602 00000000                   .thumb
    2603                    
    2604                    $C$DW$165       .dwtag  DW_TAG_subprogram
    2605                            .dwattr $C$DW$165, DW_AT_name("findOffset")
    2606                            .dwattr $C$DW$165, DW_AT_low_pc(findOffset)
    2607                            .dwattr $C$DW$165, DW_AT_high_pc(0x00)
    2608                            .dwattr $C$DW$165, DW_AT_TI_symbol_name("findOffset")
    2609                            .dwattr $C$DW$165, DW_AT_TI_begin_file("../Application/Services/nvocop.c")
    2610                            .dwattr $C$DW$165, DW_AT_TI_begin_line(0x289)
    2611                            .dwattr $C$DW$165, DW_AT_TI_begin_column(0x0d)
    2612                            .dwattr $C$DW$165, DW_AT_decl_file("../Application/Services/nvocop.c")
    2613                            .dwattr $C$DW$165, DW_AT_decl_line(0x289)
    2614                            .dwattr $C$DW$165, DW_AT_decl_column(0x0d)
    2615                            .dwattr $C$DW$165, DW_AT_TI_max_frame_size(0x10)
    2616                            .dwpsn  file "../Application/Services/nvocop.c",line 650,column 1,is_stmt,address findOffset,i
    2617                    
    2618                            .dwfde $C$DW$CIE, findOffset
    2619                    
    2620                    ;*****************************************************************************
    2621                    ;* FUNCTION NAME: findOffset                                                 *
    2622                    ;*                                                                           *
    2623                    ;*   Regs Modified     : A1,A2,A3,A4,V1,V2,V9,SP,LR,SR                       *
    2624                    ;*   Regs Used         : A1,A2,A3,A4,V1,V2,V9,SP,LR,SR                       *
    2625                    ;*   Local Frame Size  : 0 Args + 4 Auto + 12 Save = 16 byte                 *
    2626                    ;*****************************************************************************
    2627                    findOffset:
    2628                    ;* --------------------------------------------------------------------------*
    2629                    $C$DW$166       .dwtag  DW_TAG_variable
    2630                            .dwattr $C$DW$166, DW_AT_name("tmp")
    2631                            .dwattr $C$DW$166, DW_AT_TI_symbol_name("tmp")
    2632                            .dwattr $C$DW$166, DW_AT_type(*$C$DW$T$222)
    2633                            .dwattr $C$DW$166, DW_AT_location[DW_OP_breg13 0]
    2634                    
    2635                    ;* V2    assigned to $O$K10
    2636                    ;* V1    assigned to offset
    2637                    $C$DW$167       .dwtag  DW_TAG_variable
    2638                            .dwattr $C$DW$167, DW_AT_name("offset")
    2639                            .dwattr $C$DW$167, DW_AT_TI_symbol_name("offset")
    2640                            .dwattr $C$DW$167, DW_AT_type(*$C$DW$T$21)
TI ARM Assembler PC v18.1.1 Wed Apr 25 09:49:35 2018

Tools Copyright (c) 1996-2017 Texas Instruments Incorporated
C:\Users\devops\AppData\Local\Temp\2\{2E9581CE-A7E5-4D75-B068-1A0EA728AB6B} PAGE   49

    2641                            .dwattr $C$DW$167, DW_AT_location[DW_OP_reg4]
    2642                    
    2643                            .dwcfi  cfa_offset, 0
    2644 00000000 480C              LDR       A1, $C$CON34          ; [DPU_V7M3_PIPE]  ; [ORIG 16-BIT INS]
    2645 00000002 B538              PUSH      {A4, V1, V2, LR}      ; [DPU_V7M3_PIPE]  ; [ORIG 16-BIT INS]
    2646                            .dwcfi  cfa_offset, 16
    2647                            .dwcfi  save_reg_to_mem, 14, -4
    2648                            .dwcfi  save_reg_to_mem, 5, -8
    2649                            .dwcfi  save_reg_to_mem, 4, -12
    2650                            .dwcfi  save_reg_to_mem, 3, -16
    2651                            .dwpsn  file "../Application/Services/nvocop.c",line 652,column 8,is_stmt,isa 1
    2652 00000004 74FCF640          MOV       V1, #4092             ; [DPU_V7M3_PIPE] |652|  ; [KEEP 32-BIT INS]
    2653 00000008 0B00              LSRS      A1, A1, #12           ; [DPU_V7M3_PIPE]  ; [ORIG 16-BIT INS]
    2654 0000000a B2C5              UXTB      V2, A1                ; [DPU_V7M3_PIPE]  ; [ORIG 16-BIT INS]
    2655                    ;* --------------------------------------------------------------------------*
    2656                    ;*   BEGIN LOOP ||$C$L41||
    2657                    ;*
    2658                    ;*   Loop source line                : 652
    2659                    ;*   Loop closing brace source line  : 663
    2660                    ;*   Known Minimum Trip Count        : 1
    2661                    ;*   Known Maximum Trip Count        : 1023
    2662                    ;*   Known Max Trip Count Factor     : 1
    2663                    ;* --------------------------------------------------------------------------*
    2664 0000000c           ||$C$L41||:    
    2665                            .dwpsn  file "../Application/Services/nvocop.c",line 658,column 5,is_stmt,isa 1
    2666 0000000c 4628              MOV       A1, V2                ; [DPU_V7M3_PIPE] |658|  ; [ORIG 16-BIT INS]
    2667 0000000e 4621              MOV       A2, V1                ; [DPU_V7M3_PIPE] |658|  ; [ORIG 16-BIT INS]
    2668 00000010 466A              MOV       A3, SP                ; [DPU_V7M3_PIPE] |658|  ; [ORIG 16-BIT INS]
    2669 00000012 2304              MOVS      A4, #4                ; [DPU_V7M3_PIPE] |658|  ; [ORIG 16-BIT INS]
    2670                    $C$DW$168       .dwtag  DW_TAG_TI_branch
    2671                            .dwattr $C$DW$168, DW_AT_low_pc(0x00)
    2672                            .dwattr $C$DW$168, DW_AT_name("HalFlashRead")
    2673                            .dwattr $C$DW$168, DW_AT_TI_call
    2674                    
    2675 00000014 FFFEF7FF!         BL        HalFlashRead          ; [DPU_V7M3_PIPE] |658|  ; [KEEP 32-BIT INS]
    2676                            ; CALL OCCURS {HalFlashRead }    ; [] |658| 
    2677                            .dwpsn  file "../Application/Services/nvocop.c",line 661,column 7,is_stmt,isa 1
    2678 00000018 9800              LDR       A1, [SP, #0]          ; [DPU_V7M3_PIPE] |661|  ; [ORIG 16-BIT INS]
    2679 0000001a 3FFFF1B0          CMP       A1, #-1               ; [DPU_V7M3_PIPE] |661|  ; [KEEP 32-BIT INS]
    2680 0000001e D103              BNE       ||$C$L42||            ; [DPU_V7M3_PIPE] |661|  ; [ORIG 16-BIT INS]
    2681                            ; BRANCHCC OCCURS {||$C$L42||}   ; [] |661| 
    2682                    ;* --------------------------------------------------------------------------*
    2683                            .dwpsn  file "../Application/Services/nvocop.c",line 653,column 8,is_stmt,isa 1
    2684 00000020 1F24              SUBS      V1, V1, #4            ; [DPU_V7M3_PIPE] |653|  ; [ORIG 16-BIT INS]
    2685 00000022 B2A4              UXTH      V1, V1                ; [DPU_V7M3_PIPE] |653|  ; [ORIG 16-BIT INS]
    2686 00000024 2C04              CMP       V1, #4                ; [DPU_V7M3_PIPE] |653|  ; [ORIG 16-BIT INS]
    2687 00000026 DAF1              BGE       ||$C$L41||            ; [DPU_V7M3_PIPE] |653|  ; [ORIG 16-BIT INS]
    2688                            ; BRANCHCC OCCURS {||$C$L41||}   ; [] |653| 
    2689                    ;* --------------------------------------------------------------------------*
    2690 00000028           ||$C$L42||:    
    2691                            .dwpsn  file "../Application/Services/nvocop.c",line 664,column 3,is_stmt,isa 1
    2692 00000028 4801              LDR       A1, $C$CON33          ; [DPU_V7M3_PIPE] |664|  ; [ORIG 16-BIT INS]
    2693 0000002a 1D24              ADDS      V1, V1, #4            ; [DPU_V7M3_PIPE] |664|  ; [ORIG 16-BIT INS]
    2694 0000002c 8004              STRH      V1, [A1, #0]          ; [DPU_V7M3_PIPE] |664|  ; [ORIG 16-BIT INS]
    2695                    $C$DW$169       .dwtag  DW_TAG_TI_branch
TI ARM Assembler PC v18.1.1 Wed Apr 25 09:49:35 2018

Tools Copyright (c) 1996-2017 Texas Instruments Incorporated
C:\Users\devops\AppData\Local\Temp\2\{2E9581CE-A7E5-4D75-B068-1A0EA728AB6B} PAGE   50

    2696                            .dwattr $C$DW$169, DW_AT_low_pc(0x00)
    2697                            .dwattr $C$DW$169, DW_AT_TI_return
    2698                    
    2699 0000002e BD38              POP       {A4, V1, V2, PC}      ; [DPU_V7M3_PIPE]  ; [ORIG 16-BIT INS]
    2700                            .dwcfi  cfa_offset, 0
    2701                            .dwcfi  restore_reg, 5
    2702                            .dwcfi  restore_reg, 4
    2703                            .dwcfi  restore_reg, 3
    2704                            ; BRANCH OCCURS                  ; [] 
    2705                            .dwattr $C$DW$165, DW_AT_TI_end_file("../Application/Services/nvocop.c")
    2706                            .dwattr $C$DW$165, DW_AT_TI_end_line(0x299)
    2707                            .dwattr $C$DW$165, DW_AT_TI_end_column(0x01)
    2708                            .dwendentry
    2709                            .dwendtag $C$DW$165
    2710                    
    2711 00000000                   .sect   ".text:NVOCOP_initNV"
    2712                            .clink
    2713                            .thumbfunc NVOCOP_initNV
    2714 00000000                   .thumb
    2715                            .global NVOCOP_initNV
    2716                    
    2717                    $C$DW$170       .dwtag  DW_TAG_subprogram
    2718                            .dwattr $C$DW$170, DW_AT_name("NVOCOP_initNV")
    2719                            .dwattr $C$DW$170, DW_AT_low_pc(NVOCOP_initNV)
    2720                            .dwattr $C$DW$170, DW_AT_high_pc(0x00)
    2721                            .dwattr $C$DW$170, DW_AT_TI_symbol_name("NVOCOP_initNV")
    2722                            .dwattr $C$DW$170, DW_AT_external
    2723                            .dwattr $C$DW$170, DW_AT_type(*$C$DW$T$218)
    2724                            .dwattr $C$DW$170, DW_AT_TI_begin_file("../Application/Services/nvocop.c")
    2725                            .dwattr $C$DW$170, DW_AT_TI_begin_line(0x116)
    2726                            .dwattr $C$DW$170, DW_AT_TI_begin_column(0x07)
    2727                            .dwattr $C$DW$170, DW_AT_decl_file("../Application/Services/nvocop.c")
    2728                            .dwattr $C$DW$170, DW_AT_decl_line(0x116)
    2729                            .dwattr $C$DW$170, DW_AT_decl_column(0x07)
    2730                            .dwattr $C$DW$170, DW_AT_TI_max_frame_size(0x10)
    2731                            .dwpsn  file "../Application/Services/nvocop.c",line 279,column 1,is_stmt,address NVOCOP_initN
    2732                    
    2733                            .dwfde $C$DW$CIE, NVOCOP_initNV
    2734                    $C$DW$171       .dwtag  DW_TAG_formal_parameter
    2735                            .dwattr $C$DW$171, DW_AT_name("param")
    2736                            .dwattr $C$DW$171, DW_AT_TI_symbol_name("param")
    2737                            .dwattr $C$DW$171, DW_AT_type(*$C$DW$T$3)
    2738                            .dwattr $C$DW$171, DW_AT_location[DW_OP_reg0]
    2739                    
    2740                    
    2741                    ;*****************************************************************************
    2742                    ;* FUNCTION NAME: NVOCOP_initNV                                              *
    2743                    ;*                                                                           *
    2744                    ;*   Regs Modified     : A1,A2,A3,A4,V1,V9,SP,LR,SR                          *
    2745                    ;*   Regs Used         : A1,A2,A3,A4,V1,V9,SP,LR,SR                          *
    2746                    ;*   Local Frame Size  : 0 Args + 4 Auto + 8 Save = 12 byte                  *
    2747                    ;*****************************************************************************
    2748                    NVOCOP_initNV:
    2749                    ;* --------------------------------------------------------------------------*
    2750                    $C$DW$172       .dwtag  DW_TAG_variable
TI ARM Assembler PC v18.1.1 Wed Apr 25 09:49:35 2018

Tools Copyright (c) 1996-2017 Texas Instruments Incorporated
C:\Users\devops\AppData\Local\Temp\2\{2E9581CE-A7E5-4D75-B068-1A0EA728AB6B} PAGE   51

    2751                            .dwattr $C$DW$172, DW_AT_name("pgHdr")
    2752                            .dwattr $C$DW$172, DW_AT_TI_symbol_name("pgHdr")
    2753                            .dwattr $C$DW$172, DW_AT_type(*$C$DW$T$222)
    2754                            .dwattr $C$DW$172, DW_AT_location[DW_OP_breg13 0]
    2755                    
    2756                    ;* V1    assigned to $O$C16
    2757                    ;* A2    assigned to $O$C17
    2758                    ;* V1    assigned to $O$K4
    2759                            .dwcfi  cfa_offset, 0
    2760 00000000 B51C              PUSH      {A3, A4, V1, LR}      ; [DPU_V7M3_PIPE]  ; [ORIG 16-BIT INS]
    2761                            .dwcfi  cfa_offset, 16
    2762                            .dwcfi  save_reg_to_mem, 14, -4
    2763                            .dwcfi  save_reg_to_mem, 4, -8
    2764                            .dwcfi  save_reg_to_mem, 3, -12
    2765                            .dwcfi  save_reg_to_mem, 2, -16
    2766                            .dwpsn  file "../Application/Services/nvocop.c",line 280,column 3,is_stmt,isa 1
    2767 00000002 4C10              LDR       V1, $C$CON37          ; [DPU_V7M3_PIPE] |280|  ; [ORIG 16-BIT INS]
    2768                            .dwpsn  file "../Application/Services/nvocop.c",line 287,column 3,is_stmt,isa 1
    2769 00000004 4810              LDR       A1, $C$CON38          ; [DPU_V7M3_PIPE] |287|  ; [ORIG 16-BIT INS]
    2770                            .dwpsn  file "../Application/Services/nvocop.c",line 280,column 3,is_stmt,isa 1
    2771 00000006 2100              MOVS      A2, #0                ; [DPU_V7M3_PIPE] |280|  ; [ORIG 16-BIT INS]
    2772                            .dwpsn  file "../Application/Services/nvocop.c",line 287,column 3,is_stmt,isa 1
    2773 00000008 2304              MOVS      A4, #4                ; [DPU_V7M3_PIPE] |287|  ; [ORIG 16-BIT INS]
    2774 0000000a 1EA4              SUBS      V1, V1, #2            ; [DPU_V7M3_PIPE]  ; [ORIG 16-BIT INS]
    2775 0000000c 0B00              LSRS      A1, A1, #12           ; [DPU_V7M3_PIPE] |287|  ; [ORIG 16-BIT INS]
    2776 0000000e 466A              MOV       A3, SP                ; [DPU_V7M3_PIPE] |287|  ; [ORIG 16-BIT INS]
    2777                            .dwpsn  file "../Application/Services/nvocop.c",line 280,column 3,is_stmt,isa 1
    2778 00000010 7061              STRB      A2, [V1, #1]          ; [DPU_V7M3_PIPE] |280|  ; [ORIG 16-BIT INS]
    2779                            .dwpsn  file "../Application/Services/nvocop.c",line 287,column 3,is_stmt,isa 1
    2780 00000012 B2C0              UXTB      A1, A1                ; [DPU_V7M3_PIPE] |287|  ; [ORIG 16-BIT INS]
    2781                            .dwpsn  file "../Application/Services/nvocop.c",line 284,column 3,is_stmt,isa 1
    2782 00000014 7021              STRB      A2, [V1, #0]          ; [DPU_V7M3_PIPE] |284|  ; [ORIG 16-BIT INS]
    2783                            .dwpsn  file "../Application/Services/nvocop.c",line 287,column 3,is_stmt,isa 1
    2784                    $C$DW$173       .dwtag  DW_TAG_TI_branch
    2785                            .dwattr $C$DW$173, DW_AT_low_pc(0x00)
    2786                            .dwattr $C$DW$173, DW_AT_name("HalFlashRead")
    2787                            .dwattr $C$DW$173, DW_AT_TI_call
    2788                    
    2789 00000016 FFFEF7FF!         BL        HalFlashRead          ; [DPU_V7M3_PIPE] |287|  ; [KEEP 32-BIT INS]
    2790                            ; CALL OCCURS {HalFlashRead }    ; [] |287| 
    2791                            .dwpsn  file "../Application/Services/nvocop.c",line 289,column 3,is_stmt,isa 1
    2792 0000001a 9800              LDR       A1, [SP, #0]          ; [DPU_V7M3_PIPE] |289|  ; [ORIG 16-BIT INS]
    2793 0000001c 1F80F5B0          CMP       A1, #1048576          ; [DPU_V7M3_PIPE] |289|  ; [KEEP 32-BIT INS]
    2794 00000020 D00C              BEQ       ||$C$L44||            ; [DPU_V7M3_PIPE] |289|  ; [ORIG 16-BIT INS]
    2795                            ; BRANCHCC OCCURS {||$C$L44||}   ; [] |289| 
    2796                    ;* --------------------------------------------------------------------------*
    2797 00000022 B920              CBNZ      A1, ||$C$L43||        ; []  ; [ORIG 16-BIT INS]
    2798                            .dwpsn  file "../Application/Services/nvocop.c",line 293,column 8,is_stmt,isa 1
    2799                            ; BRANCHCC OCCURS {||$C$L43||}   ; [] |293| 
    2800                    ;* --------------------------------------------------------------------------*
    2801                            .dwpsn  file "../Application/Services/nvocop.c",line 295,column 5,is_stmt,isa 1
    2802                    $C$DW$174       .dwtag  DW_TAG_TI_branch
    2803                            .dwattr $C$DW$174, DW_AT_low_pc(0x00)
    2804                            .dwattr $C$DW$174, DW_AT_name("findOffset")
    2805                            .dwattr $C$DW$174, DW_AT_TI_call
TI ARM Assembler PC v18.1.1 Wed Apr 25 09:49:35 2018

Tools Copyright (c) 1996-2017 Texas Instruments Incorporated
C:\Users\devops\AppData\Local\Temp\2\{2E9581CE-A7E5-4D75-B068-1A0EA728AB6B} PAGE   52

    2806                    
    2807 00000024 FFFEF7FF!         BL        findOffset            ; [DPU_V7M3_PIPE] |295|  ; [KEEP 32-BIT INS]
    2808                            ; CALL OCCURS {findOffset }      ; [] |295| 
    2809                            .dwpsn  file "../Application/Services/nvocop.c",line 297,column 5,is_stmt,isa 1
    2810                    $C$DW$175       .dwtag  DW_TAG_TI_branch
    2811                            .dwattr $C$DW$175, DW_AT_low_pc(0x00)
    2812                            .dwattr $C$DW$175, DW_AT_name("compactPage")
    2813                            .dwattr $C$DW$175, DW_AT_TI_call
    2814                    
    2815 00000028 FFFEF7FF!         BL        compactPage           ; [DPU_V7M3_PIPE] |297|  ; [KEEP 32-BIT INS]
    2816                            ; CALL OCCURS {compactPage }     ; [] |297| 
    2817                            .dwpsn  file "../Application/Services/nvocop.c",line 298,column 3,is_stmt,isa 1
    2818 0000002c E008              B         ||$C$L45||            ; [DPU_V7M3_PIPE] |298|  ; [ORIG 16-BIT INS]
    2819                            ; BRANCH OCCURS {||$C$L45||}     ; [] |298| 
    2820                    ;* --------------------------------------------------------------------------*
    2821 0000002e           ||$C$L43||:    
    2822                            .dwpsn  file "../Application/Services/nvocop.c",line 304,column 5,is_stmt,isa 1
    2823                    $C$DW$176       .dwtag  DW_TAG_TI_branch
    2824                            .dwattr $C$DW$176, DW_AT_low_pc(0x00)
    2825                            .dwattr $C$DW$176, DW_AT_name("erasePage")
    2826                            .dwattr $C$DW$176, DW_AT_TI_call
    2827                    
    2828 0000002e FFFEF7FF!         BL        erasePage             ; [DPU_V7M3_PIPE] |304|  ; [KEEP 32-BIT INS]
    2829                            ; CALL OCCURS {erasePage }       ; [] |304| 
    2830                            .dwpsn  file "../Application/Services/nvocop.c",line 306,column 5,is_stmt,isa 1
    2831                    $C$DW$177       .dwtag  DW_TAG_TI_branch
    2832                            .dwattr $C$DW$177, DW_AT_low_pc(0x00)
    2833                            .dwattr $C$DW$177, DW_AT_name("setActivePage")
    2834                            .dwattr $C$DW$177, DW_AT_TI_call
    2835                    
    2836 00000032 FFFEF7FF!         BL        setActivePage         ; [DPU_V7M3_PIPE] |306|  ; [KEEP 32-BIT INS]
    2837                            ; CALL OCCURS {setActivePage }   ; [] |306| 
    2838                            .dwpsn  file "../Application/Services/nvocop.c",line 308,column 5,is_stmt,isa 1
    2839 00000036 2004              MOVS      A1, #4                ; [DPU_V7M3_PIPE] |308|  ; [ORIG 16-BIT INS]
    2840 00000038 8060              STRH      A1, [V1, #2]          ; [DPU_V7M3_PIPE] |308|  ; [ORIG 16-BIT INS]
    2841 0000003a E001              B         ||$C$L45||            ; [DPU_V7M3_PIPE] |308|  ; [ORIG 16-BIT INS]
    2842                            ; BRANCH OCCURS {||$C$L45||}     ; [] |308| 
    2843                    ;* --------------------------------------------------------------------------*
    2844 0000003c           ||$C$L44||:    
    2845                            .dwpsn  file "../Application/Services/nvocop.c",line 291,column 5,is_stmt,isa 1
    2846                    $C$DW$178       .dwtag  DW_TAG_TI_branch
    2847                            .dwattr $C$DW$178, DW_AT_low_pc(0x00)
    2848                            .dwattr $C$DW$178, DW_AT_name("findOffset")
    2849                            .dwattr $C$DW$178, DW_AT_TI_call
    2850                    
    2851 0000003c FFFEF7FF!         BL        findOffset            ; [DPU_V7M3_PIPE] |291|  ; [KEEP 32-BIT INS]
    2852                            ; CALL OCCURS {findOffset }      ; [] |291| 
    2853                    ;* --------------------------------------------------------------------------*
    2854 00000040           ||$C$L45||:    
    2855                            .dwpsn  file "../Application/Services/nvocop.c",line 311,column 3,is_stmt,isa 1
    2856 00000040 7860              LDRB      A1, [V1, #1]          ; [DPU_V7M3_PIPE] |311|  ; [ORIG 16-BIT INS]
    2857                    $C$DW$179       .dwtag  DW_TAG_TI_branch
    2858                            .dwattr $C$DW$179, DW_AT_low_pc(0x00)
    2859                            .dwattr $C$DW$179, DW_AT_TI_return
    2860                    
TI ARM Assembler PC v18.1.1 Wed Apr 25 09:49:35 2018

Tools Copyright (c) 1996-2017 Texas Instruments Incorporated
C:\Users\devops\AppData\Local\Temp\2\{2E9581CE-A7E5-4D75-B068-1A0EA728AB6B} PAGE   53

    2861 00000042 BD1C              POP       {A3, A4, V1, PC}      ; [DPU_V7M3_PIPE]  ; [ORIG 16-BIT INS]
    2862                            .dwcfi  cfa_offset, 0
    2863                            .dwcfi  restore_reg, 4
    2864                            .dwcfi  restore_reg, 3
    2865                            .dwcfi  restore_reg, 2
    2866                            ; BRANCH OCCURS                  ; [] 
    2867                            .dwattr $C$DW$170, DW_AT_TI_end_file("../Application/Services/nvocop.c")
    2868                            .dwattr $C$DW$170, DW_AT_TI_end_line(0x13c)
    2869                            .dwattr $C$DW$170, DW_AT_TI_end_column(0x01)
    2870                            .dwendentry
    2871                            .dwendtag $C$DW$170
    2872                    
    2873 00000000                   .sect   ".text:NVOCOP_deleteItem"
    2874                            .clink
    2875                            .thumbfunc NVOCOP_deleteItem
    2876 00000000                   .thumb
    2877                            .global NVOCOP_deleteItem
    2878                    
    2879                    $C$DW$180       .dwtag  DW_TAG_subprogram
    2880                            .dwattr $C$DW$180, DW_AT_name("NVOCOP_deleteItem")
    2881                            .dwattr $C$DW$180, DW_AT_low_pc(NVOCOP_deleteItem)
    2882                            .dwattr $C$DW$180, DW_AT_high_pc(0x00)
    2883                            .dwattr $C$DW$180, DW_AT_TI_symbol_name("NVOCOP_deleteItem")
    2884                            .dwattr $C$DW$180, DW_AT_external
    2885                            .dwattr $C$DW$180, DW_AT_type(*$C$DW$T$218)
    2886                            .dwattr $C$DW$180, DW_AT_TI_begin_file("../Application/Services/nvocop.c")
    2887                            .dwattr $C$DW$180, DW_AT_TI_begin_line(0x1f9)
    2888                            .dwattr $C$DW$180, DW_AT_TI_begin_column(0x07)
    2889                            .dwattr $C$DW$180, DW_AT_decl_file("../Application/Services/nvocop.c")
    2890                            .dwattr $C$DW$180, DW_AT_decl_line(0x1f9)
    2891                            .dwattr $C$DW$180, DW_AT_decl_column(0x07)
    2892                            .dwattr $C$DW$180, DW_AT_TI_max_frame_size(0x38)
    2893                            .dwpsn  file "../Application/Services/nvocop.c",line 506,column 1,is_stmt,address NVOCOP_delet
    2894                    
    2895                            .dwfde $C$DW$CIE, NVOCOP_deleteItem
    2896                    $C$DW$181       .dwtag  DW_TAG_formal_parameter
    2897                            .dwattr $C$DW$181, DW_AT_name("id")
    2898                            .dwattr $C$DW$181, DW_AT_TI_symbol_name("id")
    2899                            .dwattr $C$DW$181, DW_AT_type(*$C$DW$T$178)
    2900                            .dwattr $C$DW$181, DW_AT_location[DW_OP_breg13 48]
    2901                    
    2902                    
    2903                    ;*****************************************************************************
