TI ARM Assembler PC v18.1.1 Wed Apr 25 09:49:37 2018

Tools Copyright (c) 1996-2017 Texas Instruments Incorporated
C:\Users\devops\AppData\Local\Temp\2\{20EEA8E7-9EAD-4D8F-95A1-C84FA7AD0574} PAGE    1

       1                    ;******************************************************************************
       2                    ;* TI ARM C/C++ Codegen                                        PC v18.1.1.LTS *
       3                    ;* Date/Time created: Wed Apr 25 09:49:36 2018                                *
       4                    ;******************************************************************************
       5                            .compiler_opts --abi=eabi --arm_vmrs_si_workaround=off --code_state=16 --diag_wrap=off --embed
       6 00000000                   .thumb
       7                    
       8                    $C$DW$CU        .dwtag  DW_TAG_compile_unit
       9                            .dwattr $C$DW$CU, DW_AT_name("../Application/Services/nvoctp.c")
      10                            .dwattr $C$DW$CU, DW_AT_producer("TI TI ARM C/C++ Codegen PC v18.1.1.LTS Copyright (c) 1996-20
      11                            .dwattr $C$DW$CU, DW_AT_TI_version(0x01)
      12                            .dwattr $C$DW$CU, DW_AT_comp_dir("C:\ti\workspace1\sensor_cc1350lp\sensor_cc1350lp")
      13                    
      14                    $C$DW$1 .dwtag  DW_TAG_subprogram
      15                            .dwattr $C$DW$1, DW_AT_name("ti_sysbios_knl_Semaphore_Params_init")
      16                            .dwattr $C$DW$1, DW_AT_TI_symbol_name("ti_sysbios_knl_Semaphore_Params_init")
      17                            .dwattr $C$DW$1, DW_AT_declaration
      18                            .dwattr $C$DW$1, DW_AT_external
      19                            .dwattr $C$DW$1, DW_AT_decl_file("C:/ti/simplelink_cc13x0_sdk_2_10_00_36/kernel/tirtos/package
      20                            .dwattr $C$DW$1, DW_AT_decl_line(0x220)
      21                            .dwattr $C$DW$1, DW_AT_decl_column(0x14)
      22                    $C$DW$2 .dwtag  DW_TAG_formal_parameter
      23                            .dwattr $C$DW$2, DW_AT_type(*$C$DW$T$865)
      24                    
      25                            .dwendtag $C$DW$1
      26                    
      27                    
      28                    $C$DW$3 .dwtag  DW_TAG_subprogram
      29                            .dwattr $C$DW$3, DW_AT_name("NVOCTP_dataChange")
      30                            .dwattr $C$DW$3, DW_AT_TI_symbol_name("NVOCTP_dataChange")
      31                            .dwattr $C$DW$3, DW_AT_type(*$C$DW$T$131)
      32                            .dwattr $C$DW$3, DW_AT_declaration
      33                            .dwattr $C$DW$3, DW_AT_external
      34                            .dwattr $C$DW$3, DW_AT_decl_file("../Application/Services/nvoctp.c")
      35                            .dwattr $C$DW$3, DW_AT_decl_line(0x6a0)
      36                            .dwattr $C$DW$3, DW_AT_decl_column(0x10)
      37                    $C$DW$4 .dwtag  DW_TAG_formal_parameter
      38                            .dwattr $C$DW$4, DW_AT_type(*$C$DW$T$129)
      39                    
      40                    $C$DW$5 .dwtag  DW_TAG_formal_parameter
      41                            .dwattr $C$DW$5, DW_AT_type(*$C$DW$T$129)
      42                    
      43                    $C$DW$6 .dwtag  DW_TAG_formal_parameter
      44                            .dwattr $C$DW$6, DW_AT_type(*$C$DW$T$135)
      45                    
      46                            .dwendtag $C$DW$3
      47                    
      48                    $C$DW$7 .dwtag  DW_TAG_variable
      49                            .dwattr $C$DW$7, DW_AT_name("ICall_enterCriticalSection")
      50                            .dwattr $C$DW$7, DW_AT_TI_symbol_name("ICall_enterCriticalSection")
      51                            .dwattr $C$DW$7, DW_AT_type(*$C$DW$T$309)
      52                            .dwattr $C$DW$7, DW_AT_declaration
      53                            .dwattr $C$DW$7, DW_AT_external
      54                            .dwattr $C$DW$7, DW_AT_decl_file("C:/ti/simplelink_cc13x0_sdk_2_10_00_36/source/ti/ti154stack/
      55                            .dwattr $C$DW$7, DW_AT_decl_line(0x384)
TI ARM Assembler PC v18.1.1 Wed Apr 25 09:49:37 2018

Tools Copyright (c) 1996-2017 Texas Instruments Incorporated
C:\Users\devops\AppData\Local\Temp\2\{20EEA8E7-9EAD-4D8F-95A1-C84FA7AD0574} PAGE    2

      56                            .dwattr $C$DW$7, DW_AT_decl_column(0x16)
      57                    
      58                    $C$DW$8 .dwtag  DW_TAG_variable
      59                            .dwattr $C$DW$8, DW_AT_name("ICall_leaveCriticalSection")
      60                            .dwattr $C$DW$8, DW_AT_TI_symbol_name("ICall_leaveCriticalSection")
      61                            .dwattr $C$DW$8, DW_AT_type(*$C$DW$T$312)
      62                            .dwattr $C$DW$8, DW_AT_declaration
      63                            .dwattr $C$DW$8, DW_AT_external
      64                            .dwattr $C$DW$8, DW_AT_decl_file("C:/ti/simplelink_cc13x0_sdk_2_10_00_36/source/ti/ti154stack/
      65                            .dwattr $C$DW$8, DW_AT_decl_line(0x387)
      66                            .dwattr $C$DW$8, DW_AT_decl_column(0x16)
      67                    
      68 00000000                   .sect   ".const:diagId"
      69                            .clink
      70                            .align  2
      71                            .elfsym diagId,SYM_SIZE(6)
      72 00000000           diagId:
      73 00000000 00000000          .bits   0,8                     ; diagId.systemID @ 0
      74 00000000 00000000          .bits   0,8
      75 00000000 00010000          .bits   1,16                    ; diagId.itemID @ 16
      76 00000004 00000000          .bits   0,16                    ; diagId.subID @ 32
      77                    
      78                    $C$DW$9 .dwtag  DW_TAG_variable
      79                            .dwattr $C$DW$9, DW_AT_name("diagId")
      80                            .dwattr $C$DW$9, DW_AT_TI_symbol_name("diagId")
      81                            .dwattr $C$DW$9, DW_AT_type(*$C$DW$T$1622)
      82                            .dwattr $C$DW$9, DW_AT_location[DW_OP_addr diagId]
      83                            .dwattr $C$DW$9, DW_AT_decl_file("../Application/Services/nvoctp.c")
      84                            .dwattr $C$DW$9, DW_AT_decl_line(0x83)
      85                            .dwattr $C$DW$9, DW_AT_decl_column(0x1e)
      86                    
      87                    
      88                    $C$DW$10        .dwtag  DW_TAG_subprogram
      89                            .dwattr $C$DW$10, DW_AT_name("ti_sysbios_knl_Semaphore_Params__init__S")
      90                            .dwattr $C$DW$10, DW_AT_TI_symbol_name("ti_sysbios_knl_Semaphore_Params__init__S")
      91                            .dwattr $C$DW$10, DW_AT_declaration
      92                            .dwattr $C$DW$10, DW_AT_external
      93                            .dwattr $C$DW$10, DW_AT_decl_file("C:/ti/simplelink_cc13x0_sdk_2_10_00_36/kernel/tirtos/packag
      94                            .dwattr $C$DW$10, DW_AT_decl_line(0x1d2)
      95                            .dwattr $C$DW$10, DW_AT_decl_column(0x13)
      96                    $C$DW$11        .dwtag  DW_TAG_formal_parameter
      97                            .dwattr $C$DW$11, DW_AT_type(*$C$DW$T$391)
      98                    
      99                    $C$DW$12        .dwtag  DW_TAG_formal_parameter
     100                            .dwattr $C$DW$12, DW_AT_type(*$C$DW$T$327)
     101                    
     102                    $C$DW$13        .dwtag  DW_TAG_formal_parameter
     103                            .dwattr $C$DW$13, DW_AT_type(*$C$DW$T$403)
     104                    
     105                    $C$DW$14        .dwtag  DW_TAG_formal_parameter
     106                            .dwattr $C$DW$14, DW_AT_type(*$C$DW$T$403)
     107                    
     108                            .dwendtag $C$DW$10
     109                    
     110                    
TI ARM Assembler PC v18.1.1 Wed Apr 25 09:49:37 2018

Tools Copyright (c) 1996-2017 Texas Instruments Incorporated
C:\Users\devops\AppData\Local\Temp\2\{20EEA8E7-9EAD-4D8F-95A1-C84FA7AD0574} PAGE    3

     111                    $C$DW$15        .dwtag  DW_TAG_subprogram
     112                            .dwattr $C$DW$15, DW_AT_name("ti_sysbios_knl_Semaphore_create")
     113                            .dwattr $C$DW$15, DW_AT_TI_symbol_name("ti_sysbios_knl_Semaphore_create")
     114                            .dwattr $C$DW$15, DW_AT_type(*$C$DW$T$861)
     115                            .dwattr $C$DW$15, DW_AT_declaration
     116                            .dwattr $C$DW$15, DW_AT_external
     117                            .dwattr $C$DW$15, DW_AT_decl_file("C:/ti/simplelink_cc13x0_sdk_2_10_00_36/kernel/tirtos/packag
     118                            .dwattr $C$DW$15, DW_AT_decl_line(0x1a6)
     119                            .dwattr $C$DW$15, DW_AT_decl_column(0x2a)
     120                    $C$DW$16        .dwtag  DW_TAG_formal_parameter
     121                            .dwattr $C$DW$16, DW_AT_type(*$C$DW$T$366)
     122                    
     123                    $C$DW$17        .dwtag  DW_TAG_formal_parameter
     124                            .dwattr $C$DW$17, DW_AT_type(*$C$DW$T$1765)
     125                    
     126                    $C$DW$18        .dwtag  DW_TAG_formal_parameter
     127                            .dwattr $C$DW$18, DW_AT_type(*$C$DW$T$394)
     128                    
     129                            .dwendtag $C$DW$15
     130                    
     131                    
     132                    $C$DW$19        .dwtag  DW_TAG_subprogram
     133                            .dwattr $C$DW$19, DW_AT_name("memset")
     134                            .dwattr $C$DW$19, DW_AT_TI_symbol_name("memset")
     135                            .dwattr $C$DW$19, DW_AT_type(*$C$DW$T$3)
     136                            .dwattr $C$DW$19, DW_AT_declaration
     137                            .dwattr $C$DW$19, DW_AT_external
     138                            .dwattr $C$DW$19, DW_AT_decl_file("C:/ti/ccsv8/tools/compiler/ti-cgt-arm_18.1.1.LTS/include/st
     139                            .dwattr $C$DW$19, DW_AT_decl_line(0x7a)
     140                            .dwattr $C$DW$19, DW_AT_decl_column(0x16)
     141                    $C$DW$20        .dwtag  DW_TAG_formal_parameter
     142                            .dwattr $C$DW$20, DW_AT_type(*$C$DW$T$3)
     143                    
     144                    $C$DW$21        .dwtag  DW_TAG_formal_parameter
     145                            .dwattr $C$DW$21, DW_AT_type(*$C$DW$T$10)
     146                    
     147                    $C$DW$22        .dwtag  DW_TAG_formal_parameter
     148                            .dwattr $C$DW$22, DW_AT_type(*$C$DW$T$256)
     149                    
     150                            .dwendtag $C$DW$19
     151                    
     152                    
     153                    $C$DW$23        .dwtag  DW_TAG_subprogram
     154                            .dwattr $C$DW$23, DW_AT_name("ti_sysbios_knl_Semaphore_pend__E")
     155                            .dwattr $C$DW$23, DW_AT_TI_symbol_name("ti_sysbios_knl_Semaphore_pend__E")
     156                            .dwattr $C$DW$23, DW_AT_type(*$C$DW$T$365)
     157                            .dwattr $C$DW$23, DW_AT_declaration
     158                            .dwattr $C$DW$23, DW_AT_external
     159                            .dwattr $C$DW$23, DW_AT_decl_file("C:/ti/simplelink_cc13x0_sdk_2_10_00_36/kernel/tirtos/packag
     160                            .dwattr $C$DW$23, DW_AT_decl_line(0x1dc)
     161                            .dwattr $C$DW$23, DW_AT_decl_column(0x13)
     162                    $C$DW$24        .dwtag  DW_TAG_formal_parameter
     163                            .dwattr $C$DW$24, DW_AT_type(*$C$DW$T$861)
     164                    
     165                    $C$DW$25        .dwtag  DW_TAG_formal_parameter
TI ARM Assembler PC v18.1.1 Wed Apr 25 09:49:37 2018

Tools Copyright (c) 1996-2017 Texas Instruments Incorporated
C:\Users\devops\AppData\Local\Temp\2\{20EEA8E7-9EAD-4D8F-95A1-C84FA7AD0574} PAGE    4

     166                            .dwattr $C$DW$25, DW_AT_type(*$C$DW$T$427)
     167                    
     168                            .dwendtag $C$DW$23
     169                    
     170                    
     171                    $C$DW$26        .dwtag  DW_TAG_subprogram
     172                            .dwattr $C$DW$26, DW_AT_name("ti_sysbios_knl_Semaphore_post__E")
     173                            .dwattr $C$DW$26, DW_AT_TI_symbol_name("ti_sysbios_knl_Semaphore_post__E")
     174                            .dwattr $C$DW$26, DW_AT_declaration
     175                            .dwattr $C$DW$26, DW_AT_external
     176                            .dwattr $C$DW$26, DW_AT_decl_file("C:/ti/simplelink_cc13x0_sdk_2_10_00_36/kernel/tirtos/packag
     177                            .dwattr $C$DW$26, DW_AT_decl_line(0x1e1)
     178                            .dwattr $C$DW$26, DW_AT_decl_column(0x13)
     179                    $C$DW$27        .dwtag  DW_TAG_formal_parameter
     180                            .dwattr $C$DW$27, DW_AT_type(*$C$DW$T$861)
     181                    
     182                            .dwendtag $C$DW$26
     183                    
     184                    
     185                    $C$DW$28        .dwtag  DW_TAG_subprogram
     186                            .dwattr $C$DW$28, DW_AT_name("PWRMON_check")
     187                            .dwattr $C$DW$28, DW_AT_TI_symbol_name("PWRMON_check")
     188                            .dwattr $C$DW$28, DW_AT_type(*$C$DW$T$277)
     189                            .dwattr $C$DW$28, DW_AT_declaration
     190                            .dwattr $C$DW$28, DW_AT_external
     191                            .dwattr $C$DW$28, DW_AT_decl_file("C:/ti/simplelink_cc13x0_sdk_2_10_00_36/source/ti/ti154stack
     192                            .dwattr $C$DW$28, DW_AT_decl_line(0x63)
     193                            .dwattr $C$DW$28, DW_AT_decl_column(0x0d)
     194                    $C$DW$29        .dwtag  DW_TAG_formal_parameter
     195                            .dwattr $C$DW$29, DW_AT_type(*$C$DW$T$129)
     196                    
     197                            .dwendtag $C$DW$28
     198                    
     199                    
     200                    $C$DW$30        .dwtag  DW_TAG_subprogram
     201                            .dwattr $C$DW$30, DW_AT_name("NOROM_FlashProgram")
     202                            .dwattr $C$DW$30, DW_AT_TI_symbol_name("NOROM_FlashProgram")
     203                            .dwattr $C$DW$30, DW_AT_type(*$C$DW$T$127)
     204                            .dwattr $C$DW$30, DW_AT_declaration
     205                            .dwattr $C$DW$30, DW_AT_external
     206                            .dwattr $C$DW$30, DW_AT_decl_file("C:/ti/simplelink_cc13x0_sdk_2_10_00_36/source/ti/devices/cc
     207                            .dwattr $C$DW$30, DW_AT_decl_line(0x2ca)
     208                            .dwattr $C$DW$30, DW_AT_decl_column(0x11)
     209                    $C$DW$31        .dwtag  DW_TAG_formal_parameter
     210                            .dwattr $C$DW$31, DW_AT_type(*$C$DW$T$135)
     211                    
     212                    $C$DW$32        .dwtag  DW_TAG_formal_parameter
     213                            .dwattr $C$DW$32, DW_AT_type(*$C$DW$T$127)
     214                    
     215                    $C$DW$33        .dwtag  DW_TAG_formal_parameter
     216                            .dwattr $C$DW$33, DW_AT_type(*$C$DW$T$127)
     217                    
     218                            .dwendtag $C$DW$30
     219                    
     220                    
TI ARM Assembler PC v18.1.1 Wed Apr 25 09:49:37 2018

Tools Copyright (c) 1996-2017 Texas Instruments Incorporated
C:\Users\devops\AppData\Local\Temp\2\{20EEA8E7-9EAD-4D8F-95A1-C84FA7AD0574} PAGE    5

     221                    $C$DW$34        .dwtag  DW_TAG_subprogram
     222                            .dwattr $C$DW$34, DW_AT_name("NOROM_FlashSectorErase")
     223                            .dwattr $C$DW$34, DW_AT_TI_symbol_name("NOROM_FlashSectorErase")
     224                            .dwattr $C$DW$34, DW_AT_type(*$C$DW$T$127)
     225                            .dwattr $C$DW$34, DW_AT_declaration
     226                            .dwattr $C$DW$34, DW_AT_external
     227                            .dwattr $C$DW$34, DW_AT_decl_file("C:/ti/simplelink_cc13x0_sdk_2_10_00_36/source/ti/devices/cc
     228                            .dwattr $C$DW$34, DW_AT_decl_line(0x2a0)
     229                            .dwattr $C$DW$34, DW_AT_decl_column(0x11)
     230                    $C$DW$35        .dwtag  DW_TAG_formal_parameter
     231                            .dwattr $C$DW$35, DW_AT_type(*$C$DW$T$127)
     232                    
     233                            .dwendtag $C$DW$34
     234                    
     235                    
     236                    $C$DW$36        .dwtag  DW_TAG_subprogram
     237                            .dwattr $C$DW$36, DW_AT_name("NOROM_VIMSModeGet")
     238                            .dwattr $C$DW$36, DW_AT_TI_symbol_name("NOROM_VIMSModeGet")
     239                            .dwattr $C$DW$36, DW_AT_type(*$C$DW$T$127)
     240                            .dwattr $C$DW$36, DW_AT_declaration
     241                            .dwattr $C$DW$36, DW_AT_external
     242                            .dwattr $C$DW$36, DW_AT_decl_file("C:/ti/simplelink_cc13x0_sdk_2_10_00_36/source/ti/devices/cc
     243                            .dwattr $C$DW$36, DW_AT_decl_line(0xe2)
     244                            .dwattr $C$DW$36, DW_AT_decl_column(0x11)
     245                    $C$DW$37        .dwtag  DW_TAG_formal_parameter
     246                            .dwattr $C$DW$37, DW_AT_type(*$C$DW$T$127)
     247                    
     248                            .dwendtag $C$DW$36
     249                    
     250 00000000                   .sect   ".data:$O1$$", RW
     251                            .clink
     252                            .align  4
     253                            .elfsym ||$O1$$||,SYM_SIZE(12)
     254 00000000           ||$O1$$||:
     255 00000000 0000001D          .bits   29,8                    ; $O1$$.nvBegPage @ 0
     256 00000000 00001E1D          .bits   30,8                    ; $O1$$.nvEndPage @ 8
     257 00000000 00001E1D          .bits   0,16
     258 00000004 00000003          .bits   3,8                     ; $O1$$.failF @ 32
     259 00000005                   .space  7
     260                    
     261                    
     262                    ;*********************************************************************
     263                    ;* GROUPED GLOBALS FOR $O1$$                                         *
     264                    ;*********************************************************************
     265          00000000! nvBegPage:      .set    ||$O1$$||+0
     266                    $C$DW$38        .dwtag  DW_TAG_variable
     267                            .dwattr $C$DW$38, DW_AT_name("nvBegPage")
     268                            .dwattr $C$DW$38, DW_AT_TI_symbol_name("nvBegPage")
     269                            .dwattr $C$DW$38, DW_AT_type(*$C$DW$T$1106)
     270                            .dwattr $C$DW$38, DW_AT_location[DW_OP_addr nvBegPage]
     271                            .dwattr $C$DW$38, DW_AT_decl_file("../Application/Services/nvoctp.c")
     272                            .dwattr $C$DW$38, DW_AT_decl_line(0x123)
     273                            .dwattr $C$DW$38, DW_AT_decl_column(0x10)
     274                    
     275          00000001! nvEndPage:      .set    ||$O1$$||+1
TI ARM Assembler PC v18.1.1 Wed Apr 25 09:49:37 2018

Tools Copyright (c) 1996-2017 Texas Instruments Incorporated
C:\Users\devops\AppData\Local\Temp\2\{20EEA8E7-9EAD-4D8F-95A1-C84FA7AD0574} PAGE    6

     276                    $C$DW$39        .dwtag  DW_TAG_variable
     277                            .dwattr $C$DW$39, DW_AT_name("nvEndPage")
     278                            .dwattr $C$DW$39, DW_AT_TI_symbol_name("nvEndPage")
     279                            .dwattr $C$DW$39, DW_AT_type(*$C$DW$T$1106)
     280                            .dwattr $C$DW$39, DW_AT_location[DW_OP_addr nvEndPage]
     281                            .dwattr $C$DW$39, DW_AT_decl_file("../Application/Services/nvoctp.c")
     282                            .dwattr $C$DW$39, DW_AT_decl_line(0x124)
     283                            .dwattr $C$DW$39, DW_AT_decl_column(0x10)
     284                    
     285          00000002! activePg:       .set    ||$O1$$||+2
     286                    $C$DW$40        .dwtag  DW_TAG_variable
     287                            .dwattr $C$DW$40, DW_AT_name("activePg")
     288                            .dwattr $C$DW$40, DW_AT_TI_symbol_name("activePg")
     289                            .dwattr $C$DW$40, DW_AT_type(*$C$DW$T$131)
     290                            .dwattr $C$DW$40, DW_AT_location[DW_OP_addr activePg]
     291                            .dwattr $C$DW$40, DW_AT_decl_file("../Application/Services/nvoctp.c")
     292                            .dwattr $C$DW$40, DW_AT_decl_line(0x127)
     293                            .dwattr $C$DW$40, DW_AT_decl_column(0x10)
     294                    
     295          00000003! pgCycle:        .set    ||$O1$$||+3
     296                    $C$DW$41        .dwtag  DW_TAG_variable
     297                            .dwattr $C$DW$41, DW_AT_name("pgCycle")
     298                            .dwattr $C$DW$41, DW_AT_TI_symbol_name("pgCycle")
     299                            .dwattr $C$DW$41, DW_AT_type(*$C$DW$T$131)
     300                            .dwattr $C$DW$41, DW_AT_location[DW_OP_addr pgCycle]
     301                            .dwattr $C$DW$41, DW_AT_decl_file("../Application/Services/nvoctp.c")
     302                            .dwattr $C$DW$41, DW_AT_decl_line(0x12e)
     303                            .dwattr $C$DW$41, DW_AT_decl_column(0x10)
     304                    
     305          00000004! failF:  .set    ||$O1$$||+4
     306                    $C$DW$42        .dwtag  DW_TAG_variable
     307                            .dwattr $C$DW$42, DW_AT_name("failF")
     308                            .dwattr $C$DW$42, DW_AT_TI_symbol_name("failF")
     309                            .dwattr $C$DW$42, DW_AT_type(*$C$DW$T$131)
     310                            .dwattr $C$DW$42, DW_AT_location[DW_OP_addr failF]
     311                            .dwattr $C$DW$42, DW_AT_decl_file("../Application/Services/nvoctp.c")
     312                            .dwattr $C$DW$42, DW_AT_decl_line(0x133)
     313                            .dwattr $C$DW$42, DW_AT_decl_column(0x10)
     314                    
     315          00000005! failW:  .set    ||$O1$$||+5
     316                    $C$DW$43        .dwtag  DW_TAG_variable
     317                            .dwattr $C$DW$43, DW_AT_name("failW")
     318                            .dwattr $C$DW$43, DW_AT_TI_symbol_name("failW")
     319                            .dwattr $C$DW$43, DW_AT_type(*$C$DW$T$131)
     320                            .dwattr $C$DW$43, DW_AT_location[DW_OP_addr failW]
     321                            .dwattr $C$DW$43, DW_AT_decl_file("../Application/Services/nvoctp.c")
     322                            .dwattr $C$DW$43, DW_AT_decl_line(0x138)
     323                            .dwattr $C$DW$43, DW_AT_decl_column(0x10)
     324                    
     325          00000006! pgOff:  .set    ||$O1$$||+6
     326                    $C$DW$44        .dwtag  DW_TAG_variable
     327                            .dwattr $C$DW$44, DW_AT_name("pgOff")
     328                            .dwattr $C$DW$44, DW_AT_TI_symbol_name("pgOff")
     329                            .dwattr $C$DW$44, DW_AT_type(*$C$DW$T$129)
     330                            .dwattr $C$DW$44, DW_AT_location[DW_OP_addr pgOff]
TI ARM Assembler PC v18.1.1 Wed Apr 25 09:49:37 2018

Tools Copyright (c) 1996-2017 Texas Instruments Incorporated
C:\Users\devops\AppData\Local\Temp\2\{20EEA8E7-9EAD-4D8F-95A1-C84FA7AD0574} PAGE    7

     331                            .dwattr $C$DW$44, DW_AT_decl_file("../Application/Services/nvoctp.c")
     332                            .dwattr $C$DW$44, DW_AT_decl_line(0x12a)
     333                            .dwattr $C$DW$44, DW_AT_decl_column(0x11)
     334                    
     335          00000008! nvMutex:        .set    ||$O1$$||+8
     336                    $C$DW$45        .dwtag  DW_TAG_variable
     337                            .dwattr $C$DW$45, DW_AT_name("nvMutex")
     338                            .dwattr $C$DW$45, DW_AT_TI_symbol_name("nvMutex")
     339                            .dwattr $C$DW$45, DW_AT_type(*$C$DW$T$861)
     340                            .dwattr $C$DW$45, DW_AT_location[DW_OP_addr nvMutex]
     341                            .dwattr $C$DW$45, DW_AT_decl_file("../Application/Services/nvoctp.c")
     342                            .dwattr $C$DW$45, DW_AT_decl_line(0x13b)
     343                            .dwattr $C$DW$45, DW_AT_decl_column(0x19)
     344                    
     345                    ;       C:\ti\ccsv8\tools\compiler\ti-cgt-arm_18.1.1.LTS\bin\armopt.exe C:/ti/workspace1/sensor_cc1350
     346 00000000                   .sect   ".text:NVOCTP_flashRead"
     347                            .clink
     348                            .thumbfunc NVOCTP_flashRead
     349 00000000                   .thumb
     350                    
     351                    $C$DW$46        .dwtag  DW_TAG_subprogram
     352                            .dwattr $C$DW$46, DW_AT_name("NVOCTP_flashRead")
     353                            .dwattr $C$DW$46, DW_AT_low_pc(NVOCTP_flashRead)
     354                            .dwattr $C$DW$46, DW_AT_high_pc(0x00)
     355                            .dwattr $C$DW$46, DW_AT_TI_symbol_name("NVOCTP_flashRead")
     356                            .dwattr $C$DW$46, DW_AT_TI_begin_file("../Application/Services/nvoctp.c")
     357                            .dwattr $C$DW$46, DW_AT_TI_begin_line(0x6e3)
     358                            .dwattr $C$DW$46, DW_AT_TI_begin_column(0x0d)
     359                            .dwattr $C$DW$46, DW_AT_decl_file("../Application/Services/nvoctp.c")
     360                            .dwattr $C$DW$46, DW_AT_decl_line(0x6e3)
     361                            .dwattr $C$DW$46, DW_AT_decl_column(0x0d)
     362                            .dwattr $C$DW$46, DW_AT_TI_max_frame_size(0x00)
     363                            .dwpsn  file "../Application/Services/nvoctp.c",line 1767,column 1,is_stmt,address NVOCTP_flas
     364                    
     365                            .dwfde $C$DW$CIE, NVOCTP_flashRead
     366                    $C$DW$47        .dwtag  DW_TAG_formal_parameter
     367                            .dwattr $C$DW$47, DW_AT_name("pg")
     368                            .dwattr $C$DW$47, DW_AT_TI_symbol_name("pg")
     369                            .dwattr $C$DW$47, DW_AT_type(*$C$DW$T$131)
     370                            .dwattr $C$DW$47, DW_AT_location[DW_OP_reg0]
     371                    
     372                    $C$DW$48        .dwtag  DW_TAG_formal_parameter
     373                            .dwattr $C$DW$48, DW_AT_name("ofs")
     374                            .dwattr $C$DW$48, DW_AT_TI_symbol_name("ofs")
     375                            .dwattr $C$DW$48, DW_AT_type(*$C$DW$T$129)
     376                            .dwattr $C$DW$48, DW_AT_location[DW_OP_reg1]
     377                    
     378                    $C$DW$49        .dwtag  DW_TAG_formal_parameter
     379                            .dwattr $C$DW$49, DW_AT_name("num")
     380                            .dwattr $C$DW$49, DW_AT_TI_symbol_name("num")
     381                            .dwattr $C$DW$49, DW_AT_type(*$C$DW$T$129)
     382                            .dwattr $C$DW$49, DW_AT_location[DW_OP_reg2]
     383                    
     384                    $C$DW$50        .dwtag  DW_TAG_formal_parameter
     385                            .dwattr $C$DW$50, DW_AT_name("pBuf")
TI ARM Assembler PC v18.1.1 Wed Apr 25 09:49:37 2018

Tools Copyright (c) 1996-2017 Texas Instruments Incorporated
C:\Users\devops\AppData\Local\Temp\2\{20EEA8E7-9EAD-4D8F-95A1-C84FA7AD0574} PAGE    8

     386                            .dwattr $C$DW$50, DW_AT_TI_symbol_name("pBuf")
     387                            .dwattr $C$DW$50, DW_AT_type(*$C$DW$T$135)
     388                            .dwattr $C$DW$50, DW_AT_location[DW_OP_reg3]
     389                    
     390                    
     391                    ;*****************************************************************************
     392                    ;* FUNCTION NAME: NVOCTP_flashRead                                           *
     393                    ;*                                                                           *
     394                    ;*   Regs Modified     : A1,A2,A3,A4,SR                                      *
     395                    ;*   Regs Used         : A1,A2,A3,A4,LR,SR                                   *
     396                    ;*   Local Frame Size  : 0 Args + 0 Auto + 0 Save = 0 byte                   *
     397                    ;*****************************************************************************
     398                    NVOCTP_flashRead:
     399                    ;* --------------------------------------------------------------------------*
     400                    ;* A1    assigned to pg
     401                    $C$DW$51        .dwtag  DW_TAG_variable
     402                            .dwattr $C$DW$51, DW_AT_name("pg")
     403                            .dwattr $C$DW$51, DW_AT_TI_symbol_name("pg")
     404                            .dwattr $C$DW$51, DW_AT_type(*$C$DW$T$1106)
     405                            .dwattr $C$DW$51, DW_AT_location[DW_OP_reg0]
     406                    
     407                    ;* A2    assigned to ofs
     408                    $C$DW$52        .dwtag  DW_TAG_variable
     409                            .dwattr $C$DW$52, DW_AT_name("ofs")
     410                            .dwattr $C$DW$52, DW_AT_TI_symbol_name("ofs")
     411                            .dwattr $C$DW$52, DW_AT_type(*$C$DW$T$1144)
     412                            .dwattr $C$DW$52, DW_AT_location[DW_OP_reg1]
     413                    
     414                    ;* A3    assigned to num
     415                    $C$DW$53        .dwtag  DW_TAG_variable
     416                            .dwattr $C$DW$53, DW_AT_name("num")
     417                            .dwattr $C$DW$53, DW_AT_TI_symbol_name("num")
     418                            .dwattr $C$DW$53, DW_AT_type(*$C$DW$T$129)
     419                            .dwattr $C$DW$53, DW_AT_location[DW_OP_reg2]
     420                    
     421                    ;* A4    assigned to pBuf
     422                    $C$DW$54        .dwtag  DW_TAG_variable
     423                            .dwattr $C$DW$54, DW_AT_name("pBuf")
     424                            .dwattr $C$DW$54, DW_AT_TI_symbol_name("pBuf")
     425                            .dwattr $C$DW$54, DW_AT_type(*$C$DW$T$135)
     426                            .dwattr $C$DW$54, DW_AT_location[DW_OP_reg3]
     427                    
     428                    ;* A2    assigned to addr
     429                    $C$DW$55        .dwtag  DW_TAG_variable
     430                            .dwattr $C$DW$55, DW_AT_name("addr")
     431                            .dwattr $C$DW$55, DW_AT_TI_symbol_name("addr")
     432                            .dwattr $C$DW$55, DW_AT_type(*$C$DW$T$1109)
     433                            .dwattr $C$DW$55, DW_AT_location[DW_OP_reg1]
     434                    
     435                            .dwcfi  cfa_offset, 0
     436                            .dwpsn  file "../Application/Services/nvoctp.c",line 1769,column 17,is_stmt,isa 1
     437 00000000 3100EB01          ADD       A2, A2, A1, LSL #12   ; [DPU_V7M3_PIPE] |1769|  ; [KEEP 32-BIT INS]
     438                            .dwpsn  file "../Application/Services/nvoctp.c",line 1771,column 5,is_stmt,isa 1
     439 00000004 E003              B         ||$C$L2||             ; [DPU_V7M3_PIPE] |1771|  ; [ORIG 16-BIT INS]
     440                            ; BRANCH OCCURS {||$C$L2||}      ; [] |1771| 
TI ARM Assembler PC v18.1.1 Wed Apr 25 09:49:37 2018

Tools Copyright (c) 1996-2017 Texas Instruments Incorporated
C:\Users\devops\AppData\Local\Temp\2\{20EEA8E7-9EAD-4D8F-95A1-C84FA7AD0574} PAGE    9

     441                    ;* --------------------------------------------------------------------------*
     442 00000006           ||$C$L1||:    
     443                            .dwpsn  file "../Application/Services/nvoctp.c",line 1773,column 9,is_stmt,isa 1
     444 00000006 0B01F811          LDRB      A1, [A2], #1          ; [DPU_V7M3_PIPE] |1773|  ; [KEEP 32-BIT INS]
     445 0000000a 0B01F803          STRB      A1, [A4], #1          ; [DPU_V7M3_PIPE] |1773|  ; [KEEP 32-BIT INS]
     446                    ;* --------------------------------------------------------------------------*
     447                    ;*   BEGIN LOOP ||$C$L2||
     448                    ;* --------------------------------------------------------------------------*
     449 0000000e           ||$C$L2||:    
     450                            .dwpsn  file "../Application/Services/nvoctp.c",line 1771,column 5,is_stmt,isa 1
     451 0000000e 4610              MOV       A1, A3                ; [DPU_V7M3_PIPE] |1771|  ; [ORIG 16-BIT INS]
     452 00000010 1E42              SUBS      A3, A1, #1            ; [DPU_V7M3_PIPE] |1771|  ; [ORIG 16-BIT INS]
     453 00000012 2800              CMP       A1, #0                ; [DPU_V7M3_PIPE] |1771|  ; [ORIG 16-BIT INS]
     454 00000014 B292              UXTH      A3, A3                ; [DPU_V7M3_PIPE] |1771|  ; [ORIG 16-BIT INS]
     455 00000016 D1F6              BNE       ||$C$L1||             ; [DPU_V7M3_PIPE] |1771|  ; [ORIG 16-BIT INS]
     456                            ; BRANCHCC OCCURS {||$C$L1||}    ; [] |1771| 
     457                    ;* --------------------------------------------------------------------------*
     458                    $C$DW$56        .dwtag  DW_TAG_TI_branch
     459                            .dwattr $C$DW$56, DW_AT_low_pc(0x00)
     460                            .dwattr $C$DW$56, DW_AT_TI_return
     461                    
     462 00000018 4770              BX        LR                    ; [DPU_V7M3_PIPE]  ; [ORIG 16-BIT INS]
     463                            ; BRANCH OCCURS                  ; [] 
     464                            .dwattr $C$DW$46, DW_AT_TI_end_file("../Application/Services/nvoctp.c")
     465                            .dwattr $C$DW$46, DW_AT_TI_end_line(0x6ef)
     466                            .dwattr $C$DW$46, DW_AT_TI_end_column(0x01)
     467                            .dwendentry
     468                            .dwendtag $C$DW$46
     469                    
     470 00000000                   .sect   ".text:NVOCTP_readHeader"
     471                            .clink
     472                            .thumbfunc NVOCTP_readHeader
     473 00000000                   .thumb
     474                    
     475                    $C$DW$57        .dwtag  DW_TAG_subprogram
     476                            .dwattr $C$DW$57, DW_AT_name("NVOCTP_readHeader")
     477                            .dwattr $C$DW$57, DW_AT_low_pc(NVOCTP_readHeader)
     478                            .dwattr $C$DW$57, DW_AT_high_pc(0x00)
     479                            .dwattr $C$DW$57, DW_AT_TI_symbol_name("NVOCTP_readHeader")
     480                            .dwattr $C$DW$57, DW_AT_TI_begin_file("../Application/Services/nvoctp.c")
     481                            .dwattr $C$DW$57, DW_AT_TI_begin_line(0x4c3)
     482                            .dwattr $C$DW$57, DW_AT_TI_begin_column(0x0d)
     483                            .dwattr $C$DW$57, DW_AT_decl_file("../Application/Services/nvoctp.c")
     484                            .dwattr $C$DW$57, DW_AT_decl_line(0x4c3)
     485                            .dwattr $C$DW$57, DW_AT_decl_column(0x0d)
     486                            .dwattr $C$DW$57, DW_AT_TI_max_frame_size(0x18)
     487                            .dwpsn  file "../Application/Services/nvoctp.c",line 1222,column 1,is_stmt,address NVOCTP_read
     488                    
     489                            .dwfde $C$DW$CIE, NVOCTP_readHeader
     490                    $C$DW$58        .dwtag  DW_TAG_formal_parameter
     491                            .dwattr $C$DW$58, DW_AT_name("pg")
     492                            .dwattr $C$DW$58, DW_AT_TI_symbol_name("pg")
     493                            .dwattr $C$DW$58, DW_AT_type(*$C$DW$T$131)
     494                            .dwattr $C$DW$58, DW_AT_location[DW_OP_reg0]
     495                    
TI ARM Assembler PC v18.1.1 Wed Apr 25 09:49:37 2018

Tools Copyright (c) 1996-2017 Texas Instruments Incorporated
C:\Users\devops\AppData\Local\Temp\2\{20EEA8E7-9EAD-4D8F-95A1-C84FA7AD0574} PAGE   10

     496                    $C$DW$59        .dwtag  DW_TAG_formal_parameter
     497                            .dwattr $C$DW$59, DW_AT_name("ofs")
     498                            .dwattr $C$DW$59, DW_AT_TI_symbol_name("ofs")
     499                            .dwattr $C$DW$59, DW_AT_type(*$C$DW$T$129)
     500                            .dwattr $C$DW$59, DW_AT_location[DW_OP_reg1]
     501                    
     502                    $C$DW$60        .dwtag  DW_TAG_formal_parameter
     503                            .dwattr $C$DW$60, DW_AT_name("pHdr")
     504                            .dwattr $C$DW$60, DW_AT_TI_symbol_name("pHdr")
     505                            .dwattr $C$DW$60, DW_AT_type(*$C$DW$T$134)
     506                            .dwattr $C$DW$60, DW_AT_location[DW_OP_reg2]
     507                    
     508                    
     509                    ;*****************************************************************************
     510                    ;* FUNCTION NAME: NVOCTP_readHeader                                          *
     511                    ;*                                                                           *
     512                    ;*   Regs Modified     : A1,A2,A3,A4,V1,V2,V9,SP,LR,SR                       *
     513                    ;*   Regs Used         : A1,A2,A3,A4,V1,V2,V9,SP,LR,SR                       *
     514                    ;*   Local Frame Size  : 0 Args + 8 Auto + 12 Save = 20 byte                 *
     515                    ;*****************************************************************************
     516                    NVOCTP_readHeader:
     517                    ;* --------------------------------------------------------------------------*
     518                    $C$DW$61        .dwtag  DW_TAG_variable
     519                            .dwattr $C$DW$61, DW_AT_name("cHdr")
     520                            .dwattr $C$DW$61, DW_AT_TI_symbol_name("cHdr")
     521                            .dwattr $C$DW$61, DW_AT_type(*$C$DW$T$1102)
     522                            .dwattr $C$DW$61, DW_AT_location[DW_OP_breg13 0]
     523                    
     524                    ;* A4    assigned to $O$C1
     525                    ;* A3    assigned to $O$v3
     526                    ;* A2    assigned to $O$v2
     527                    ;* A1    assigned to $O$v1
     528                    ;* V2    assigned to ofs
     529                    $C$DW$62        .dwtag  DW_TAG_variable
     530                            .dwattr $C$DW$62, DW_AT_name("ofs")
     531                            .dwattr $C$DW$62, DW_AT_TI_symbol_name("ofs")
     532                            .dwattr $C$DW$62, DW_AT_type(*$C$DW$T$1144)
     533                            .dwattr $C$DW$62, DW_AT_location[DW_OP_reg5]
     534                    
     535                    ;* V1    assigned to pHdr
     536                    $C$DW$63        .dwtag  DW_TAG_variable
     537                            .dwattr $C$DW$63, DW_AT_name("pHdr")
     538                            .dwattr $C$DW$63, DW_AT_TI_symbol_name("pHdr")
     539                            .dwattr $C$DW$63, DW_AT_type(*$C$DW$T$707)
     540                            .dwattr $C$DW$63, DW_AT_location[DW_OP_reg4]
     541                    
     542                            .dwcfi  cfa_offset, 0
     543 00000000 B53E              PUSH      {A2, A3, A4, V1, V2, LR} ; [DPU_V7M3_PIPE]  ; [ORIG 16-BIT INS]
     544                            .dwcfi  cfa_offset, 24
     545                            .dwcfi  save_reg_to_mem, 14, -4
     546                            .dwcfi  save_reg_to_mem, 5, -8
     547                            .dwcfi  save_reg_to_mem, 4, -12
     548                            .dwcfi  save_reg_to_mem, 3, -16
     549                            .dwcfi  save_reg_to_mem, 2, -20
     550                            .dwcfi  save_reg_to_mem, 1, -24
TI ARM Assembler PC v18.1.1 Wed Apr 25 09:49:37 2018

Tools Copyright (c) 1996-2017 Texas Instruments Incorporated
C:\Users\devops\AppData\Local\Temp\2\{20EEA8E7-9EAD-4D8F-95A1-C84FA7AD0574} PAGE   11

     551 00000002 4614              MOV       V1, A3                ; [DPU_V7M3_PIPE] |1222|  ; [ORIG 16-BIT INS]
     552 00000004 460D              MOV       V2, A2                ; [DPU_V7M3_PIPE] |1222|  ; [ORIG 16-BIT INS]
     553                            .dwpsn  file "../Application/Services/nvoctp.c",line 1226,column 5,is_stmt,isa 1
     554 00000006 2205              MOVS      A3, #5                ; [DPU_V7M3_PIPE] |1226|  ; [ORIG 16-BIT INS]
     555 00000008 466B              MOV       A4, SP                ; [DPU_V7M3_PIPE] |1226|  ; [ORIG 16-BIT INS]
     556                    $C$DW$64        .dwtag  DW_TAG_TI_branch
     557                            .dwattr $C$DW$64, DW_AT_low_pc(0x00)
     558                            .dwattr $C$DW$64, DW_AT_name("NVOCTP_flashRead")
     559                            .dwattr $C$DW$64, DW_AT_TI_call
     560                    
     561 0000000a FFFEF7FF!         BL        NVOCTP_flashRead      ; [DPU_V7M3_PIPE] |1226|  ; [KEEP 32-BIT INS]
     562                            ; CALL OCCURS {NVOCTP_flashRead }  ; [] |1226| 
     563                            .dwpsn  file "../Application/Services/nvoctp.c",line 1235,column 5,is_stmt,isa 1
     564 0000000e 1003F89D          LDRB      A2, [SP, #3]          ; [DPU_V7M3_PIPE] |1235|  ; [KEEP 32-BIT INS]
     565 00000012 0004F89D          LDRB      A1, [SP, #4]          ; [DPU_V7M3_PIPE] |1235|  ; [KEEP 32-BIT INS]
     566                            .dwpsn  file "../Application/Services/nvoctp.c",line 1234,column 5,is_stmt,isa 1
     567 00000016 3004F89D          LDRB      A4, [SP, #4]          ; [DPU_V7M3_PIPE] |1234|  ; [KEEP 32-BIT INS]
     568                            .dwpsn  file "../Application/Services/nvoctp.c",line 1229,column 5,is_stmt,isa 1
     569 0000001a 8165              STRH      V2, [V1, #10]         ; [DPU_V7M3_PIPE] |1229|  ; [ORIG 16-BIT INS]
     570                            .dwpsn  file "../Application/Services/nvoctp.c",line 1235,column 5,is_stmt,isa 1
     571 0000001c 010FF001          AND       A2, A2, #15           ; [DPU_V7M3_PIPE] |1235|  ; [KEEP 32-BIT INS]
     572 00000020 1080              ASRS      A1, A1, #2            ; [DPU_V7M3_PIPE] |1235|  ; [ORIG 16-BIT INS]
     573 00000022 1081EA40          ORR       A1, A1, A2, LSL #6    ; [DPU_V7M3_PIPE] |1235|  ; [KEEP 32-BIT INS]
     574                            .dwpsn  file "../Application/Services/nvoctp.c",line 1237,column 5,is_stmt,isa 1
     575 00000026 5001F89D          LDRB      V2, [SP, #1]          ; [DPU_V7M3_PIPE] |1237|  ; [KEEP 32-BIT INS]
     576                            .dwpsn  file "../Application/Services/nvoctp.c",line 1235,column 5,is_stmt,isa 1
     577 0000002a 81A0              STRH      A1, [V1, #12]         ; [DPU_V7M3_PIPE] |1235|  ; [ORIG 16-BIT INS]
     578                            .dwpsn  file "../Application/Services/nvoctp.c",line 1236,column 5,is_stmt,isa 1
     579 0000002c 1003F89D          LDRB      A2, [SP, #3]          ; [DPU_V7M3_PIPE] |1236|  ; [KEEP 32-BIT INS]
     580 00000030 0002F89D          LDRB      A1, [SP, #2]          ; [DPU_V7M3_PIPE] |1236|  ; [KEEP 32-BIT INS]
     581                            .dwpsn  file "../Application/Services/nvoctp.c",line 1234,column 5,is_stmt,isa 1
     582 00000034 0303F003          AND       A4, A4, #3            ; [DPU_V7M3_PIPE] |1234|  ; [KEEP 32-BIT INS]
     583                            .dwpsn  file "../Application/Services/nvoctp.c",line 1236,column 5,is_stmt,isa 1
     584 00000038 110A              ASRS      A3, A2, #4            ; [DPU_V7M3_PIPE] |1236|  ; [ORIG 16-BIT INS]
     585 0000003a 0680              LSLS      A1, A1, #26           ; [DPU_V7M3_PIPE] |1236|  ; [ORIG 16-BIT INS]
     586 0000003c 5290EA42          ORR       A3, A3, A1, LSR #22   ; [DPU_V7M3_PIPE] |1236|  ; [KEEP 32-BIT INS]
     587                            .dwpsn  file "../Application/Services/nvoctp.c",line 1237,column 5,is_stmt,isa 1
     588 00000040 0002F89D          LDRB      A1, [SP, #2]          ; [DPU_V7M3_PIPE] |1237|  ; [KEEP 32-BIT INS]
     589                            .dwpsn  file "../Application/Services/nvoctp.c",line 1234,column 5,is_stmt,isa 1
     590 00000044 7263              STRB      A4, [V1, #9]          ; [DPU_V7M3_PIPE] |1234|  ; [ORIG 16-BIT INS]
     591                            .dwpsn  file "../Application/Services/nvoctp.c",line 1237,column 5,is_stmt,isa 1
     592 00000046 1181              ASRS      A2, A1, #6            ; [DPU_V7M3_PIPE] |1237|  ; [ORIG 16-BIT INS]
     593                            .dwpsn  file "../Application/Services/nvoctp.c",line 1236,column 5,is_stmt,isa 1
     594 00000048 80A2              STRH      A3, [V1, #4]          ; [DPU_V7M3_PIPE] |1236|  ; [ORIG 16-BIT INS]
     595                            .dwpsn  file "../Application/Services/nvoctp.c",line 1237,column 5,is_stmt,isa 1
     596 0000004a 0185EA41          ORR       A2, A2, V2, LSL #2    ; [DPU_V7M3_PIPE] |1237|  ; [KEEP 32-BIT INS]
     597                            .dwpsn  file "../Application/Services/nvoctp.c",line 1238,column 5,is_stmt,isa 1
     598 0000004e 0000F89D          LDRB      A1, [SP, #0]          ; [DPU_V7M3_PIPE] |1238|  ; [KEEP 32-BIT INS]
     599                            .dwpsn  file "../Application/Services/nvoctp.c",line 1239,column 5,is_stmt,isa 1
     600 00000052 5000F89D          LDRB      V2, [SP, #0]          ; [DPU_V7M3_PIPE] |1239|  ; [KEEP 32-BIT INS]
     601                            .dwpsn  file "../Application/Services/nvoctp.c",line 1237,column 5,is_stmt,isa 1
     602 00000056 80E1              STRH      A2, [V1, #6]          ; [DPU_V7M3_PIPE] |1237|  ; [ORIG 16-BIT INS]
     603                            .dwpsn  file "../Application/Services/nvoctp.c",line 1238,column 5,is_stmt,isa 1
     604 00000058 003FF000          AND       A1, A1, #63           ; [DPU_V7M3_PIPE] |1238|  ; [KEEP 32-BIT INS]
     605                            .dwpsn  file "../Application/Services/nvoctp.c",line 1241,column 5,is_stmt,isa 1
TI ARM Assembler PC v18.1.1 Wed Apr 25 09:49:37 2018

Tools Copyright (c) 1996-2017 Texas Instruments Incorporated
C:\Users\devops\AppData\Local\Temp\2\{20EEA8E7-9EAD-4D8F-95A1-C84FA7AD0574} PAGE   12

     606 0000005c 3100EA41          ORR       A2, A2, A1, LSL #12   ; [DPU_V7M3_PIPE] |1241|  ; [KEEP 32-BIT INS]
     607                            .dwpsn  file "../Application/Services/nvoctp.c",line 1239,column 5,is_stmt,isa 1
     608 00000060 05C0F005          AND       V2, V2, #192          ; [DPU_V7M3_PIPE] |1239|  ; [KEEP 32-BIT INS]
     609                            .dwpsn  file "../Application/Services/nvoctp.c",line 1238,column 5,is_stmt,isa 1
     610 00000064 7220              STRB      A1, [V1, #8]          ; [DPU_V7M3_PIPE] |1238|  ; [ORIG 16-BIT INS]
     611                            .dwpsn  file "../Application/Services/nvoctp.c",line 1241,column 5,is_stmt,isa 1
     612 00000066 3201EA42          ORR       A3, A3, A2, LSL #12   ; [DPU_V7M3_PIPE] |1241|  ; [KEEP 32-BIT INS]
     613 0000006a 6022              STR       A3, [V1, #0]          ; [DPU_V7M3_PIPE] |1241|  ; [ORIG 16-BIT INS]
     614                            .dwpsn  file "../Application/Services/nvoctp.c",line 1239,column 5,is_stmt,isa 1
     615 0000006c 432B              ORRS      A4, A4, V2            ; [DPU_V7M3_PIPE] |1239|  ; [ORIG 16-BIT INS]
     616 0000006e 7263              STRB      A4, [V1, #9]          ; [DPU_V7M3_PIPE] |1239|  ; [ORIG 16-BIT INS]
     617                    $C$DW$65        .dwtag  DW_TAG_TI_branch
     618                            .dwattr $C$DW$65, DW_AT_low_pc(0x00)
     619                            .dwattr $C$DW$65, DW_AT_TI_return
     620                    
     621 00000070 BD3E              POP       {A2, A3, A4, V1, V2, PC} ; [DPU_V7M3_PIPE]  ; [ORIG 16-BIT INS]
     622                            .dwcfi  cfa_offset, 0
     623                            .dwcfi  restore_reg, 5
     624                            .dwcfi  restore_reg, 4
     625                            .dwcfi  restore_reg, 3
     626                            .dwcfi  restore_reg, 2
     627                            .dwcfi  restore_reg, 1
     628                            ; BRANCH OCCURS                  ; [] 
     629                            .dwattr $C$DW$57, DW_AT_TI_end_file("../Application/Services/nvoctp.c")
     630                            .dwattr $C$DW$57, DW_AT_TI_end_line(0x4da)
     631                            .dwattr $C$DW$57, DW_AT_TI_end_column(0x01)
     632                            .dwendentry
     633                            .dwendtag $C$DW$57
     634                    
     635 00000000                   .sect   ".text:NVOCTP_findOffset"
     636                            .clink
     637                            .thumbfunc NVOCTP_findOffset
     638 00000000                   .thumb
     639                    
     640                    $C$DW$66        .dwtag  DW_TAG_subprogram
     641                            .dwattr $C$DW$66, DW_AT_name("NVOCTP_findOffset")
     642                            .dwattr $C$DW$66, DW_AT_low_pc(NVOCTP_findOffset)
     643                            .dwattr $C$DW$66, DW_AT_high_pc(0x00)
     644                            .dwattr $C$DW$66, DW_AT_TI_symbol_name("NVOCTP_findOffset")
     645                            .dwattr $C$DW$66, DW_AT_type(*$C$DW$T$129)
     646                            .dwattr $C$DW$66, DW_AT_TI_begin_file("../Application/Services/nvoctp.c")
     647                            .dwattr $C$DW$66, DW_AT_TI_begin_line(0x51e)
     648                            .dwattr $C$DW$66, DW_AT_TI_begin_column(0x11)
     649                            .dwattr $C$DW$66, DW_AT_decl_file("../Application/Services/nvoctp.c")
     650                            .dwattr $C$DW$66, DW_AT_decl_line(0x51e)
     651                            .dwattr $C$DW$66, DW_AT_decl_column(0x11)
     652                            .dwattr $C$DW$66, DW_AT_TI_max_frame_size(0x10)
     653                            .dwpsn  file "../Application/Services/nvoctp.c",line 1312,column 1,is_stmt,address NVOCTP_find
     654                    
     655                            .dwfde $C$DW$CIE, NVOCTP_findOffset
     656                    $C$DW$67        .dwtag  DW_TAG_formal_parameter
     657                            .dwattr $C$DW$67, DW_AT_name("pg")
     658                            .dwattr $C$DW$67, DW_AT_TI_symbol_name("pg")
     659                            .dwattr $C$DW$67, DW_AT_type(*$C$DW$T$131)
     660                            .dwattr $C$DW$67, DW_AT_location[DW_OP_reg0]
TI ARM Assembler PC v18.1.1 Wed Apr 25 09:49:37 2018

Tools Copyright (c) 1996-2017 Texas Instruments Incorporated
C:\Users\devops\AppData\Local\Temp\2\{20EEA8E7-9EAD-4D8F-95A1-C84FA7AD0574} PAGE   13

     661                    
     662                    $C$DW$68        .dwtag  DW_TAG_formal_parameter
     663                            .dwattr $C$DW$68, DW_AT_name("bOfs")
     664                            .dwattr $C$DW$68, DW_AT_TI_symbol_name("bOfs")
     665                            .dwattr $C$DW$68, DW_AT_type(*$C$DW$T$129)
     666                            .dwattr $C$DW$68, DW_AT_location[DW_OP_reg1]
     667                    
     668                    
     669                    ;*****************************************************************************
     670                    ;* FUNCTION NAME: NVOCTP_findOffset                                          *
     671                    ;*                                                                           *
     672                    ;*   Regs Modified     : A1,A2,A3,A4,V1,V2,V9,SP,LR,SR                       *
     673                    ;*   Regs Used         : A1,A2,A3,A4,V1,V2,V9,SP,LR,SR                       *
     674                    ;*   Local Frame Size  : 0 Args + 4 Auto + 12 Save = 16 byte                 *
     675                    ;*****************************************************************************
     676                    NVOCTP_findOffset:
     677                    ;* --------------------------------------------------------------------------*
     678                    $C$DW$69        .dwtag  DW_TAG_variable
     679                            .dwattr $C$DW$69, DW_AT_name("tmp")
     680                            .dwattr $C$DW$69, DW_AT_TI_symbol_name("tmp")
     681                            .dwattr $C$DW$69, DW_AT_type(*$C$DW$T$127)
     682                            .dwattr $C$DW$69, DW_AT_location[DW_OP_breg13 0]
     683                    
     684                    ;* A2    assigned to i
     685                    $C$DW$70        .dwtag  DW_TAG_variable
     686                            .dwattr $C$DW$70, DW_AT_name("i")
     687                            .dwattr $C$DW$70, DW_AT_TI_symbol_name("i")
     688                            .dwattr $C$DW$70, DW_AT_type(*$C$DW$T$10)
     689                            .dwattr $C$DW$70, DW_AT_location[DW_OP_reg1]
     690                    
     691                    ;* V2    assigned to pg
     692                    $C$DW$71        .dwtag  DW_TAG_variable
     693                            .dwattr $C$DW$71, DW_AT_name("pg")
     694                            .dwattr $C$DW$71, DW_AT_TI_symbol_name("pg")
     695                            .dwattr $C$DW$71, DW_AT_type(*$C$DW$T$1106)
     696                            .dwattr $C$DW$71, DW_AT_location[DW_OP_reg5]
     697                    
     698                    ;* V1    assigned to bOfs
     699                    $C$DW$72        .dwtag  DW_TAG_variable
     700                            .dwattr $C$DW$72, DW_AT_name("bOfs")
     701                            .dwattr $C$DW$72, DW_AT_TI_symbol_name("bOfs")
     702                            .dwattr $C$DW$72, DW_AT_type(*$C$DW$T$129)
     703                            .dwattr $C$DW$72, DW_AT_location[DW_OP_reg4]
     704                    
     705                    ;* A3    assigned to j
     706                    $C$DW$73        .dwtag  DW_TAG_variable
     707                            .dwattr $C$DW$73, DW_AT_name("j")
     708                            .dwattr $C$DW$73, DW_AT_TI_symbol_name("j")
     709                            .dwattr $C$DW$73, DW_AT_type(*$C$DW$T$10)
     710                            .dwattr $C$DW$73, DW_AT_location[DW_OP_reg2]
     711                    
     712                            .dwcfi  cfa_offset, 0
     713 00000000 B538              PUSH      {A4, V1, V2, LR}      ; [DPU_V7M3_PIPE]  ; [ORIG 16-BIT INS]
     714                            .dwcfi  cfa_offset, 16
     715                            .dwcfi  save_reg_to_mem, 14, -4
TI ARM Assembler PC v18.1.1 Wed Apr 25 09:49:37 2018

Tools Copyright (c) 1996-2017 Texas Instruments Incorporated
C:\Users\devops\AppData\Local\Temp\2\{20EEA8E7-9EAD-4D8F-95A1-C84FA7AD0574} PAGE   14

     716                            .dwcfi  save_reg_to_mem, 5, -8
     717                            .dwcfi  save_reg_to_mem, 4, -12
     718                            .dwcfi  save_reg_to_mem, 3, -16
     719 00000002 4605              MOV       V2, A1                ; [DPU_V7M3_PIPE] |1312|  ; [ORIG 16-BIT INS]
     720 00000004 460C              MOV       V1, A2                ; [DPU_V7M3_PIPE] |1312|  ; [ORIG 16-BIT INS]
     721                            .dwpsn  file "../Application/Services/nvoctp.c",line 1314,column 18,is_stmt,isa 1
     722 00000006 2000              MOVS      A1, #0                ; [DPU_V7M3_PIPE] |1314|  ; [ORIG 16-BIT INS]
     723 00000008 9000              STR       A1, [SP, #0]          ; [DPU_V7M3_PIPE] |1314|  ; [ORIG 16-BIT INS]
     724                    ;* --------------------------------------------------------------------------*
     725                    ;*   BEGIN LOOP ||$C$L3||
     726                    ;*
     727                    ;*   Loop source line                : 1317
     728                    ;*   Loop closing brace source line  : 1325
     729                    ;*   Known Minimum Trip Count        : 1
     730                    ;*   Known Maximum Trip Count        : 65536
     731                    ;*   Known Max Trip Count Factor     : 1
     732                    ;* --------------------------------------------------------------------------*
     733 0000000a           ||$C$L3||:    
     734                            .dwpsn  file "../Application/Services/nvoctp.c",line 1317,column 11,is_stmt,isa 1
     735 0000000a 2C04              CMP       V1, #4                ; [DPU_V7M3_PIPE] |1317|  ; [ORIG 16-BIT INS]
     736 0000000c D30B              BCC       ||$C$L4||             ; [DPU_V7M3_PIPE] |1317|  ; [ORIG 16-BIT INS]
     737                            ; BRANCHCC OCCURS {||$C$L4||}    ; [] |1317| 
     738                    ;* --------------------------------------------------------------------------*
     739                            .dwpsn  file "../Application/Services/nvoctp.c",line 1320,column 9,is_stmt,isa 1
     740 0000000e 1F24              SUBS      V1, V1, #4            ; [DPU_V7M3_PIPE] |1320|  ; [ORIG 16-BIT INS]
     741 00000010 4628              MOV       A1, V2                ; [DPU_V7M3_PIPE] |1320|  ; [ORIG 16-BIT INS]
     742 00000012 2204              MOVS      A3, #4                ; [DPU_V7M3_PIPE] |1320|  ; [ORIG 16-BIT INS]
     743 00000014 466B              MOV       A4, SP                ; [DPU_V7M3_PIPE] |1320|  ; [ORIG 16-BIT INS]
     744 00000016 B2A4              UXTH      V1, V1                ; [DPU_V7M3_PIPE] |1320|  ; [ORIG 16-BIT INS]
     745 00000018 4621              MOV       A2, V1                ; [DPU_V7M3_PIPE] |1320|  ; [ORIG 16-BIT INS]
     746                    $C$DW$74        .dwtag  DW_TAG_TI_branch
     747                            .dwattr $C$DW$74, DW_AT_low_pc(0x00)
     748                            .dwattr $C$DW$74, DW_AT_name("NVOCTP_flashRead")
     749                            .dwattr $C$DW$74, DW_AT_TI_call
     750                    
     751 0000001a FFFEF7FF!         BL        NVOCTP_flashRead      ; [DPU_V7M3_PIPE] |1320|  ; [KEEP 32-BIT INS]
     752                            ; CALL OCCURS {NVOCTP_flashRead }  ; [] |1320| 
     753                            .dwpsn  file "../Application/Services/nvoctp.c",line 1323,column 13,is_stmt,isa 1
     754 0000001e 9800              LDR       A1, [SP, #0]          ; [DPU_V7M3_PIPE] |1323|  ; [ORIG 16-BIT INS]
     755 00000020 3FFFF1B0          CMP       A1, #-1               ; [DPU_V7M3_PIPE] |1323|  ; [KEEP 32-BIT INS]
     756 00000024 D0F1              BEQ       ||$C$L3||             ; [DPU_V7M3_PIPE] |1323|  ; [ORIG 16-BIT INS]
     757                            ; BRANCHCC OCCURS {||$C$L3||}    ; [] |1323| 
     758                    ;* --------------------------------------------------------------------------*
     759 00000026           ||$C$L4||:    
     760                            .dwpsn  file "../Application/Services/nvoctp.c",line 1328,column 9,is_stmt,isa 1
     761 00000026 2201              MOVS      A3, #1                ; [DPU_V7M3_PIPE] |1328|  ; [ORIG 16-BIT INS]
     762 00000028 4611              MOV       A2, A3                ; [DPU_V7M3_PIPE] |1328|  ; [ORIG 16-BIT INS]
     763                    ;* --------------------------------------------------------------------------*
     764                    ;*   BEGIN LOOP ||$C$L5||
     765                    ;*
     766                    ;*   Loop source line                : 1328
     767                    ;*   Loop closing brace source line  : 1336
     768                    ;*   Known Minimum Trip Count        : 4
     769                    ;*   Known Maximum Trip Count        : 4
     770                    ;*   Known Max Trip Count Factor     : 4
TI ARM Assembler PC v18.1.1 Wed Apr 25 09:49:37 2018

Tools Copyright (c) 1996-2017 Texas Instruments Incorporated
C:\Users\devops\AppData\Local\Temp\2\{20EEA8E7-9EAD-4D8F-95A1-C84FA7AD0574} PAGE   15

     771                    ;* --------------------------------------------------------------------------*
     772 0000002a           ||$C$L5||:    
     773                            .dwpsn  file "../Application/Services/nvoctp.c",line 1330,column 9,is_stmt,isa 1
     774 0000002a 03FFF000          AND       A4, A1, #255          ; [DPU_V7M3_PIPE] |1330|  ; [KEEP 32-BIT INS]
     775 0000002e 2BFF              CMP       A4, #255              ; [DPU_V7M3_PIPE] |1330|  ; [ORIG 16-BIT INS]
     776 00000030 BF18              IT        NE                    ; [DPU_V7M3_PIPE]  ; [ORIG 16-BIT INS]
     777                            .dwpsn  file "../Application/Services/nvoctp.c",line 1333,column 13,is_stmt,isa 1
     778 00000032 1C0A              MOVNE     A3, A2                ; [DPU_V7M3_PIPE] |1333|  ; [ORIG 16-BIT INS]
     779                            .dwpsn  file "../Application/Services/nvoctp.c",line 1335,column 9,is_stmt,isa 1
     780 00000034 0A00              LSRS      A1, A1, #8            ; [DPU_V7M3_PIPE] |1335|  ; [ORIG 16-BIT INS]
     781                            .dwpsn  file "../Application/Services/nvoctp.c",line 1328,column 20,is_stmt,isa 1
     782 00000036 1C49              ADDS      A2, A2, #1            ; [DPU_V7M3_PIPE] |1328|  ; [ORIG 16-BIT INS]
     783                            .dwpsn  file "../Application/Services/nvoctp.c",line 1335,column 9,is_stmt,isa 1
     784 00000038 9000              STR       A1, [SP, #0]          ; [DPU_V7M3_PIPE] |1335|  ; [ORIG 16-BIT INS]
     785                            .dwpsn  file "../Application/Services/nvoctp.c",line 1328,column 20,is_stmt,isa 1
     786 0000003a 2904              CMP       A2, #4                ; [DPU_V7M3_PIPE] |1328|  ; [ORIG 16-BIT INS]
     787 0000003c DDF5              BLE       ||$C$L5||             ; [DPU_V7M3_PIPE] |1328|  ; [ORIG 16-BIT INS]
     788                            ; BRANCHCC OCCURS {||$C$L5||}    ; [] |1328| 
     789                    ;* --------------------------------------------------------------------------*
     790                            .dwpsn  file "../Application/Services/nvoctp.c",line 1338,column 5,is_stmt,isa 1
     791 0000003e 18A4              ADDS      V1, V1, A3            ; [DPU_V7M3_PIPE] |1338|  ; [ORIG 16-BIT INS]
     792 00000040 B2A0              UXTH      A1, V1                ; [DPU_V7M3_PIPE] |1338|  ; [ORIG 16-BIT INS]
     793                    $C$DW$75        .dwtag  DW_TAG_TI_branch
     794                            .dwattr $C$DW$75, DW_AT_low_pc(0x00)
     795                            .dwattr $C$DW$75, DW_AT_TI_return
     796                    
     797 00000042 BD38              POP       {A4, V1, V2, PC}      ; [DPU_V7M3_PIPE]  ; [ORIG 16-BIT INS]
     798                            .dwcfi  cfa_offset, 0
     799                            .dwcfi  restore_reg, 5
     800                            .dwcfi  restore_reg, 4
     801                            .dwcfi  restore_reg, 3
     802                            ; BRANCH OCCURS                  ; [] 
     803                            .dwattr $C$DW$66, DW_AT_TI_end_file("../Application/Services/nvoctp.c")
     804                            .dwattr $C$DW$66, DW_AT_TI_end_line(0x53b)
     805                            .dwattr $C$DW$66, DW_AT_TI_end_column(0x01)
     806                            .dwendentry
     807                            .dwendtag $C$DW$66
     808                    
     809 00000000                   .sect   ".text:NVOCTP_findItem"
     810                            .clink
     811                            .thumbfunc NVOCTP_findItem
     812 00000000                   .thumb
     813                    
     814                    $C$DW$76        .dwtag  DW_TAG_subprogram
     815                            .dwattr $C$DW$76, DW_AT_name("NVOCTP_findItem")
     816                            .dwattr $C$DW$76, DW_AT_low_pc(NVOCTP_findItem)
     817                            .dwattr $C$DW$76, DW_AT_high_pc(0x00)
     818                            .dwattr $C$DW$76, DW_AT_TI_symbol_name("NVOCTP_findItem")
     819                            .dwattr $C$DW$76, DW_AT_type(*$C$DW$T$1122)
     820                            .dwattr $C$DW$76, DW_AT_TI_begin_file("../Application/Services/nvoctp.c")
     821                            .dwattr $C$DW$76, DW_AT_TI_begin_line(0x54a)
     822                            .dwattr $C$DW$76, DW_AT_TI_begin_column(0x10)
     823                            .dwattr $C$DW$76, DW_AT_decl_file("../Application/Services/nvoctp.c")
     824                            .dwattr $C$DW$76, DW_AT_decl_line(0x54a)
     825                            .dwattr $C$DW$76, DW_AT_decl_column(0x10)
TI ARM Assembler PC v18.1.1 Wed Apr 25 09:49:37 2018

Tools Copyright (c) 1996-2017 Texas Instruments Incorporated
C:\Users\devops\AppData\Local\Temp\2\{20EEA8E7-9EAD-4D8F-95A1-C84FA7AD0574} PAGE   16

     826                            .dwattr $C$DW$76, DW_AT_TI_max_frame_size(0x28)
     827                            .dwpsn  file "../Application/Services/nvoctp.c",line 1357,column 1,is_stmt,address NVOCTP_find
     828                    
     829                            .dwfde $C$DW$CIE, NVOCTP_findItem
     830                    $C$DW$77        .dwtag  DW_TAG_formal_parameter
     831                            .dwattr $C$DW$77, DW_AT_name("pg")
     832                            .dwattr $C$DW$77, DW_AT_TI_symbol_name("pg")
     833                            .dwattr $C$DW$77, DW_AT_type(*$C$DW$T$131)
     834                            .dwattr $C$DW$77, DW_AT_location[DW_OP_reg0]
     835                    
     836                    $C$DW$78        .dwtag  DW_TAG_formal_parameter
     837                            .dwattr $C$DW$78, DW_AT_name("ofs")
     838                            .dwattr $C$DW$78, DW_AT_TI_symbol_name("ofs")
     839                            .dwattr $C$DW$78, DW_AT_type(*$C$DW$T$129)
     840                            .dwattr $C$DW$78, DW_AT_location[DW_OP_reg1]
     841                    
     842                    $C$DW$79        .dwtag  DW_TAG_formal_parameter
     843                            .dwattr $C$DW$79, DW_AT_name("cid")
     844                            .dwattr $C$DW$79, DW_AT_TI_symbol_name("cid")
     845                            .dwattr $C$DW$79, DW_AT_type(*$C$DW$T$127)
     846                            .dwattr $C$DW$79, DW_AT_location[DW_OP_reg2]
     847                    
     848                    
     849                    ;*****************************************************************************
     850                    ;* FUNCTION NAME: NVOCTP_findItem                                            *
     851                    ;*                                                                           *
     852                    ;*   Regs Modified     : A1,A2,A3,A4,V1,V2,V3,V4,V9,SP,LR,SR                 *
     853                    ;*   Regs Used         : A1,A2,A3,A4,V1,V2,V3,V4,V9,SP,LR,SR                 *
     854                    ;*   Local Frame Size  : 0 Args + 16 Auto + 20 Save = 36 byte                *
     855                    ;*****************************************************************************
     856                    NVOCTP_findItem:
     857                    ;* --------------------------------------------------------------------------*
     858                    $C$DW$80        .dwtag  DW_TAG_variable
     859                            .dwattr $C$DW$80, DW_AT_name("iHdr")
     860                            .dwattr $C$DW$80, DW_AT_TI_symbol_name("iHdr")
     861                            .dwattr $C$DW$80, DW_AT_type(*$C$DW$T$133)
     862                            .dwattr $C$DW$80, DW_AT_location[DW_OP_breg13 0]
     863                    
     864                    ;* A2    assigned to $O$C31
     865                    ;* A1    assigned to $O$C32
     866                    ;* A1    assigned to $O$v2
     867                    ;* A2    assigned to $O$v1
     868                    ;* V4    assigned to pg
     869                    $C$DW$81        .dwtag  DW_TAG_variable
     870                            .dwattr $C$DW$81, DW_AT_name("pg")
     871                            .dwattr $C$DW$81, DW_AT_TI_symbol_name("pg")
     872                            .dwattr $C$DW$81, DW_AT_type(*$C$DW$T$1106)
     873                            .dwattr $C$DW$81, DW_AT_location[DW_OP_reg7]
     874                    
     875                    ;* V1    assigned to ofs
     876                    $C$DW$82        .dwtag  DW_TAG_variable
     877                            .dwattr $C$DW$82, DW_AT_name("ofs")
     878                            .dwattr $C$DW$82, DW_AT_TI_symbol_name("ofs")
     879                            .dwattr $C$DW$82, DW_AT_type(*$C$DW$T$129)
     880                            .dwattr $C$DW$82, DW_AT_location[DW_OP_reg4]
TI ARM Assembler PC v18.1.1 Wed Apr 25 09:49:37 2018

Tools Copyright (c) 1996-2017 Texas Instruments Incorporated
C:\Users\devops\AppData\Local\Temp\2\{20EEA8E7-9EAD-4D8F-95A1-C84FA7AD0574} PAGE   17

     881                    
     882                    ;* V3    assigned to cid
     883                    $C$DW$83        .dwtag  DW_TAG_variable
     884                            .dwattr $C$DW$83, DW_AT_name("cid")
     885                            .dwattr $C$DW$83, DW_AT_TI_symbol_name("cid")
     886                            .dwattr $C$DW$83, DW_AT_type(*$C$DW$T$1357)
     887                            .dwattr $C$DW$83, DW_AT_location[DW_OP_reg6]
     888                    
     889                    ;* V2    assigned to items
     890                    $C$DW$84        .dwtag  DW_TAG_variable
     891                            .dwattr $C$DW$84, DW_AT_name("items")
     892                            .dwattr $C$DW$84, DW_AT_TI_symbol_name("items")
     893                            .dwattr $C$DW$84, DW_AT_type(*$C$DW$T$1188)
     894                            .dwattr $C$DW$84, DW_AT_location[DW_OP_reg5]
     895                    
     896                            .dwcfi  cfa_offset, 0
     897 00000000 B5F0              PUSH      {V1, V2, V3, V4, LR}  ; [DPU_V7M3_PIPE]  ; [ORIG 16-BIT INS]
     898                            .dwcfi  cfa_offset, 20
     899                            .dwcfi  save_reg_to_mem, 14, -4
     900                            .dwcfi  save_reg_to_mem, 7, -8
     901                            .dwcfi  save_reg_to_mem, 6, -12
     902                            .dwcfi  save_reg_to_mem, 5, -16
     903                            .dwcfi  save_reg_to_mem, 4, -20
     904 00000002 4616              MOV       V3, A3                ; [DPU_V7M3_PIPE] |1357|  ; [ORIG 16-BIT INS]
     905 00000004 460C              MOV       V1, A2                ; [DPU_V7M3_PIPE] |1357|  ; [ORIG 16-BIT INS]
     906 00000006 4607              MOV       V4, A1                ; [DPU_V7M3_PIPE] |1357|  ; [ORIG 16-BIT INS]
     907                            .dwpsn  file "../Application/Services/nvoctp.c",line 1358,column 18,is_stmt,isa 1
     908 00000008 2500              MOVS      V2, #0                ; [DPU_V7M3_PIPE] |1358|  ; [ORIG 16-BIT INS]
     909 0000000a 0D14F1AD          SUB       SP, SP, #20           ; [DPU_V7M3_PIPE]  ; [KEEP 32-BIT INS]
     910                            .dwcfi  cfa_offset, 40
     911                            .dwpsn  file "../Application/Services/nvoctp.c",line 1360,column 11,is_stmt,isa 1
     912 0000000e E00A              B         ||$C$L9||             ; [DPU_V7M3_PIPE] |1360|  ; [ORIG 16-BIT INS]
     913                            ; BRANCH OCCURS {||$C$L9||}      ; [] |1360| 
     914                    ;* --------------------------------------------------------------------------*
     915 00000010           ||$C$L6||:    
     916                            .dwpsn  file "../Application/Services/nvoctp.c",line 1383,column 17,is_stmt,isa 1
     917 00000010 1A24              SUBS      V1, V1, A1            ; [DPU_V7M3_PIPE] |1383|  ; [ORIG 16-BIT INS]
     918 00000012 B2A4              UXTH      V1, V1                ; [DPU_V7M3_PIPE] |1383|  ; [ORIG 16-BIT INS]
     919                            .dwpsn  file "../Application/Services/nvoctp.c",line 1384,column 13,is_stmt,isa 1
     920 00000014 E005              B         ||$C$L8||             ; [DPU_V7M3_PIPE] |1384|  ; [ORIG 16-BIT INS]
     921                            ; BRANCH OCCURS {||$C$L8||}      ; [] |1384| 
     922                    ;* --------------------------------------------------------------------------*
     923 00000016           ||$C$L7||:    
     924                            .dwpsn  file "../Application/Services/nvoctp.c",line 1396,column 13,is_stmt,isa 1
     925 00000016 1E64              SUBS      V1, V1, #1            ; [DPU_V7M3_PIPE] |1396|  ; [ORIG 16-BIT INS]
     926 00000018 4638              MOV       A1, V4                ; [DPU_V7M3_PIPE] |1396|  ; [ORIG 16-BIT INS]
     927 0000001a B2A1              UXTH      A2, V1                ; [DPU_V7M3_PIPE] |1396|  ; [ORIG 16-BIT INS]
     928                    $C$DW$85        .dwtag  DW_TAG_TI_branch
     929                            .dwattr $C$DW$85, DW_AT_low_pc(0x00)
     930                            .dwattr $C$DW$85, DW_AT_name("NVOCTP_findOffset")
     931                            .dwattr $C$DW$85, DW_AT_TI_call
     932                    
     933 0000001c FFFEF7FF!         BL        NVOCTP_findOffset     ; [DPU_V7M3_PIPE] |1396|  ; [KEEP 32-BIT INS]
     934                            ; CALL OCCURS {NVOCTP_findOffset }  ; [] |1396| 
     935 00000020 4604              MOV       V1, A1                ; [DPU_V7M3_PIPE] |1396|  ; [ORIG 16-BIT INS]
TI ARM Assembler PC v18.1.1 Wed Apr 25 09:49:37 2018

Tools Copyright (c) 1996-2017 Texas Instruments Incorporated
C:\Users\devops\AppData\Local\Temp\2\{20EEA8E7-9EAD-4D8F-95A1-C84FA7AD0574} PAGE   18

     936                    ;* --------------------------------------------------------------------------*
     937 00000022           ||$C$L8||:    
     938                            .dwpsn  file "../Application/Services/nvoctp.c",line 1400,column 9,is_stmt,isa 1
     939 00000022 1C6D              ADDS      V2, V2, #1            ; [DPU_V7M3_PIPE] |1400|  ; [ORIG 16-BIT INS]
     940 00000024 B2AD              UXTH      V2, V2                ; [DPU_V7M3_PIPE] |1400|  ; [ORIG 16-BIT INS]
     941                    ;* --------------------------------------------------------------------------*
     942                    ;*   BEGIN LOOP ||$C$L9||
     943                    ;* --------------------------------------------------------------------------*
     944 00000026           ||$C$L9||:    
     945                            .dwpsn  file "../Application/Services/nvoctp.c",line 1360,column 11,is_stmt,isa 1
     946 00000026 2C09              CMP       V1, #9                ; [DPU_V7M3_PIPE] |1360|  ; [ORIG 16-BIT INS]
     947 00000028 D31D              BCC       ||$C$L12||            ; [DPU_V7M3_PIPE] |1360|  ; [ORIG 16-BIT INS]
     948                            ; BRANCHCC OCCURS {||$C$L12||}   ; [] |1360| 
     949                    ;* --------------------------------------------------------------------------*
     950                            .dwpsn  file "../Application/Services/nvoctp.c",line 1368,column 9,is_stmt,isa 1
     951 0000002a 1F64              SUBS      V1, V1, #5            ; [DPU_V7M3_PIPE] |1368|  ; [ORIG 16-BIT INS]
     952 0000002c 4638              MOV       A1, V4                ; [DPU_V7M3_PIPE] |1368|  ; [ORIG 16-BIT INS]
     953 0000002e 466A              MOV       A3, SP                ; [DPU_V7M3_PIPE] |1368|  ; [ORIG 16-BIT INS]
     954 00000030 B2A4              UXTH      V1, V1                ; [DPU_V7M3_PIPE] |1368|  ; [ORIG 16-BIT INS]
     955 00000032 4621              MOV       A2, V1                ; [DPU_V7M3_PIPE] |1368|  ; [ORIG 16-BIT INS]
     956                    $C$DW$86        .dwtag  DW_TAG_TI_branch
     957                            .dwattr $C$DW$86, DW_AT_low_pc(0x00)
     958                            .dwattr $C$DW$86, DW_AT_name("NVOCTP_readHeader")
     959                            .dwattr $C$DW$86, DW_AT_TI_call
     960                    
     961 00000034 FFFEF7FF!         BL        NVOCTP_readHeader     ; [DPU_V7M3_PIPE] |1368|  ; [KEEP 32-BIT INS]
     962                            ; CALL OCCURS {NVOCTP_readHeader }  ; [] |1368| 
     963                            .dwpsn  file "../Application/Services/nvoctp.c",line 1370,column 9,is_stmt,isa 1
     964 00000038 9800              LDR       A1, [SP, #0]          ; [DPU_V7M3_PIPE] |1370|  ; [ORIG 16-BIT INS]
     965 0000003a 42B0              CMP       A1, V3                ; [DPU_V7M3_PIPE] |1370|  ; [ORIG 16-BIT INS]
     966 0000003c D107              BNE       ||$C$L10||            ; [DPU_V7M3_PIPE] |1370|  ; [ORIG 16-BIT INS]
     967                            ; BRANCHCC OCCURS {||$C$L10||}   ; [] |1370| 
     968                    ;* --------------------------------------------------------------------------*
     969 0000003e 1009F89D          LDRB      A2, [SP, #9]          ; [DPU_V7M3_PIPE] |1370|  ; [KEEP 32-BIT INS]
     970 00000042 007FF031          BICS      A1, A2, #127          ; [DPU_V7M3_PIPE] |1370|  ; [KEEP 32-BIT INS]
     971 00000046 D004              BEQ       ||$C$L11||            ; [DPU_V7M3_PIPE] |1370|  ; [ORIG 16-BIT INS]
     972                            ; BRANCHCC OCCURS {||$C$L11||}   ; [] |1370| 
     973                    ;* --------------------------------------------------------------------------*
     974 00000048 09C8              LSRS      A1, A2, #7            ; [DPU_V7M3_PIPE] |1370|  ; [ORIG 16-BIT INS]
     975 0000004a D202              BCS       ||$C$L11||            ; [DPU_V7M3_PIPE] |1370|  ; [ORIG 16-BIT INS]
     976                            ; BRANCHCC OCCURS {||$C$L11||}   ; [] |1370| 
     977                    ;* --------------------------------------------------------------------------*
     978                            .dwpsn  file "../Application/Services/nvoctp.c",line 1375,column 13,is_stmt,isa 1
     979 0000004c E00C              B         ||$C$L13||            ; [DPU_V7M3_PIPE] |1375|  ; [ORIG 16-BIT INS]
     980                            ; BRANCH OCCURS {||$C$L13||}     ; [] |1375| 
     981                    ;* --------------------------------------------------------------------------*
     982 0000004e           ||$C$L10||:    
     983 0000004e 1009F89D          LDRB      A2, [SP, #9]          ; [DPU_V7M3_PIPE]  ; [KEEP 32-BIT INS]
     984                    ;* --------------------------------------------------------------------------*
     985 00000052           ||$C$L11||:    
     986                            .dwpsn  file "../Application/Services/nvoctp.c",line 1377,column 14,is_stmt,isa 1
     987 00000052 0888              LSRS      A1, A2, #2            ; [DPU_V7M3_PIPE] |1377|  ; [ORIG 16-BIT INS]
     988 00000054 D2DF              BCS       ||$C$L7||             ; [DPU_V7M3_PIPE] |1377|  ; [ORIG 16-BIT INS]
     989                            ; BRANCHCC OCCURS {||$C$L7||}    ; [] |1377| 
     990                    ;* --------------------------------------------------------------------------*
TI ARM Assembler PC v18.1.1 Wed Apr 25 09:49:37 2018

Tools Copyright (c) 1996-2017 Texas Instruments Incorporated
C:\Users\devops\AppData\Local\Temp\2\{20EEA8E7-9EAD-4D8F-95A1-C84FA7AD0574} PAGE   19

     991                            .dwpsn  file "../Application/Services/nvoctp.c",line 1380,column 13,is_stmt,isa 1
     992 00000056 000CF8BD          LDRH      A1, [SP, #12]         ; [DPU_V7M3_PIPE] |1380|  ; [KEEP 32-BIT INS]
     993 0000005a 4284              CMP       V1, A1                ; [DPU_V7M3_PIPE] |1380|  ; [ORIG 16-BIT INS]
     994 0000005c DCD8              BGT       ||$C$L6||             ; [DPU_V7M3_PIPE] |1380|  ; [ORIG 16-BIT INS]
     995                            ; BRANCHCC OCCURS {||$C$L6||}    ; [] |1380| 
     996                    ;* --------------------------------------------------------------------------*
     997                            .dwpsn  file "../Application/Services/nvoctp.c",line 1388,column 17,is_stmt,isa 1
     998 0000005e 4904              LDR       A2, $C$CON1           ; [DPU_V7M3_PIPE] |1388|  ; [ORIG 16-BIT INS]
     999 00000060 2005              MOVS      A1, #5                ; [DPU_V7M3_PIPE] |1388|  ; [ORIG 16-BIT INS]
    1000 00000062 7148              STRB      A1, [A2, #5]          ; [DPU_V7M3_PIPE] |1388|  ; [ORIG 16-BIT INS]
    1001 00000064 7108              STRB      A1, [A2, #4]          ; [DPU_V7M3_PIPE] |1388|  ; [ORIG 16-BIT INS]
    1002                    ;* --------------------------------------------------------------------------*
    1003 00000066           ||$C$L12||:    
    1004                            .dwpsn  file "../Application/Services/nvoctp.c",line 1404,column 5,is_stmt,isa 1
    1005 00000066 426C              RSBS      V1, V2, #0            ; [DPU_V7M3_PIPE] |1404|  ; [ORIG 16-BIT INS]
    1006                    ;* --------------------------------------------------------------------------*
    1007 00000068           ||$C$L13||:    
    1008 00000068 B220              SXTH      A1, V1                ; [DPU_V7M3_PIPE] |1404|  ; [ORIG 16-BIT INS]
    1009 0000006a B005              ADD       SP, SP, #20           ; [DPU_V7M3_PIPE]  ; [ORIG 16-BIT INS]
    1010                            .dwcfi  cfa_offset, 20
    1011                    $C$DW$87        .dwtag  DW_TAG_TI_branch
    1012                            .dwattr $C$DW$87, DW_AT_low_pc(0x00)
    1013                            .dwattr $C$DW$87, DW_AT_TI_return
    1014                    
    1015 0000006c BDF0              POP       {V1, V2, V3, V4, PC}  ; [DPU_V7M3_PIPE]  ; [ORIG 16-BIT INS]
    1016                            .dwcfi  cfa_offset, 0
    1017                            .dwcfi  restore_reg, 7
    1018                            .dwcfi  restore_reg, 6
    1019                            .dwcfi  restore_reg, 5
    1020                            .dwcfi  restore_reg, 4
    1021                            ; BRANCH OCCURS                  ; [] 
    1022                            .dwattr $C$DW$76, DW_AT_TI_end_file("../Application/Services/nvoctp.c")
    1023                            .dwattr $C$DW$76, DW_AT_TI_end_line(0x57d)
    1024                            .dwattr $C$DW$76, DW_AT_TI_end_column(0x01)
    1025                            .dwendentry
    1026                            .dwendtag $C$DW$76
    1027                    
    1028 00000000                   .sect   ".text:NVOCTP_checkItem"
    1029                            .clink
    1030                            .thumbfunc NVOCTP_checkItem
    1031 00000000                   .thumb
    1032                    
    1033                    $C$DW$88        .dwtag  DW_TAG_subprogram
    1034                            .dwattr $C$DW$88, DW_AT_name("NVOCTP_checkItem")
    1035                            .dwattr $C$DW$88, DW_AT_low_pc(NVOCTP_checkItem)
    1036                            .dwattr $C$DW$88, DW_AT_high_pc(0x00)
    1037                            .dwattr $C$DW$88, DW_AT_TI_symbol_name("NVOCTP_checkItem")
    1038                            .dwattr $C$DW$88, DW_AT_type(*$C$DW$T$131)
    1039                            .dwattr $C$DW$88, DW_AT_TI_begin_file("../Application/Services/nvoctp.c")
    1040                            .dwattr $C$DW$88, DW_AT_TI_begin_line(0x397)
    1041                            .dwattr $C$DW$88, DW_AT_TI_begin_column(0x10)
    1042                            .dwattr $C$DW$88, DW_AT_decl_file("../Application/Services/nvoctp.c")
    1043                            .dwattr $C$DW$88, DW_AT_decl_line(0x397)
    1044                            .dwattr $C$DW$88, DW_AT_decl_column(0x10)
    1045                            .dwattr $C$DW$88, DW_AT_TI_max_frame_size(0x30)
TI ARM Assembler PC v18.1.1 Wed Apr 25 09:49:37 2018

Tools Copyright (c) 1996-2017 Texas Instruments Incorporated
C:\Users\devops\AppData\Local\Temp\2\{20EEA8E7-9EAD-4D8F-95A1-C84FA7AD0574} PAGE   20

    1046                            .dwpsn  file "../Application/Services/nvoctp.c",line 922,column 1,is_stmt,address NVOCTP_check
    1047                    
    1048                            .dwfde $C$DW$CIE, NVOCTP_checkItem
    1049                    $C$DW$89        .dwtag  DW_TAG_formal_parameter
    1050                            .dwattr $C$DW$89, DW_AT_name("id")
    1051                            .dwattr $C$DW$89, DW_AT_TI_symbol_name("id")
    1052                            .dwattr $C$DW$89, DW_AT_type(*$C$DW$T$341)
    1053                            .dwattr $C$DW$89, DW_AT_location[DW_OP_breg13 40]
    1054                    
    1055                    $C$DW$90        .dwtag  DW_TAG_formal_parameter
    1056                            .dwattr $C$DW$90, DW_AT_name("bLen")
    1057                            .dwattr $C$DW$90, DW_AT_TI_symbol_name("bLen")
    1058                            .dwattr $C$DW$90, DW_AT_type(*$C$DW$T$129)
    1059                            .dwattr $C$DW$90, DW_AT_location[DW_OP_reg2]
    1060                    
    1061                    $C$DW$91        .dwtag  DW_TAG_formal_parameter
    1062                            .dwattr $C$DW$91, DW_AT_name("pHdr")
    1063                            .dwattr $C$DW$91, DW_AT_TI_symbol_name("pHdr")
    1064                            .dwattr $C$DW$91, DW_AT_type(*$C$DW$T$134)
    1065                            .dwattr $C$DW$91, DW_AT_location[DW_OP_reg3]
    1066                    
    1067                    
    1068                    ;*****************************************************************************
    1069                    ;* FUNCTION NAME: NVOCTP_checkItem                                           *
    1070                    ;*                                                                           *
    1071                    ;*   Regs Modified     : A1,A2,A3,A4,V1,V2,V3,V4,V5,V6,V7,V8,V9,SP,LR,SR     *
    1072                    ;*   Regs Used         : A1,A2,A3,A4,V1,V2,V3,V4,V5,V6,V7,V8,V9,SP,LR,SR     *
    1073                    ;*   Local Frame Size  : 0 Args + 0 Auto + 36 Save = 36 byte                 *
    1074                    ;*****************************************************************************
    1075                    NVOCTP_checkItem:
    1076                    ;* --------------------------------------------------------------------------*
    1077                    ;* V6    assigned to $O$C16
    1078                    ;* V5    assigned to $O$C17
    1079                    ;* V4    assigned to $O$C18
    1080                    ;* V2    assigned to $O$C19
    1081                    ;* V1    assigned to $O$C20
    1082                    ;* V1    assigned to $O$K26
    1083                    ;* V8    assigned to $O$K33
    1084                    ;* V7    assigned to bLen
    1085                    $C$DW$92        .dwtag  DW_TAG_variable
    1086                            .dwattr $C$DW$92, DW_AT_name("bLen")
    1087                            .dwattr $C$DW$92, DW_AT_TI_symbol_name("bLen")
    1088                            .dwattr $C$DW$92, DW_AT_type(*$C$DW$T$1144)
    1089                            .dwattr $C$DW$92, DW_AT_location[DW_OP_reg10]
    1090                    
    1091                    ;* V3    assigned to pHdr
    1092                    $C$DW$93        .dwtag  DW_TAG_variable
    1093                            .dwattr $C$DW$93, DW_AT_name("pHdr")
    1094                            .dwattr $C$DW$93, DW_AT_TI_symbol_name("pHdr")
    1095                            .dwattr $C$DW$93, DW_AT_type(*$C$DW$T$707)
    1096                            .dwattr $C$DW$93, DW_AT_location[DW_OP_reg6]
    1097                    
    1098                    ;* A2    assigned to ofs
    1099                    $C$DW$94        .dwtag  DW_TAG_variable
    1100                            .dwattr $C$DW$94, DW_AT_name("ofs")
TI ARM Assembler PC v18.1.1 Wed Apr 25 09:49:37 2018

Tools Copyright (c) 1996-2017 Texas Instruments Incorporated
C:\Users\devops\AppData\Local\Temp\2\{20EEA8E7-9EAD-4D8F-95A1-C84FA7AD0574} PAGE   21

    1101                            .dwattr $C$DW$94, DW_AT_TI_symbol_name("ofs")
    1102                            .dwattr $C$DW$94, DW_AT_type(*$C$DW$T$10)
    1103                            .dwattr $C$DW$94, DW_AT_location[DW_OP_reg1]
    1104                    
    1105                            .dwcfi  cfa_offset, 0
    1106 00000000 B403              PUSH      {A1, A2}              ; [DPU_V7M3_PIPE]  ; [ORIG 16-BIT INS]
    1107                            .dwcfi  cfa_offset, 8
    1108                            .dwcfi  save_reg_to_mem, 1, -4
    1109                            .dwcfi  save_reg_to_mem, 0, -8
    1110 00000002 4FF0E92D          PUSH      {V1, V2, V3, V4, V5, V6, V7, V8, LR} ; [DPU_V7M3_PIPE]  ; [KEEP 32-BIT INS]
    1111                            .dwcfi  cfa_offset, 44
    1112                            .dwcfi  save_reg_to_mem, 14, -12
    1113                            .dwcfi  save_reg_to_mem, 11, -16
    1114                            .dwcfi  save_reg_to_mem, 10, -20
    1115                            .dwcfi  save_reg_to_mem, 9, -24
    1116                            .dwcfi  save_reg_to_mem, 8, -28
    1117                            .dwcfi  save_reg_to_mem, 7, -32
    1118                            .dwcfi  save_reg_to_mem, 6, -36
    1119                            .dwcfi  save_reg_to_mem, 5, -40
    1120                            .dwcfi  save_reg_to_mem, 4, -44
    1121 00000006 4692              MOV       V7, A3                ; [DPU_V7M3_PIPE] |922|  ; [ORIG 16-BIT INS]
    1122 00000008 461E              MOV       V3, A4                ; [DPU_V7M3_PIPE] |922|  ; [ORIG 16-BIT INS]
    1123 0000000a AF09              ADD       V4, SP, #36           ; [DPU_V7M3_PIPE]  ; [ORIG 16-BIT INS]
    1124                            .dwpsn  file "../Application/Services/nvoctp.c",line 927,column 5,is_stmt,isa 1
    1125 0000000c 6F80F5BA          CMP       V7, #1024             ; [DPU_V7M3_PIPE] |927|  ; [KEEP 32-BIT INS]
    1126 00000010 0D04F1AD          SUB       SP, SP, #4            ; [DPU_V7M3_PIPE]  ; [KEEP 32-BIT INS]
    1127                            .dwcfi  cfa_offset, 48
    1128 00000014 BFA8              IT        GE                    ; [DPU_V7M3_PIPE]  ; [ORIG 16-BIT INS]
    1129                            .dwpsn  file "../Application/Services/nvoctp.c",line 930,column 9,is_stmt,isa 1
    1130 00000016 2005              MOVGE     A1, #5                ; [DPU_V7M3_PIPE] |930|  ; [ORIG 16-BIT INS]
    1131 00000018 DA41              BGE       ||$C$L15||            ; [DPU_V7M3_PIPE] |930|  ; [ORIG 16-BIT INS]
    1132                            ; BRANCHCC OCCURS {||$C$L15||}   ; [] |930| 
    1133                    ;* --------------------------------------------------------------------------*
    1134                            .dwpsn  file "../Application/Services/nvoctp.c",line 932,column 5,is_stmt,isa 1
    1135 0000001a 9000F897          LDRB      V6, [V4, #0]          ; [DPU_V7M3_PIPE] |932|  ; [KEEP 32-BIT INS]
    1136 0000001e 0F40F1B9          CMP       V6, #64               ; [DPU_V7M3_PIPE] |932|  ; [KEEP 32-BIT INS]
    1137 00000022 BFA8              IT        GE                    ; [DPU_V7M3_PIPE]  ; [ORIG 16-BIT INS]
    1138                            .dwpsn  file "../Application/Services/nvoctp.c",line 935,column 9,is_stmt,isa 1
    1139 00000024 2009              MOVGE     A1, #9                ; [DPU_V7M3_PIPE] |935|  ; [ORIG 16-BIT INS]
    1140 00000026 DA3A              BGE       ||$C$L15||            ; [DPU_V7M3_PIPE] |935|  ; [ORIG 16-BIT INS]
    1141                            ; BRANCHCC OCCURS {||$C$L15||}   ; [] |935| 
    1142                    ;* --------------------------------------------------------------------------*
    1143                            .dwpsn  file "../Application/Services/nvoctp.c",line 937,column 5,is_stmt,isa 1
    1144 00000028 8002F8B7          LDRH      V5, [V4, #2]          ; [DPU_V7M3_PIPE] |937|  ; [KEEP 32-BIT INS]
    1145 0000002c 6F80F5B8          CMP       V5, #1024             ; [DPU_V7M3_PIPE] |937|  ; [KEEP 32-BIT INS]
    1146 00000030 BFA8              IT        GE                    ; [DPU_V7M3_PIPE]  ; [ORIG 16-BIT INS]
    1147                            .dwpsn  file "../Application/Services/nvoctp.c",line 940,column 9,is_stmt,isa 1
    1148 00000032 2007              MOVGE     A1, #7                ; [DPU_V7M3_PIPE] |940|  ; [ORIG 16-BIT INS]
    1149 00000034 DA33              BGE       ||$C$L15||            ; [DPU_V7M3_PIPE] |940|  ; [ORIG 16-BIT INS]
    1150                            ; BRANCHCC OCCURS {||$C$L15||}   ; [] |940| 
    1151                    ;* --------------------------------------------------------------------------*
    1152                            .dwpsn  file "../Application/Services/nvoctp.c",line 942,column 5,is_stmt,isa 1
    1153 00000036 88BF              LDRH      V4, [V4, #4]          ; [DPU_V7M3_PIPE] |942|  ; [ORIG 16-BIT INS]
    1154 00000038 6F80F5B7          CMP       V4, #1024             ; [DPU_V7M3_PIPE] |942|  ; [KEEP 32-BIT INS]
    1155 0000003c BFA8              IT        GE                    ; [DPU_V7M3_PIPE]  ; [ORIG 16-BIT INS]
TI ARM Assembler PC v18.1.1 Wed Apr 25 09:49:37 2018

Tools Copyright (c) 1996-2017 Texas Instruments Incorporated
C:\Users\devops\AppData\Local\Temp\2\{20EEA8E7-9EAD-4D8F-95A1-C84FA7AD0574} PAGE   22

    1156                            .dwpsn  file "../Application/Services/nvoctp.c",line 945,column 9,is_stmt,isa 1
    1157 0000003e 2008              MOVGE     A1, #8                ; [DPU_V7M3_PIPE] |945|  ; [ORIG 16-BIT INS]
    1158 00000040 DA2D              BGE       ||$C$L15||            ; [DPU_V7M3_PIPE] |945|  ; [ORIG 16-BIT INS]
    1159                            ; BRANCHCC OCCURS {||$C$L15||}   ; [] |945| 
    1160                    ;* --------------------------------------------------------------------------*
    1161                            .dwpsn  file "../Application/Services/nvoctp.c",line 949,column 5,is_stmt,isa 1
    1162 00000042 4C19              LDR       V1, $C$CON3           ; [DPU_V7M3_PIPE] |949|  ; [ORIG 16-BIT INS]
    1163 00000044 7920              LDRB      A1, [V1, #4]          ; [DPU_V7M3_PIPE] |949|  ; [ORIG 16-BIT INS]
    1164 00000046 2803              CMP       A1, #3                ; [DPU_V7M3_PIPE] |949|  ; [ORIG 16-BIT INS]
    1165 00000048 BF08              IT        EQ                    ; [DPU_V7M3_PIPE]  ; [ORIG 16-BIT INS]
    1166                            .dwpsn  file "../Application/Services/nvoctp.c",line 952,column 9,is_stmt,isa 1
    1167 0000004a 2003              MOVEQ     A1, #3                ; [DPU_V7M3_PIPE] |952|  ; [ORIG 16-BIT INS]
    1168 0000004c D027              BEQ       ||$C$L15||            ; [DPU_V7M3_PIPE] |952|  ; [ORIG 16-BIT INS]
    1169                            ; BRANCHCC OCCURS {||$C$L15||}   ; [] |952| 
    1170                    ;* --------------------------------------------------------------------------*
    1171                            .dwpsn  file "../Application/Services/nvoctp.c",line 956,column 5,is_stmt,isa 1
    1172 0000004e 0B00F04F          MOV       V8, #0                ; [DPU_V7M3_PIPE] |956|  ; [KEEP 32-BIT INS]
    1173                            .dwpsn  file "../Application/Services/nvoctp.c",line 960,column 5,is_stmt,isa 1
    1174 00000052 013FF009          AND       A2, V6, #63           ; [DPU_V7M3_PIPE] |960|  ; [KEEP 32-BIT INS]
    1175 00000056 0009F3C8          UBFX      A1, V5, #0, #10       ; [DPU_V7M3_PIPE] |960|  ; [KEEP 32-BIT INS]
    1176 0000005a 0509F3C7          UBFX      V2, V4, #0, #10       ; [DPU_V7M3_PIPE] |960|  ; [KEEP 32-BIT INS]
    1177                            .dwpsn  file "../Application/Services/nvoctp.c",line 956,column 5,is_stmt,isa 1
    1178 0000005e B005F884          STRB      V8, [V1, #5]          ; [DPU_V7M3_PIPE] |956|  ; [KEEP 32-BIT INS]
    1179                            .dwpsn  file "../Application/Services/nvoctp.c",line 960,column 5,is_stmt,isa 1
    1180 00000062 3001EA40          ORR       A1, A1, A2, LSL #12   ; [DPU_V7M3_PIPE] |960|  ; [KEEP 32-BIT INS]
    1181 00000066 3500EA45          ORR       V2, V2, A1, LSL #12   ; [DPU_V7M3_PIPE] |960|  ; [KEEP 32-BIT INS]
    1182 0000006a 88E1              LDRH      A2, [V1, #6]          ; [DPU_V7M3_PIPE] |960|  ; [ORIG 16-BIT INS]
    1183 0000006c 78A0              LDRB      A1, [V1, #2]          ; [DPU_V7M3_PIPE] |960|  ; [ORIG 16-BIT INS]
    1184 0000006e 462A              MOV       A3, V2                ; [DPU_V7M3_PIPE] |960|  ; [ORIG 16-BIT INS]
    1185                    $C$DW$95        .dwtag  DW_TAG_TI_branch
    1186                            .dwattr $C$DW$95, DW_AT_low_pc(0x00)
    1187                            .dwattr $C$DW$95, DW_AT_name("NVOCTP_findItem")
    1188                            .dwattr $C$DW$95, DW_AT_TI_call
    1189                    
    1190 00000070 FFFEF7FF!         BL        NVOCTP_findItem       ; [DPU_V7M3_PIPE] |960|  ; [KEEP 32-BIT INS]
    1191                            ; CALL OCCURS {NVOCTP_findItem }  ; [] |960| 
    1192 00000074 4601              MOV       A2, A1                ; [DPU_V7M3_PIPE] |960|  ; [ORIG 16-BIT INS]
    1193 00000076 2900              CMP       A2, #0                ; [DPU_V7M3_PIPE] |960|  ; [ORIG 16-BIT INS]
    1194 00000078 DC0B              BGT       ||$C$L14||            ; [DPU_V7M3_PIPE] |960|  ; [ORIG 16-BIT INS]
    1195                            ; BRANCHCC OCCURS {||$C$L14||}   ; [] |960| 
    1196                    ;* --------------------------------------------------------------------------*
    1197                            .dwpsn  file "../Application/Services/nvoctp.c",line 964,column 9,is_stmt,isa 1
    1198 0000007a A00CF8A6          STRH      V7, [V3, #12]         ; [DPU_V7M3_PIPE] |964|  ; [KEEP 32-BIT INS]
    1199                            .dwpsn  file "../Application/Services/nvoctp.c",line 965,column 9,is_stmt,isa 1
    1200 0000007e B00AF8A6          STRH      V8, [V3, #10]         ; [DPU_V7M3_PIPE] |965|  ; [KEEP 32-BIT INS]
    1201                            .dwpsn  file "../Application/Services/nvoctp.c",line 966,column 9,is_stmt,isa 1
    1202 00000082 6035              STR       V2, [V3, #0]          ; [DPU_V7M3_PIPE] |966|  ; [ORIG 16-BIT INS]
    1203                            .dwpsn  file "../Application/Services/nvoctp.c",line 967,column 9,is_stmt,isa 1
    1204 00000084 80B7              STRH      V4, [V3, #4]          ; [DPU_V7M3_PIPE] |967|  ; [ORIG 16-BIT INS]
    1205                            .dwpsn  file "../Application/Services/nvoctp.c",line 968,column 9,is_stmt,isa 1
    1206 00000086 8006F8A6          STRH      V5, [V3, #6]          ; [DPU_V7M3_PIPE] |968|  ; [KEEP 32-BIT INS]
    1207                            .dwpsn  file "../Application/Services/nvoctp.c",line 969,column 9,is_stmt,isa 1
    1208 0000008a 9008F886          STRB      V6, [V3, #8]          ; [DPU_V7M3_PIPE] |969|  ; [KEEP 32-BIT INS]
    1209                            .dwpsn  file "../Application/Services/nvoctp.c",line 970,column 9,is_stmt,isa 1
    1210 0000008e 200A              MOVS      A1, #10               ; [DPU_V7M3_PIPE] |970|  ; [ORIG 16-BIT INS]
TI ARM Assembler PC v18.1.1 Wed Apr 25 09:49:37 2018

Tools Copyright (c) 1996-2017 Texas Instruments Incorporated
C:\Users\devops\AppData\Local\Temp\2\{20EEA8E7-9EAD-4D8F-95A1-C84FA7AD0574} PAGE   23

    1211 00000090 E005              B         ||$C$L15||            ; [DPU_V7M3_PIPE] |970|  ; [ORIG 16-BIT INS]
    1212                            ; BRANCH OCCURS {||$C$L15||}     ; [] |970| 
    1213                    ;* --------------------------------------------------------------------------*
    1214 00000092           ||$C$L14||:    
    1215                            .dwpsn  file "../Application/Services/nvoctp.c",line 974,column 5,is_stmt,isa 1
    1216 00000092 78A0              LDRB      A1, [V1, #2]          ; [DPU_V7M3_PIPE] |974|  ; [ORIG 16-BIT INS]
    1217 00000094 B289              UXTH      A2, A2                ; [DPU_V7M3_PIPE] |974|  ; [ORIG 16-BIT INS]
    1218 00000096 4632              MOV       A3, V3                ; [DPU_V7M3_PIPE] |974|  ; [ORIG 16-BIT INS]
    1219                    $C$DW$96        .dwtag  DW_TAG_TI_branch
    1220                            .dwattr $C$DW$96, DW_AT_low_pc(0x00)
    1221                            .dwattr $C$DW$96, DW_AT_name("NVOCTP_readHeader")
    1222                            .dwattr $C$DW$96, DW_AT_TI_call
    1223                    
    1224 00000098 FFFEF7FF!         BL        NVOCTP_readHeader     ; [DPU_V7M3_PIPE] |974|  ; [KEEP 32-BIT INS]
    1225                            ; CALL OCCURS {NVOCTP_readHeader }  ; [] |974| 
    1226                            .dwpsn  file "../Application/Services/nvoctp.c",line 976,column 5,is_stmt,isa 1
    1227 0000009c 7960              LDRB      A1, [V1, #5]          ; [DPU_V7M3_PIPE] |976|  ; [ORIG 16-BIT INS]
    1228                    ;* --------------------------------------------------------------------------*
    1229 0000009e           ||$C$L15||:    
    1230 0000009e B001              ADD       SP, SP, #4            ; [DPU_V7M3_PIPE]  ; [ORIG 16-BIT INS]
    1231                            .dwcfi  cfa_offset, 44
    1232 000000a0 4FF0E8BD          POP       {V1, V2, V3, V4, V5, V6, V7, V8, LR} ; [DPU_V7M3_PIPE]  ; [KEEP 32-BIT INS]
    1233                            .dwcfi  cfa_offset, 8
    1234                            .dwcfi  restore_reg, 14
    1235                            .dwcfi  restore_reg, 11
    1236                            .dwcfi  restore_reg, 10
    1237                            .dwcfi  restore_reg, 9
    1238                            .dwcfi  restore_reg, 8
    1239                            .dwcfi  restore_reg, 7
    1240                            .dwcfi  restore_reg, 6
    1241                            .dwcfi  restore_reg, 5
    1242                            .dwcfi  restore_reg, 4
    1243 000000a4 B002              ADD       SP, SP, #8            ; [DPU_V7M3_PIPE]  ; [ORIG 16-BIT INS]
    1244                            .dwcfi  cfa_offset, 0
    1245                    $C$DW$97        .dwtag  DW_TAG_TI_branch
    1246                            .dwattr $C$DW$97, DW_AT_low_pc(0x00)
    1247                            .dwattr $C$DW$97, DW_AT_TI_return
    1248                    
    1249 000000a6 4770              BX        LR                    ; [DPU_V7M3_PIPE]  ; [ORIG 16-BIT INS]
    1250                            ; BRANCH OCCURS                  ; [] 
    1251                            .dwattr $C$DW$88, DW_AT_TI_end_file("../Application/Services/nvoctp.c")
    1252                            .dwattr $C$DW$88, DW_AT_TI_end_line(0x3d1)
    1253                            .dwattr $C$DW$88, DW_AT_TI_end_column(0x01)
    1254                            .dwendentry
    1255                            .dwendtag $C$DW$88
    1256                    
    1257 00000000                   .sect   ".text:NVOCTP_readByte"
    1258                            .clink
    1259                            .thumbfunc NVOCTP_readByte
    1260 00000000                   .thumb
    1261                    
    1262                    $C$DW$98        .dwtag  DW_TAG_subprogram
    1263                            .dwattr $C$DW$98, DW_AT_name("NVOCTP_readByte")
    1264                            .dwattr $C$DW$98, DW_AT_low_pc(NVOCTP_readByte)
    1265                            .dwattr $C$DW$98, DW_AT_high_pc(0x00)
TI ARM Assembler PC v18.1.1 Wed Apr 25 09:49:37 2018

Tools Copyright (c) 1996-2017 Texas Instruments Incorporated
C:\Users\devops\AppData\Local\Temp\2\{20EEA8E7-9EAD-4D8F-95A1-C84FA7AD0574} PAGE   24

    1266                            .dwattr $C$DW$98, DW_AT_TI_symbol_name("NVOCTP_readByte")
    1267                            .dwattr $C$DW$98, DW_AT_type(*$C$DW$T$131)
    1268                            .dwattr $C$DW$98, DW_AT_TI_begin_file("../Application/Services/nvoctp.c")
    1269                            .dwattr $C$DW$98, DW_AT_TI_begin_line(0x6ce)
    1270                            .dwattr $C$DW$98, DW_AT_TI_begin_column(0x10)
    1271                            .dwattr $C$DW$98, DW_AT_decl_file("../Application/Services/nvoctp.c")
    1272                            .dwattr $C$DW$98, DW_AT_decl_line(0x6ce)
    1273                            .dwattr $C$DW$98, DW_AT_decl_column(0x10)
    1274                            .dwattr $C$DW$98, DW_AT_TI_max_frame_size(0x00)
    1275                            .dwpsn  file "../Application/Services/nvoctp.c",line 1744,column 1,is_stmt,address NVOCTP_read
    1276                    
    1277                            .dwfde $C$DW$CIE, NVOCTP_readByte
    1278                    $C$DW$99        .dwtag  DW_TAG_formal_parameter
    1279                            .dwattr $C$DW$99, DW_AT_name("pg")
    1280                            .dwattr $C$DW$99, DW_AT_TI_symbol_name("pg")
    1281                            .dwattr $C$DW$99, DW_AT_type(*$C$DW$T$131)
    1282                            .dwattr $C$DW$99, DW_AT_location[DW_OP_reg0]
    1283                    
    1284                    $C$DW$100       .dwtag  DW_TAG_formal_parameter
    1285                            .dwattr $C$DW$100, DW_AT_name("ofs")
    1286                            .dwattr $C$DW$100, DW_AT_TI_symbol_name("ofs")
    1287                            .dwattr $C$DW$100, DW_AT_type(*$C$DW$T$129)
    1288                            .dwattr $C$DW$100, DW_AT_location[DW_OP_reg1]
    1289                    
    1290                    
    1291                    ;*****************************************************************************
    1292                    ;* FUNCTION NAME: NVOCTP_readByte                                            *
    1293                    ;*                                                                           *
    1294                    ;*   Regs Modified     : A1,SR                                               *
    1295                    ;*   Regs Used         : A1,A2,LR,SR                                         *
    1296                    ;*   Local Frame Size  : 0 Args + 0 Auto + 0 Save = 0 byte                   *
    1297                    ;*****************************************************************************
    1298                    NVOCTP_readByte:
    1299                    ;* --------------------------------------------------------------------------*
    1300                    ;* A1    assigned to pg
    1301                    $C$DW$101       .dwtag  DW_TAG_variable
    1302                            .dwattr $C$DW$101, DW_AT_name("pg")
    1303                            .dwattr $C$DW$101, DW_AT_TI_symbol_name("pg")
    1304                            .dwattr $C$DW$101, DW_AT_type(*$C$DW$T$1106)
    1305                            .dwattr $C$DW$101, DW_AT_location[DW_OP_reg0]
    1306                    
    1307                    ;* A2    assigned to ofs
    1308                    $C$DW$102       .dwtag  DW_TAG_variable
    1309                            .dwattr $C$DW$102, DW_AT_name("ofs")
    1310                            .dwattr $C$DW$102, DW_AT_TI_symbol_name("ofs")
    1311                            .dwattr $C$DW$102, DW_AT_type(*$C$DW$T$1144)
    1312                            .dwattr $C$DW$102, DW_AT_location[DW_OP_reg1]
    1313                    
    1314                            .dwcfi  cfa_offset, 0
    1315                            .dwpsn  file "../Application/Services/nvoctp.c",line 1748,column 5,is_stmt,isa 1
    1316 00000000 0300              LSLS      A1, A1, #12           ; [DPU_V7M3_PIPE] |1748|  ; [ORIG 16-BIT INS]
    1317 00000002 5C08              LDRB      A1, [A2, +A1]         ; [DPU_V7M3_PIPE] |1748|  ; [ORIG 16-BIT INS]
    1318                    $C$DW$103       .dwtag  DW_TAG_TI_branch
    1319                            .dwattr $C$DW$103, DW_AT_low_pc(0x00)
    1320                            .dwattr $C$DW$103, DW_AT_TI_return
TI ARM Assembler PC v18.1.1 Wed Apr 25 09:49:37 2018

Tools Copyright (c) 1996-2017 Texas Instruments Incorporated
C:\Users\devops\AppData\Local\Temp\2\{20EEA8E7-9EAD-4D8F-95A1-C84FA7AD0574} PAGE   25

    1321                    
    1322 00000004 4770              BX        LR                    ; [DPU_V7M3_PIPE]  ; [ORIG 16-BIT INS]
    1323                            ; BRANCH OCCURS                  ; [] 
    1324                            .dwattr $C$DW$98, DW_AT_TI_end_file("../Application/Services/nvoctp.c")
    1325                            .dwattr $C$DW$98, DW_AT_TI_end_line(0x6d5)
    1326                            .dwattr $C$DW$98, DW_AT_TI_end_column(0x01)
    1327                            .dwendentry
    1328                            .dwendtag $C$DW$98
    1329                    
    1330 00000000                   .sect   ".text:NVOCTP_isErased"
    1331                            .clink
    1332                            .thumbfunc NVOCTP_isErased
    1333 00000000                   .thumb
    1334                    
    1335                    $C$DW$104       .dwtag  DW_TAG_subprogram
    1336                            .dwattr $C$DW$104, DW_AT_name("NVOCTP_isErased")
    1337                            .dwattr $C$DW$104, DW_AT_low_pc(NVOCTP_isErased)
    1338                            .dwattr $C$DW$104, DW_AT_high_pc(0x00)
    1339                            .dwattr $C$DW$104, DW_AT_TI_symbol_name("NVOCTP_isErased")
    1340                            .dwattr $C$DW$104, DW_AT_type(*$C$DW$T$277)
    1341                            .dwattr $C$DW$104, DW_AT_TI_begin_file("../Application/Services/nvoctp.c")
    1342                            .dwattr $C$DW$104, DW_AT_TI_begin_line(0x77d)
    1343                            .dwattr $C$DW$104, DW_AT_TI_begin_column(0x0d)
    1344                            .dwattr $C$DW$104, DW_AT_decl_file("../Application/Services/nvoctp.c")
    1345                            .dwattr $C$DW$104, DW_AT_decl_line(0x77d)
    1346                            .dwattr $C$DW$104, DW_AT_decl_column(0x0d)
    1347                            .dwattr $C$DW$104, DW_AT_TI_max_frame_size(0x00)
    1348                            .dwpsn  file "../Application/Services/nvoctp.c",line 1920,column 1,is_stmt,address NVOCTP_isEr
    1349                    
    1350                            .dwfde $C$DW$CIE, NVOCTP_isErased
    1351                    $C$DW$105       .dwtag  DW_TAG_formal_parameter
    1352                            .dwattr $C$DW$105, DW_AT_name("pg")
    1353                            .dwattr $C$DW$105, DW_AT_TI_symbol_name("pg")
    1354                            .dwattr $C$DW$105, DW_AT_type(*$C$DW$T$131)
    1355                            .dwattr $C$DW$105, DW_AT_location[DW_OP_reg0]
    1356                    
    1357                    $C$DW$106       .dwtag  DW_TAG_formal_parameter
    1358                            .dwattr $C$DW$106, DW_AT_name("ofs")
    1359                            .dwattr $C$DW$106, DW_AT_TI_symbol_name("ofs")
    1360                            .dwattr $C$DW$106, DW_AT_type(*$C$DW$T$129)
    1361                            .dwattr $C$DW$106, DW_AT_location[DW_OP_reg1]
    1362                    
    1363                    $C$DW$107       .dwtag  DW_TAG_formal_parameter
    1364                            .dwattr $C$DW$107, DW_AT_name("num")
    1365                            .dwattr $C$DW$107, DW_AT_TI_symbol_name("num")
    1366                            .dwattr $C$DW$107, DW_AT_type(*$C$DW$T$129)
    1367                            .dwattr $C$DW$107, DW_AT_location[DW_OP_reg2]
    1368                    
    1369                    
    1370                    ;*****************************************************************************
    1371                    ;* FUNCTION NAME: NVOCTP_isErased                                            *
    1372                    ;*                                                                           *
    1373                    ;*   Regs Modified     : A1,A2,A3,SR                                         *
    1374                    ;*   Regs Used         : A1,A2,A3,LR,SR                                      *
    1375                    ;*   Local Frame Size  : 0 Args + 0 Auto + 0 Save = 0 byte                   *
TI ARM Assembler PC v18.1.1 Wed Apr 25 09:49:37 2018

Tools Copyright (c) 1996-2017 Texas Instruments Incorporated
C:\Users\devops\AppData\Local\Temp\2\{20EEA8E7-9EAD-4D8F-95A1-C84FA7AD0574} PAGE   26

    1376                    ;*****************************************************************************
    1377                    NVOCTP_isErased:
    1378                    ;* --------------------------------------------------------------------------*
    1379                    ;* A1    assigned to pg
    1380                    $C$DW$108       .dwtag  DW_TAG_variable
    1381                            .dwattr $C$DW$108, DW_AT_name("pg")
    1382                            .dwattr $C$DW$108, DW_AT_TI_symbol_name("pg")
    1383                            .dwattr $C$DW$108, DW_AT_type(*$C$DW$T$1106)
    1384                            .dwattr $C$DW$108, DW_AT_location[DW_OP_reg0]
    1385                    
    1386                    ;* A2    assigned to ofs
    1387                    $C$DW$109       .dwtag  DW_TAG_variable
    1388                            .dwattr $C$DW$109, DW_AT_name("ofs")
    1389                            .dwattr $C$DW$109, DW_AT_TI_symbol_name("ofs")
    1390                            .dwattr $C$DW$109, DW_AT_type(*$C$DW$T$1144)
    1391                            .dwattr $C$DW$109, DW_AT_location[DW_OP_reg1]
    1392                    
    1393                    ;* A3    assigned to num
    1394                    $C$DW$110       .dwtag  DW_TAG_variable
    1395                            .dwattr $C$DW$110, DW_AT_name("num")
    1396                            .dwattr $C$DW$110, DW_AT_TI_symbol_name("num")
    1397                            .dwattr $C$DW$110, DW_AT_type(*$C$DW$T$129)
    1398                            .dwattr $C$DW$110, DW_AT_location[DW_OP_reg2]
    1399                    
    1400                    ;* A2    assigned to addr
    1401                    $C$DW$111       .dwtag  DW_TAG_variable
    1402                            .dwattr $C$DW$111, DW_AT_name("addr")
    1403                            .dwattr $C$DW$111, DW_AT_TI_symbol_name("addr")
    1404                            .dwattr $C$DW$111, DW_AT_type(*$C$DW$T$135)
    1405                            .dwattr $C$DW$111, DW_AT_location[DW_OP_reg1]
    1406                    
    1407                            .dwcfi  cfa_offset, 0
    1408                            .dwpsn  file "../Application/Services/nvoctp.c",line 1922,column 19,is_stmt,isa 1
    1409 00000000 3100EB01          ADD       A2, A2, A1, LSL #12   ; [DPU_V7M3_PIPE] |1922|  ; [KEEP 32-BIT INS]
    1410 00000004 1C49              ADDS      A2, A2, #1            ; [DPU_V7M3_PIPE] |1922|  ; [ORIG 16-BIT INS]
    1411                    ;* --------------------------------------------------------------------------*
    1412                    ;*   BEGIN LOOP ||$C$L16||
    1413                    ;*
    1414                    ;*   Loop source line                : 1925
    1415                    ;*   Loop closing brace source line  : 1932
    1416                    ;*   Known Minimum Trip Count        : 1
    1417                    ;*   Known Maximum Trip Count        : 4294967295
    1418                    ;*   Known Max Trip Count Factor     : 1
    1419                    ;* --------------------------------------------------------------------------*
    1420 00000006           ||$C$L16||:    
    1421                            .dwpsn  file "../Application/Services/nvoctp.c",line 1925,column 5,is_stmt,isa 1
    1422 00000006 4610              MOV       A1, A3                ; [DPU_V7M3_PIPE] |1925|  ; [ORIG 16-BIT INS]
    1423 00000008 1E42              SUBS      A3, A1, #1            ; [DPU_V7M3_PIPE] |1925|  ; [ORIG 16-BIT INS]
    1424 0000000a 2800              CMP       A1, #0                ; [DPU_V7M3_PIPE] |1925|  ; [ORIG 16-BIT INS]
    1425 0000000c B292              UXTH      A3, A3                ; [DPU_V7M3_PIPE] |1925|  ; [ORIG 16-BIT INS]
    1426 0000000e BF08              IT        EQ                    ; [DPU_V7M3_PIPE]  ; [ORIG 16-BIT INS]
    1427                            .dwpsn  file "../Application/Services/nvoctp.c",line 1935,column 5,is_stmt,isa 1
    1428 00000010 2001              MOVEQ     A1, #1                ; [DPU_V7M3_PIPE] |1935|  ; [ORIG 16-BIT INS]
    1429 00000012 D004              BEQ       ||$C$L17||            ; [DPU_V7M3_PIPE] |1935|  ; [ORIG 16-BIT INS]
    1430                            ; BRANCHCC OCCURS {||$C$L17||}   ; [] |1935| 
TI ARM Assembler PC v18.1.1 Wed Apr 25 09:49:37 2018

Tools Copyright (c) 1996-2017 Texas Instruments Incorporated
C:\Users\devops\AppData\Local\Temp\2\{20EEA8E7-9EAD-4D8F-95A1-C84FA7AD0574} PAGE   27

    1431                    ;* --------------------------------------------------------------------------*
    1432                            .dwpsn  file "../Application/Services/nvoctp.c",line 1927,column 9,is_stmt,isa 1
    1433 00000014 0D01F811          LDRB      A1, [A2, #-1]!        ; [DPU_V7M3_PIPE] |1927|  ; [KEEP 32-BIT INS]
    1434 00000018 28FF              CMP       A1, #255              ; [DPU_V7M3_PIPE] |1927|  ; [ORIG 16-BIT INS]
    1435 0000001a D0F4              BEQ       ||$C$L16||            ; [DPU_V7M3_PIPE] |1927|  ; [ORIG 16-BIT INS]
    1436                            ; BRANCHCC OCCURS {||$C$L16||}   ; [] |1927| 
    1437                    ;* --------------------------------------------------------------------------*
    1438                            .dwpsn  file "../Application/Services/nvoctp.c",line 1930,column 13,is_stmt,isa 1
    1439 0000001c 2000              MOVS      A1, #0                ; [DPU_V7M3_PIPE] |1930|  ; [ORIG 16-BIT INS]
    1440                    ;* --------------------------------------------------------------------------*
    1441                    ||$C$L17||:    
    1442                    $C$DW$112       .dwtag  DW_TAG_TI_branch
    1443                            .dwattr $C$DW$112, DW_AT_low_pc(0x00)
    1444                            .dwattr $C$DW$112, DW_AT_TI_return
    1445                    
    1446 0000001e 4770              BX        LR                    ; [DPU_V7M3_PIPE]  ; [ORIG 16-BIT INS]
    1447                            ; BRANCH OCCURS                  ; [] 
    1448                            .dwattr $C$DW$104, DW_AT_TI_end_file("../Application/Services/nvoctp.c")
    1449                            .dwattr $C$DW$104, DW_AT_TI_end_line(0x790)
    1450                            .dwattr $C$DW$104, DW_AT_TI_end_column(0x01)
    1451                            .dwendentry
    1452                            .dwendtag $C$DW$104
    1453                    
    1454 00000000                   .sect   ".text:NVOCTP_getItemLenApi"
    1455                            .clink
    1456                            .thumbfunc NVOCTP_getItemLenApi
    1457 00000000                   .thumb
    1458                    
    1459                    $C$DW$113       .dwtag  DW_TAG_subprogram
    1460                            .dwattr $C$DW$113, DW_AT_name("NVOCTP_getItemLenApi")
    1461                            .dwattr $C$DW$113, DW_AT_low_pc(NVOCTP_getItemLenApi)
    1462                            .dwattr $C$DW$113, DW_AT_high_pc(0x00)
    1463                            .dwattr $C$DW$113, DW_AT_TI_symbol_name("NVOCTP_getItemLenApi")
    1464                            .dwattr $C$DW$113, DW_AT_type(*$C$DW$T$127)
    1465                            .dwattr $C$DW$113, DW_AT_TI_begin_file("../Application/Services/nvoctp.c")
    1466                            .dwattr $C$DW$113, DW_AT_TI_begin_line(0x2e1)
    1467                            .dwattr $C$DW$113, DW_AT_TI_begin_column(0x11)
    1468                            .dwattr $C$DW$113, DW_AT_decl_file("../Application/Services/nvoctp.c")
    1469                            .dwattr $C$DW$113, DW_AT_decl_line(0x2e1)
    1470                            .dwattr $C$DW$113, DW_AT_decl_column(0x11)
    1471                            .dwattr $C$DW$113, DW_AT_TI_max_frame_size(0x30)
    1472                            .dwpsn  file "../Application/Services/nvoctp.c",line 738,column 1,is_stmt,address NVOCTP_getIt
    1473                    
    1474                            .dwfde $C$DW$CIE, NVOCTP_getItemLenApi
    1475                    $C$DW$114       .dwtag  DW_TAG_formal_parameter
    1476                            .dwattr $C$DW$114, DW_AT_name("id")
    1477                            .dwattr $C$DW$114, DW_AT_TI_symbol_name("id")
    1478                            .dwattr $C$DW$114, DW_AT_type(*$C$DW$T$341)
    1479                            .dwattr $C$DW$114, DW_AT_location[DW_OP_breg13 40]
    1480                    
    1481                    
    1482                    ;*****************************************************************************
    1483                    ;* FUNCTION NAME: NVOCTP_getItemLenApi                                       *
    1484                    ;*                                                                           *
    1485                    ;*   Regs Modified     : A1,A2,A3,A4,V1,V2,V4,V9,SP,LR,SR                    *
TI ARM Assembler PC v18.1.1 Wed Apr 25 09:49:37 2018

Tools Copyright (c) 1996-2017 Texas Instruments Incorporated
C:\Users\devops\AppData\Local\Temp\2\{20EEA8E7-9EAD-4D8F-95A1-C84FA7AD0574} PAGE   28

    1486                    ;*   Regs Used         : A1,A2,A3,A4,V1,V2,V4,V9,SP,LR,SR                    *
    1487                    ;*   Local Frame Size  : 0 Args + 24 Auto + 16 Save = 40 byte                *
    1488                    ;*****************************************************************************
    1489                    NVOCTP_getItemLenApi:
    1490                    ;* --------------------------------------------------------------------------*
    1491                    $C$DW$115       .dwtag  DW_TAG_variable
    1492                            .dwattr $C$DW$115, DW_AT_name("iHdr")
    1493                            .dwattr $C$DW$115, DW_AT_TI_symbol_name("iHdr")
    1494                            .dwattr $C$DW$115, DW_AT_type(*$C$DW$T$133)
    1495                            .dwattr $C$DW$115, DW_AT_location[DW_OP_breg13 0]
    1496                    
    1497                    ;* V1    assigned to $O$K5
    1498                    ;* V2    assigned to len
    1499                    $C$DW$116       .dwtag  DW_TAG_variable
    1500                            .dwattr $C$DW$116, DW_AT_name("len")
    1501                            .dwattr $C$DW$116, DW_AT_TI_symbol_name("len")
    1502                            .dwattr $C$DW$116, DW_AT_type(*$C$DW$T$127)
    1503                            .dwattr $C$DW$116, DW_AT_location[DW_OP_reg5]
    1504                    
    1505                            .dwcfi  cfa_offset, 0
    1506 00000000 B403              PUSH      {A1, A2}              ; [DPU_V7M3_PIPE]  ; [ORIG 16-BIT INS]
    1507                            .dwcfi  cfa_offset, 8
    1508                            .dwcfi  save_reg_to_mem, 1, -4
    1509                            .dwcfi  save_reg_to_mem, 0, -8
    1510 00000002 B5B0              PUSH      {V1, V2, V4, LR}      ; [DPU_V7M3_PIPE]  ; [ORIG 16-BIT INS]
    1511                            .dwcfi  cfa_offset, 24
    1512                            .dwcfi  save_reg_to_mem, 14, -12
    1513                            .dwcfi  save_reg_to_mem, 7, -16
    1514                            .dwcfi  save_reg_to_mem, 5, -20
    1515                            .dwcfi  save_reg_to_mem, 4, -24
    1516                            .dwpsn  file "../Application/Services/nvoctp.c",line 744,column 5,is_stmt,isa 1
    1517 00000004 4C11              LDR       V1, $C$CON6           ; [DPU_V7M3_PIPE] |744|  ; [ORIG 16-BIT INS]
    1518 00000006 0008F104          ADD       A1, V1, #8            ; [DPU_V7M3_PIPE]  ; [KEEP 32-BIT INS]
    1519 0000000a 6800              LDR       A1, [A1, #0]          ; [DPU_V7M3_PIPE] |744|  ; [ORIG 16-BIT INS]
    1520 0000000c 31FFF04F          MOV       A2, #-1               ; [DPU_V7M3_PIPE] |744|  ; [KEEP 32-BIT INS]
    1521 00000010 AF04              ADD       V4, SP, #16           ; [DPU_V7M3_PIPE]  ; [ORIG 16-BIT INS]
    1522 00000012 0D18F1AD          SUB       SP, SP, #24           ; [DPU_V7M3_PIPE]  ; [KEEP 32-BIT INS]
    1523                            .dwcfi  cfa_offset, 48
    1524                    $C$DW$117       .dwtag  DW_TAG_TI_branch
    1525                            .dwattr $C$DW$117, DW_AT_low_pc(0x00)
    1526                            .dwattr $C$DW$117, DW_AT_name("ti_sysbios_knl_Semaphore_pend__E")
    1527                            .dwattr $C$DW$117, DW_AT_TI_call
    1528                    
    1529 00000016 FFFEF7FF!         BL        ti_sysbios_knl_Semaphore_pend__E ; [DPU_V7M3_PIPE] |744|  ; [KEEP 32-BIT INS]
    1530                            ; CALL OCCURS {ti_sysbios_knl_Semaphore_pend__E }  ; [] |744| 
    1531                            .dwpsn  file "../Application/Services/nvoctp.c",line 746,column 5,is_stmt,isa 1
    1532 0000001a 6839              LDR       A2, [V4, #0]          ; [DPU_V7M3_PIPE] |746|  ; [ORIG 16-BIT INS]
    1533 0000001c A804              ADD       A1, SP, #16           ; [DPU_V7M3_PIPE] |746|  ; [ORIG 16-BIT INS]
    1534 0000001e 6001              STR       A2, [A1, #0]          ; [DPU_V7M3_PIPE] |746|  ; [ORIG 16-BIT INS]
    1535 00000020 88B9              LDRH      A2, [V4, #4]          ; [DPU_V7M3_PIPE] |746|  ; [ORIG 16-BIT INS]
    1536 00000022 8081              STRH      A2, [A1, #4]          ; [DPU_V7M3_PIPE] |746|  ; [ORIG 16-BIT INS]
    1537 00000024 A804              ADD       A1, SP, #16           ; [DPU_V7M3_PIPE] |746|  ; [ORIG 16-BIT INS]
    1538 00000026 C803              LDMIA     A1, {A1,A2}           ; [DPU_V7M3_PIPE] |746|  ; [ORIG 16-BIT INS]
    1539 00000028 2200              MOVS      A3, #0                ; [DPU_V7M3_PIPE] |746|  ; [ORIG 16-BIT INS]
    1540 0000002a 466B              MOV       A4, SP                ; [DPU_V7M3_PIPE] |746|  ; [ORIG 16-BIT INS]
TI ARM Assembler PC v18.1.1 Wed Apr 25 09:49:37 2018

Tools Copyright (c) 1996-2017 Texas Instruments Incorporated
C:\Users\devops\AppData\Local\Temp\2\{20EEA8E7-9EAD-4D8F-95A1-C84FA7AD0574} PAGE   29

    1541                    $C$DW$118       .dwtag  DW_TAG_TI_branch
    1542                            .dwattr $C$DW$118, DW_AT_low_pc(0x00)
    1543                            .dwattr $C$DW$118, DW_AT_name("NVOCTP_checkItem")
    1544                            .dwattr $C$DW$118, DW_AT_TI_call
    1545                    
    1546 0000002c FFFEF7FF!         BL        NVOCTP_checkItem      ; [DPU_V7M3_PIPE] |746|  ; [KEEP 32-BIT INS]
    1547                            ; CALL OCCURS {NVOCTP_checkItem }  ; [] |746| 
    1548 00000030 2800              CMP       A1, #0                ; [DPU_V7M3_PIPE] |746|  ; [ORIG 16-BIT INS]
    1549 00000032 BF0C              ITE       EQ                    ; [DPU_V7M3_PIPE]  ; [ORIG 16-BIT INS]
    1550                            .dwpsn  file "../Application/Services/nvoctp.c",line 749,column 5,is_stmt,isa 1
    1551 00000034 500CF8BD          LDRHEQ    V2, [SP, #12]         ; [DPU_V7M3_PIPE] |749|  ; [KEEP 32-BIT INS]
    1552 00000038 2500              MOVNE     V2, #0                ; [DPU_V7M3_PIPE] |749|  ; [ORIG 16-BIT INS]
    1553                            .dwpsn  file "../Application/Services/nvoctp.c",line 751,column 5,is_stmt,isa 1
    1554 0000003a 68A0              LDR       A1, [V1, #8]          ; [DPU_V7M3_PIPE] |751|  ; [ORIG 16-BIT INS]
    1555                    $C$DW$119       .dwtag  DW_TAG_TI_branch
    1556                            .dwattr $C$DW$119, DW_AT_low_pc(0x00)
    1557                            .dwattr $C$DW$119, DW_AT_name("ti_sysbios_knl_Semaphore_post__E")
    1558                            .dwattr $C$DW$119, DW_AT_TI_call
    1559                    
    1560 0000003c FFFEF7FF!         BL        ti_sysbios_knl_Semaphore_post__E ; [DPU_V7M3_PIPE] |751|  ; [KEEP 32-BIT INS]
    1561                            ; CALL OCCURS {ti_sysbios_knl_Semaphore_post__E }  ; [] |751| 
    1562 00000040 4628              MOV       A1, V2                ; [DPU_V7M3_PIPE] |751|  ; [ORIG 16-BIT INS]
    1563 00000042 B006              ADD       SP, SP, #24           ; [DPU_V7M3_PIPE]  ; [ORIG 16-BIT INS]
    1564                            .dwcfi  cfa_offset, 24
    1565 00000044 40B0E8BD          POP       {V1, V2, V4, LR}      ; [DPU_V7M3_PIPE]  ; [KEEP 32-BIT INS]
    1566                            .dwcfi  cfa_offset, 8
    1567                            .dwcfi  restore_reg, 14
    1568                            .dwcfi  restore_reg, 7
    1569                            .dwcfi  restore_reg, 5
    1570                            .dwcfi  restore_reg, 4
    1571 00000048 B002              ADD       SP, SP, #8            ; [DPU_V7M3_PIPE]  ; [ORIG 16-BIT INS]
    1572                            .dwcfi  cfa_offset, 0
    1573                    $C$DW$120       .dwtag  DW_TAG_TI_branch
    1574                            .dwattr $C$DW$120, DW_AT_low_pc(0x00)
    1575                            .dwattr $C$DW$120, DW_AT_TI_return
    1576                    
    1577 0000004a 4770              BX        LR                    ; [DPU_V7M3_PIPE]  ; [ORIG 16-BIT INS]
    1578                            ; BRANCH OCCURS                  ; [] 
    1579                            .dwattr $C$DW$113, DW_AT_TI_end_file("../Application/Services/nvoctp.c")
    1580                            .dwattr $C$DW$113, DW_AT_TI_end_line(0x2f0)
    1581                            .dwattr $C$DW$113, DW_AT_TI_end_column(0x01)
    1582                            .dwendentry
    1583                            .dwendtag $C$DW$113
    1584                    
    1585 00000000                   .sect   ".text:NVOCTP_readItemApi"
    1586                            .clink
    1587                            .thumbfunc NVOCTP_readItemApi
    1588 00000000                   .thumb
    1589                    
    1590                    $C$DW$121       .dwtag  DW_TAG_subprogram
    1591                            .dwattr $C$DW$121, DW_AT_name("NVOCTP_readItemApi")
    1592                            .dwattr $C$DW$121, DW_AT_low_pc(NVOCTP_readItemApi)
    1593                            .dwattr $C$DW$121, DW_AT_high_pc(0x00)
    1594                            .dwattr $C$DW$121, DW_AT_TI_symbol_name("NVOCTP_readItemApi")
    1595                            .dwattr $C$DW$121, DW_AT_type(*$C$DW$T$131)
TI ARM Assembler PC v18.1.1 Wed Apr 25 09:49:37 2018

Tools Copyright (c) 1996-2017 Texas Instruments Incorporated
C:\Users\devops\AppData\Local\Temp\2\{20EEA8E7-9EAD-4D8F-95A1-C84FA7AD0574} PAGE   30

    1596                            .dwattr $C$DW$121, DW_AT_TI_begin_file("../Application/Services/nvoctp.c")
    1597                            .dwattr $C$DW$121, DW_AT_TI_begin_line(0x2fe)
    1598                            .dwattr $C$DW$121, DW_AT_TI_begin_column(0x10)
    1599                            .dwattr $C$DW$121, DW_AT_decl_file("../Application/Services/nvoctp.c")
    1600                            .dwattr $C$DW$121, DW_AT_decl_line(0x2fe)
    1601                            .dwattr $C$DW$121, DW_AT_decl_column(0x10)
    1602                            .dwattr $C$DW$121, DW_AT_TI_max_frame_size(0x40)
    1603                            .dwpsn  file "../Application/Services/nvoctp.c",line 770,column 1,is_stmt,address NVOCTP_readI
    1604                    
    1605                            .dwfde $C$DW$CIE, NVOCTP_readItemApi
    1606                    $C$DW$122       .dwtag  DW_TAG_formal_parameter
    1607                            .dwattr $C$DW$122, DW_AT_name("id")
    1608                            .dwattr $C$DW$122, DW_AT_TI_symbol_name("id")
    1609                            .dwattr $C$DW$122, DW_AT_type(*$C$DW$T$341)
    1610                            .dwattr $C$DW$122, DW_AT_location[DW_OP_breg13 56]
    1611                    
    1612                    $C$DW$123       .dwtag  DW_TAG_formal_parameter
    1613                            .dwattr $C$DW$123, DW_AT_name("bOfs")
    1614                            .dwattr $C$DW$123, DW_AT_TI_symbol_name("bOfs")
    1615                            .dwattr $C$DW$123, DW_AT_type(*$C$DW$T$129)
    1616                            .dwattr $C$DW$123, DW_AT_location[DW_OP_reg2]
    1617                    
    1618                    $C$DW$124       .dwtag  DW_TAG_formal_parameter
    1619                            .dwattr $C$DW$124, DW_AT_name("bLen")
    1620                            .dwattr $C$DW$124, DW_AT_TI_symbol_name("bLen")
    1621                            .dwattr $C$DW$124, DW_AT_type(*$C$DW$T$129)
    1622                            .dwattr $C$DW$124, DW_AT_location[DW_OP_reg3]
    1623                    
    1624                    $C$DW$125       .dwtag  DW_TAG_formal_parameter
    1625                            .dwattr $C$DW$125, DW_AT_name("pBuf")
    1626                            .dwattr $C$DW$125, DW_AT_TI_symbol_name("pBuf")
    1627                            .dwattr $C$DW$125, DW_AT_type(*$C$DW$T$3)
    1628                            .dwattr $C$DW$125, DW_AT_location[DW_OP_breg13 64]
    1629                    
    1630                    
    1631                    ;*****************************************************************************
    1632                    ;* FUNCTION NAME: NVOCTP_readItemApi                                         *
    1633                    ;*                                                                           *
    1634                    ;*   Regs Modified     : A1,A2,A3,A4,V1,V2,V3,V4,V5,V6,V9,SP,LR,SR           *
    1635                    ;*   Regs Used         : A1,A2,A3,A4,V1,V2,V3,V4,V5,V6,V9,SP,LR,SR           *
    1636                    ;*   Local Frame Size  : 0 Args + 24 Auto + 28 Save = 52 byte                *
    1637                    ;*****************************************************************************
    1638                    NVOCTP_readItemApi:
    1639                    ;* --------------------------------------------------------------------------*
    1640                    $C$DW$126       .dwtag  DW_TAG_variable
    1641                            .dwattr $C$DW$126, DW_AT_name("iHdr")
    1642                            .dwattr $C$DW$126, DW_AT_TI_symbol_name("iHdr")
    1643                            .dwattr $C$DW$126, DW_AT_type(*$C$DW$T$133)
    1644                            .dwattr $C$DW$126, DW_AT_location[DW_OP_breg13 0]
    1645                    
    1646                    ;* A4    assigned to $O$C16
    1647                    ;* A3    assigned to $O$C17
    1648                    ;* V2    assigned to $O$C18
    1649                    ;* V5    assigned to $O$K8
    1650                    ;* A1    assigned to $O$v3
TI ARM Assembler PC v18.1.1 Wed Apr 25 09:49:37 2018

Tools Copyright (c) 1996-2017 Texas Instruments Incorporated
C:\Users\devops\AppData\Local\Temp\2\{20EEA8E7-9EAD-4D8F-95A1-C84FA7AD0574} PAGE   31

    1651                    ;* V6    assigned to bOfs
    1652                    $C$DW$127       .dwtag  DW_TAG_variable
    1653                            .dwattr $C$DW$127, DW_AT_name("bOfs")
    1654                            .dwattr $C$DW$127, DW_AT_TI_symbol_name("bOfs")
    1655                            .dwattr $C$DW$127, DW_AT_type(*$C$DW$T$1144)
    1656                            .dwattr $C$DW$127, DW_AT_location[DW_OP_reg9]
    1657                    
    1658                    ;* V1    assigned to bLen
    1659                    $C$DW$128       .dwtag  DW_TAG_variable
    1660                            .dwattr $C$DW$128, DW_AT_name("bLen")
    1661                            .dwattr $C$DW$128, DW_AT_TI_symbol_name("bLen")
    1662                            .dwattr $C$DW$128, DW_AT_type(*$C$DW$T$1144)
    1663                            .dwattr $C$DW$128, DW_AT_location[DW_OP_reg4]
    1664                    
    1665                    ;* V3    assigned to err
    1666                    $C$DW$129       .dwtag  DW_TAG_variable
    1667                            .dwattr $C$DW$129, DW_AT_name("err")
    1668                            .dwattr $C$DW$129, DW_AT_TI_symbol_name("err")
    1669                            .dwattr $C$DW$129, DW_AT_type(*$C$DW$T$10)
    1670                            .dwattr $C$DW$129, DW_AT_location[DW_OP_reg6]
    1671                    
    1672                    ;* A2    assigned to dOfs
    1673                    $C$DW$130       .dwtag  DW_TAG_variable
    1674                            .dwattr $C$DW$130, DW_AT_name("dOfs")
    1675                            .dwattr $C$DW$130, DW_AT_TI_symbol_name("dOfs")
    1676                            .dwattr $C$DW$130, DW_AT_type(*$C$DW$T$10)
    1677                            .dwattr $C$DW$130, DW_AT_location[DW_OP_reg1]
    1678                    
    1679                            .dwcfi  cfa_offset, 0
    1680 00000000 B403              PUSH      {A1, A2}              ; [DPU_V7M3_PIPE]  ; [ORIG 16-BIT INS]
    1681                            .dwcfi  cfa_offset, 8
    1682                            .dwcfi  save_reg_to_mem, 1, -4
    1683                            .dwcfi  save_reg_to_mem, 0, -8
    1684 00000002 43F0E92D          PUSH      {V1, V2, V3, V4, V5, V6, LR} ; [DPU_V7M3_PIPE]  ; [KEEP 32-BIT INS]
    1685                            .dwcfi  cfa_offset, 36
    1686                            .dwcfi  save_reg_to_mem, 14, -12
    1687                            .dwcfi  save_reg_to_mem, 9, -16
    1688                            .dwcfi  save_reg_to_mem, 8, -20
    1689                            .dwcfi  save_reg_to_mem, 7, -24
    1690                            .dwcfi  save_reg_to_mem, 6, -28
    1691                            .dwcfi  save_reg_to_mem, 5, -32
    1692                            .dwcfi  save_reg_to_mem, 4, -36
    1693                            .dwpsn  file "../Application/Services/nvoctp.c",line 776,column 5,is_stmt,isa 1
    1694 00000006 4D1C              LDR       V2, $C$CON7           ; [DPU_V7M3_PIPE] |776|  ; [ORIG 16-BIT INS]
    1695 00000008 68A8              LDR       A1, [V2, #8]          ; [DPU_V7M3_PIPE] |776|  ; [ORIG 16-BIT INS]
    1696 0000000a 31FFF04F          MOV       A2, #-1               ; [DPU_V7M3_PIPE] |776|  ; [KEEP 32-BIT INS]
    1697 0000000e AF07              ADD       V4, SP, #28           ; [DPU_V7M3_PIPE]  ; [ORIG 16-BIT INS]
    1698                            .dwpsn  file "../Application/Services/nvoctp.c",line 770,column 1,is_stmt,isa 1
    1699 00000010 461C              MOV       V1, A4                ; [DPU_V7M3_PIPE] |770|  ; [ORIG 16-BIT INS]
    1700 00000012 4691              MOV       V6, A3                ; [DPU_V7M3_PIPE] |770|  ; [ORIG 16-BIT INS]
    1701 00000014 0D1CF1AD          SUB       SP, SP, #28           ; [DPU_V7M3_PIPE]  ; [KEEP 32-BIT INS]
    1702                            .dwcfi  cfa_offset, 64
    1703                            .dwpsn  file "../Application/Services/nvoctp.c",line 776,column 5,is_stmt,isa 1
    1704                    $C$DW$131       .dwtag  DW_TAG_TI_branch
    1705                            .dwattr $C$DW$131, DW_AT_low_pc(0x00)
TI ARM Assembler PC v18.1.1 Wed Apr 25 09:49:37 2018

Tools Copyright (c) 1996-2017 Texas Instruments Incorporated
C:\Users\devops\AppData\Local\Temp\2\{20EEA8E7-9EAD-4D8F-95A1-C84FA7AD0574} PAGE   32

    1706                            .dwattr $C$DW$131, DW_AT_name("ti_sysbios_knl_Semaphore_pend__E")
    1707                            .dwattr $C$DW$131, DW_AT_TI_call
    1708                    
    1709 00000018 FFFEF7FF!         BL        ti_sysbios_knl_Semaphore_pend__E ; [DPU_V7M3_PIPE] |776|  ; [KEEP 32-BIT INS]
    1710                            ; CALL OCCURS {ti_sysbios_knl_Semaphore_pend__E }  ; [] |776| 
    1711                            .dwpsn  file "../Application/Services/nvoctp.c",line 778,column 5,is_stmt,isa 1
    1712 0000001c 6839              LDR       A2, [V4, #0]          ; [DPU_V7M3_PIPE] |778|  ; [ORIG 16-BIT INS]
    1713 0000001e A804              ADD       A1, SP, #16           ; [DPU_V7M3_PIPE] |778|  ; [ORIG 16-BIT INS]
    1714 00000020 6001              STR       A2, [A1, #0]          ; [DPU_V7M3_PIPE] |778|  ; [ORIG 16-BIT INS]
    1715 00000022 88B9              LDRH      A2, [V4, #4]          ; [DPU_V7M3_PIPE] |778|  ; [ORIG 16-BIT INS]
    1716 00000024 8081              STRH      A2, [A1, #4]          ; [DPU_V7M3_PIPE] |778|  ; [ORIG 16-BIT INS]
    1717 00000026 A804              ADD       A1, SP, #16           ; [DPU_V7M3_PIPE] |778|  ; [ORIG 16-BIT INS]
    1718 00000028 C803              LDMIA     A1, {A1,A2}           ; [DPU_V7M3_PIPE] |778|  ; [ORIG 16-BIT INS]
    1719 0000002a 4622              MOV       A3, V1                ; [DPU_V7M3_PIPE] |778|  ; [ORIG 16-BIT INS]
    1720 0000002c 466B              MOV       A4, SP                ; [DPU_V7M3_PIPE] |778|  ; [ORIG 16-BIT INS]
    1721                    $C$DW$132       .dwtag  DW_TAG_TI_branch
    1722                            .dwattr $C$DW$132, DW_AT_low_pc(0x00)
    1723                            .dwattr $C$DW$132, DW_AT_name("NVOCTP_checkItem")
    1724                            .dwattr $C$DW$132, DW_AT_TI_call
    1725                    
    1726 0000002e FFFEF7FF!         BL        NVOCTP_checkItem      ; [DPU_V7M3_PIPE] |778|  ; [KEEP 32-BIT INS]
    1727                            ; CALL OCCURS {NVOCTP_checkItem }  ; [] |778| 
    1728                            .dwpsn  file "../Application/Services/nvoctp.c",line 776,column 5,is_stmt,isa 1
    1729 00000032 46A8              MOV       V5, V2                ; [DPU_V7M3_PIPE] |776|  ; [ORIG 16-BIT INS]
    1730                            .dwpsn  file "../Application/Services/nvoctp.c",line 779,column 5,is_stmt,isa 1
    1731 00000034 1C06              MOVS      V3, A1                ; [DPU_V7M3_PIPE] |779|  ; [ORIG 16-BIT INS]
    1732 00000036 D114              BNE       ||$C$L19||            ; [DPU_V7M3_PIPE] |779|  ; [ORIG 16-BIT INS]
    1733                            ; BRANCHCC OCCURS {||$C$L19||}   ; [] |779| 
    1734                    ;* --------------------------------------------------------------------------*
    1735                            .dwpsn  file "../Application/Services/nvoctp.c",line 782,column 9,is_stmt,isa 1
    1736 00000038 300CF8BD          LDRH      A4, [SP, #12]         ; [DPU_V7M3_PIPE] |782|  ; [KEEP 32-BIT INS]
    1737 0000003c 200AF8BD          LDRH      A3, [SP, #10]         ; [DPU_V7M3_PIPE] |782|  ; [KEEP 32-BIT INS]
    1738 00000040 1AD0              SUBS      A1, A3, A4            ; [DPU_V7M3_PIPE] |782|  ; [ORIG 16-BIT INS]
    1739 00000042 4448              ADD       A1, A1, V6            ; [DPU_V7M3_PIPE] |782|  ; [ORIG 16-BIT INS]
    1740 00000044 B281              UXTH      A2, A1                ; [DPU_V7M3_PIPE] |782|  ; [ORIG 16-BIT INS]
    1741                            .dwpsn  file "../Application/Services/nvoctp.c",line 783,column 9,is_stmt,isa 1
    1742 00000046 0002F898          LDRB      A1, [V5, #2]          ; [DPU_V7M3_PIPE] |783|  ; [KEEP 32-BIT INS]
    1743 0000004a 190D              ADDS      V2, A2, V1            ; [DPU_V7M3_PIPE] |783|  ; [ORIG 16-BIT INS]
    1744 0000004c 42AA              CMP       A3, V2                ; [DPU_V7M3_PIPE] |783|  ; [ORIG 16-BIT INS]
    1745 0000004e DA04              BGE       ||$C$L18||            ; [DPU_V7M3_PIPE] |783|  ; [ORIG 16-BIT INS]
    1746                            ; BRANCHCC OCCURS {||$C$L18||}   ; [] |783| 
    1747                    ;* --------------------------------------------------------------------------*
    1748                            .dwpsn  file "../Application/Services/nvoctp.c",line 791,column 13,is_stmt,isa 1
    1749 00000050 42A3              CMP       A4, V1                ; [DPU_V7M3_PIPE] |791|  ; [ORIG 16-BIT INS]
    1750 00000052 BFB4              ITE       LT                    ; [DPU_V7M3_PIPE]  ; [ORIG 16-BIT INS]
    1751 00000054 2605              MOVLT     V3, #5                ; [DPU_V7M3_PIPE] |791|  ; [ORIG 16-BIT INS]
    1752 00000056 2606              MOVGE     V3, #6                ; [DPU_V7M3_PIPE] |791|  ; [ORIG 16-BIT INS]
    1753 00000058 E003              B         ||$C$L19||            ; [DPU_V7M3_PIPE] |791|  ; [ORIG 16-BIT INS]
    1754                            ; BRANCH OCCURS {||$C$L19||}     ; [] |791| 
    1755                    ;* --------------------------------------------------------------------------*
    1756 0000005a           ||$C$L18||:    
    1757                            .dwpsn  file "../Application/Services/nvoctp.c",line 786,column 13,is_stmt,isa 1
    1758 0000005a 68BB              LDR       A4, [V4, #8]          ; [DPU_V7M3_PIPE] |786|  ; [ORIG 16-BIT INS]
    1759 0000005c 4622              MOV       A3, V1                ; [DPU_V7M3_PIPE] |786|  ; [ORIG 16-BIT INS]
    1760                    $C$DW$133       .dwtag  DW_TAG_TI_branch
TI ARM Assembler PC v18.1.1 Wed Apr 25 09:49:37 2018

Tools Copyright (c) 1996-2017 Texas Instruments Incorporated
C:\Users\devops\AppData\Local\Temp\2\{20EEA8E7-9EAD-4D8F-95A1-C84FA7AD0574} PAGE   33

    1761                            .dwattr $C$DW$133, DW_AT_low_pc(0x00)
    1762                            .dwattr $C$DW$133, DW_AT_name("NVOCTP_flashRead")
    1763                            .dwattr $C$DW$133, DW_AT_TI_call
    1764                    
    1765 0000005e FFFEF7FF!         BL        NVOCTP_flashRead      ; [DPU_V7M3_PIPE] |786|  ; [KEEP 32-BIT INS]
    1766                            ; CALL OCCURS {NVOCTP_flashRead }  ; [] |786| 
    1767                    ;* --------------------------------------------------------------------------*
    1768 00000062           ||$C$L19||:    
    1769                            .dwpsn  file "../Application/Services/nvoctp.c",line 795,column 5,is_stmt,isa 1
    1770 00000062 0008F8D8          LDR       A1, [V5, #8]          ; [DPU_V7M3_PIPE] |795|  ; [KEEP 32-BIT INS]
    1771                    $C$DW$134       .dwtag  DW_TAG_TI_branch
    1772                            .dwattr $C$DW$134, DW_AT_low_pc(0x00)
    1773                            .dwattr $C$DW$134, DW_AT_name("ti_sysbios_knl_Semaphore_post__E")
    1774                            .dwattr $C$DW$134, DW_AT_TI_call
    1775                    
    1776 00000066 FFFEF7FF!         BL        ti_sysbios_knl_Semaphore_post__E ; [DPU_V7M3_PIPE] |795|  ; [KEEP 32-BIT INS]
    1777                            ; CALL OCCURS {ti_sysbios_knl_Semaphore_post__E }  ; [] |795| 
    1778 0000006a 4630              MOV       A1, V3                ; [DPU_V7M3_PIPE] |795|  ; [ORIG 16-BIT INS]
    1779 0000006c B007              ADD       SP, SP, #28           ; [DPU_V7M3_PIPE]  ; [ORIG 16-BIT INS]
    1780                            .dwcfi  cfa_offset, 36
    1781 0000006e 43F0E8BD          POP       {V1, V2, V3, V4, V5, V6, LR} ; [DPU_V7M3_PIPE]  ; [KEEP 32-BIT INS]
    1782                            .dwcfi  cfa_offset, 8
    1783                            .dwcfi  restore_reg, 14
    1784                            .dwcfi  restore_reg, 9
    1785                            .dwcfi  restore_reg, 8
    1786                            .dwcfi  restore_reg, 7
    1787                            .dwcfi  restore_reg, 6
    1788                            .dwcfi  restore_reg, 5
    1789                            .dwcfi  restore_reg, 4
    1790 00000072 B002              ADD       SP, SP, #8            ; [DPU_V7M3_PIPE]  ; [ORIG 16-BIT INS]
    1791                            .dwcfi  cfa_offset, 0
    1792                    $C$DW$135       .dwtag  DW_TAG_TI_branch
    1793                            .dwattr $C$DW$135, DW_AT_low_pc(0x00)
    1794                            .dwattr $C$DW$135, DW_AT_TI_return
    1795                    
    1796 00000074 4770              BX        LR                    ; [DPU_V7M3_PIPE]  ; [ORIG 16-BIT INS]
    1797                            ; BRANCH OCCURS                  ; [] 
    1798                            .dwattr $C$DW$121, DW_AT_TI_end_file("../Application/Services/nvoctp.c")
    1799                            .dwattr $C$DW$121, DW_AT_TI_end_line(0x31c)
    1800                            .dwattr $C$DW$121, DW_AT_TI_end_column(0x01)
    1801                            .dwendentry
    1802                            .dwendtag $C$DW$121
    1803                    
    1804 00000000                   .sect   ".text:NVOCTP_setItemInactive"
    1805                            .clink
    1806                            .thumbfunc NVOCTP_setItemInactive
    1807 00000000                   .thumb
    1808                    
    1809                    $C$DW$136       .dwtag  DW_TAG_subprogram
    1810                            .dwattr $C$DW$136, DW_AT_name("NVOCTP_setItemInactive")
    1811                            .dwattr $C$DW$136, DW_AT_low_pc(NVOCTP_setItemInactive)
    1812                            .dwattr $C$DW$136, DW_AT_high_pc(0x00)
    1813                            .dwattr $C$DW$136, DW_AT_TI_symbol_name("NVOCTP_setItemInactive")
    1814                            .dwattr $C$DW$136, DW_AT_TI_begin_file("../Application/Services/nvoctp.c")
    1815                            .dwattr $C$DW$136, DW_AT_TI_begin_line(0x4e5)
TI ARM Assembler PC v18.1.1 Wed Apr 25 09:49:37 2018

Tools Copyright (c) 1996-2017 Texas Instruments Incorporated
C:\Users\devops\AppData\Local\Temp\2\{20EEA8E7-9EAD-4D8F-95A1-C84FA7AD0574} PAGE   34

    1816                            .dwattr $C$DW$136, DW_AT_TI_begin_column(0x0d)
    1817                            .dwattr $C$DW$136, DW_AT_decl_file("../Application/Services/nvoctp.c")
    1818                            .dwattr $C$DW$136, DW_AT_decl_line(0x4e5)
    1819                            .dwattr $C$DW$136, DW_AT_decl_column(0x0d)
    1820                            .dwattr $C$DW$136, DW_AT_TI_max_frame_size(0x08)
    1821                            .dwpsn  file "../Application/Services/nvoctp.c",line 1254,column 1,is_stmt,address NVOCTP_setI
    1822                    
    1823                            .dwfde $C$DW$CIE, NVOCTP_setItemInactive
    1824                    $C$DW$137       .dwtag  DW_TAG_formal_parameter
    1825                            .dwattr $C$DW$137, DW_AT_name("iOfs")
    1826                            .dwattr $C$DW$137, DW_AT_TI_symbol_name("iOfs")
    1827                            .dwattr $C$DW$137, DW_AT_type(*$C$DW$T$129)
    1828                            .dwattr $C$DW$137, DW_AT_location[DW_OP_reg0]
    1829                    
    1830                    
    1831                    ;*****************************************************************************
    1832                    ;* FUNCTION NAME: NVOCTP_setItemInactive                                     *
    1833                    ;*                                                                           *
    1834                    ;*   Regs Modified     : A1,A2,A3,A4,V9,SP,LR,SR                             *
    1835                    ;*   Regs Used         : A1,A2,A3,A4,V9,SP,LR,SR                             *
    1836                    ;*   Local Frame Size  : 0 Args + 0 Auto + 4 Save = 4 byte                   *
    1837                    ;*****************************************************************************
    1838                    NVOCTP_setItemInactive:
    1839                    ;* --------------------------------------------------------------------------*
    1840                    ;* A1    assigned to $O$C1
    1841                    ;* A4    assigned to $O$v1
    1842                    ;* A1    assigned to tmp
    1843                    $C$DW$138       .dwtag  DW_TAG_variable
    1844                            .dwattr $C$DW$138, DW_AT_name("tmp")
    1845                            .dwattr $C$DW$138, DW_AT_TI_symbol_name("tmp")
    1846                            .dwattr $C$DW$138, DW_AT_type(*$C$DW$T$10)
    1847                            .dwattr $C$DW$138, DW_AT_location[DW_OP_reg0]
    1848                    
    1849                            .dwcfi  cfa_offset, 0
    1850 00000000 4601              MOV       A2, A1                ; [DPU_V7M3_PIPE] |1254|  ; [ORIG 16-BIT INS]
    1851                            .dwpsn  file "../Application/Services/nvoctp.c",line 1258,column 5,is_stmt,isa 1
    1852 00000002 4807              LDR       A1, $C$CON9           ; [DPU_V7M3_PIPE] |1258|  ; [ORIG 16-BIT INS]
    1853 00000004 B508              PUSH      {A4, LR}              ; [DPU_V7M3_PIPE]  ; [ORIG 16-BIT INS]
    1854                            .dwcfi  cfa_offset, 8
    1855                            .dwcfi  save_reg_to_mem, 14, -4
    1856                            .dwcfi  save_reg_to_mem, 3, -8
    1857 00000006 1C80              ADDS      A1, A1, #2            ; [DPU_V7M3_PIPE]  ; [ORIG 16-BIT INS]
    1858 00000008 7800              LDRB      A1, [A1, #0]          ; [DPU_V7M3_PIPE] |1258|  ; [ORIG 16-BIT INS]
    1859 0000000a 4603              MOV       A4, A1                ; [DPU_V7M3_PIPE] |1258|  ; [ORIG 16-BIT INS]
    1860                    $C$DW$139       .dwtag  DW_TAG_TI_branch
    1861                            .dwattr $C$DW$139, DW_AT_low_pc(0x00)
    1862                            .dwattr $C$DW$139, DW_AT_name("NVOCTP_readByte")
    1863                            .dwattr $C$DW$139, DW_AT_TI_call
    1864                    
    1865 0000000c FFFEF7FF!         BL        NVOCTP_readByte       ; [DPU_V7M3_PIPE] |1258|  ; [KEEP 32-BIT INS]
    1866                            ; CALL OCCURS {NVOCTP_readByte }  ; [] |1258| 
    1867                            .dwpsn  file "../Application/Services/nvoctp.c",line 1264,column 5,is_stmt,isa 1
    1868 00000010 007FF000          AND       A1, A1, #127          ; [DPU_V7M3_PIPE] |1264|  ; [KEEP 32-BIT INS]
    1869 00000014 4602              MOV       A3, A1                ; [DPU_V7M3_PIPE] |1264|  ; [ORIG 16-BIT INS]
    1870 00000016 4618              MOV       A1, A4                ; [DPU_V7M3_PIPE] |1264|  ; [ORIG 16-BIT INS]
TI ARM Assembler PC v18.1.1 Wed Apr 25 09:49:37 2018

Tools Copyright (c) 1996-2017 Texas Instruments Incorporated
C:\Users\devops\AppData\Local\Temp\2\{20EEA8E7-9EAD-4D8F-95A1-C84FA7AD0574} PAGE   35

    1871                    $C$DW$140       .dwtag  DW_TAG_TI_branch
    1872                            .dwattr $C$DW$140, DW_AT_low_pc(0x00)
    1873                            .dwattr $C$DW$140, DW_AT_name("NVOCTP_writeByte")
    1874                            .dwattr $C$DW$140, DW_AT_TI_call
    1875                    
    1876 00000018 FFFEF7FF!         BL        NVOCTP_writeByte      ; [DPU_V7M3_PIPE] |1264|  ; [KEEP 32-BIT INS]
    1877                            ; CALL OCCURS {NVOCTP_writeByte }  ; [] |1264| 
    1878                    $C$DW$141       .dwtag  DW_TAG_TI_branch
    1879                            .dwattr $C$DW$141, DW_AT_low_pc(0x00)
    1880                            .dwattr $C$DW$141, DW_AT_TI_return
    1881                    
    1882 0000001c BD08              POP       {A4, PC}              ; [DPU_V7M3_PIPE]  ; [ORIG 16-BIT INS]
    1883                            .dwcfi  cfa_offset, 0
    1884                            .dwcfi  restore_reg, 3
    1885                            ; BRANCH OCCURS                  ; [] 
    1886                            .dwattr $C$DW$136, DW_AT_TI_end_file("../Application/Services/nvoctp.c")
    1887                            .dwattr $C$DW$136, DW_AT_TI_end_line(0x4f1)
    1888                            .dwattr $C$DW$136, DW_AT_TI_end_column(0x01)
    1889                            .dwendentry
    1890                            .dwendtag $C$DW$136
    1891                    
    1892 00000000                   .sect   ".text:NVOCTP_deleteItemApi"
    1893                            .clink
    1894                            .thumbfunc NVOCTP_deleteItemApi
    1895 00000000                   .thumb
    1896                    
    1897                    $C$DW$142       .dwtag  DW_TAG_subprogram
    1898                            .dwattr $C$DW$142, DW_AT_name("NVOCTP_deleteItemApi")
    1899                            .dwattr $C$DW$142, DW_AT_low_pc(NVOCTP_deleteItemApi)
    1900                            .dwattr $C$DW$142, DW_AT_high_pc(0x00)
    1901                            .dwattr $C$DW$142, DW_AT_TI_symbol_name("NVOCTP_deleteItemApi")
    1902                            .dwattr $C$DW$142, DW_AT_type(*$C$DW$T$131)
    1903                            .dwattr $C$DW$142, DW_AT_TI_begin_file("../Application/Services/nvoctp.c")
    1904                            .dwattr $C$DW$142, DW_AT_TI_begin_line(0x2b6)
    1905                            .dwattr $C$DW$142, DW_AT_TI_begin_column(0x10)
    1906                            .dwattr $C$DW$142, DW_AT_decl_file("../Application/Services/nvoctp.c")
    1907                            .dwattr $C$DW$142, DW_AT_decl_line(0x2b6)
    1908                            .dwattr $C$DW$142, DW_AT_decl_column(0x10)
    1909                            .dwattr $C$DW$142, DW_AT_TI_max_frame_size(0x30)
    1910                            .dwpsn  file "../Application/Services/nvoctp.c",line 695,column 1,is_stmt,address NVOCTP_delet
    1911                    
    1912                            .dwfde $C$DW$CIE, NVOCTP_deleteItemApi
    1913                    $C$DW$143       .dwtag  DW_TAG_formal_parameter
    1914                            .dwattr $C$DW$143, DW_AT_name("id")
    1915                            .dwattr $C$DW$143, DW_AT_TI_symbol_name("id")
    1916                            .dwattr $C$DW$143, DW_AT_type(*$C$DW$T$341)
    1917                            .dwattr $C$DW$143, DW_AT_location[DW_OP_breg13 40]
    1918                    
    1919                    
    1920                    ;*****************************************************************************
    1921                    ;* FUNCTION NAME: NVOCTP_deleteItemApi                                       *
    1922                    ;*                                                                           *
    1923                    ;*   Regs Modified     : A1,A2,A3,A4,V1,V2,V4,V9,SP,LR,SR                    *
    1924                    ;*   Regs Used         : A1,A2,A3,A4,V1,V2,V4,V9,SP,LR,SR                    *
    1925                    ;*   Local Frame Size  : 0 Args + 24 Auto + 16 Save = 40 byte                *
TI ARM Assembler PC v18.1.1 Wed Apr 25 09:49:37 2018

Tools Copyright (c) 1996-2017 Texas Instruments Incorporated
C:\Users\devops\AppData\Local\Temp\2\{20EEA8E7-9EAD-4D8F-95A1-C84FA7AD0574} PAGE   36

    1926                    ;*****************************************************************************
    1927                    NVOCTP_deleteItemApi:
    1928                    ;* --------------------------------------------------------------------------*
    1929                    $C$DW$144       .dwtag  DW_TAG_variable
    1930                            .dwattr $C$DW$144, DW_AT_name("iHdr")
    1931                            .dwattr $C$DW$144, DW_AT_TI_symbol_name("iHdr")
    1932                            .dwattr $C$DW$144, DW_AT_type(*$C$DW$T$133)
    1933                            .dwattr $C$DW$144, DW_AT_location[DW_OP_breg13 0]
    1934                    
    1935                    ;* V1    assigned to $O$C19
    1936                    ;* V2    assigned to $O$K11
    1937                    ;* V1    assigned to $O$v2
    1938                    ;* V4    assigned to err
    1939                    $C$DW$145       .dwtag  DW_TAG_variable
    1940                            .dwattr $C$DW$145, DW_AT_name("err")
    1941                            .dwattr $C$DW$145, DW_AT_TI_symbol_name("err")
    1942                            .dwattr $C$DW$145, DW_AT_type(*$C$DW$T$10)
    1943                            .dwattr $C$DW$145, DW_AT_location[DW_OP_reg7]
    1944                    
    1945                    ;* A1    assigned to hOfs
    1946                    $C$DW$146       .dwtag  DW_TAG_variable
    1947                            .dwattr $C$DW$146, DW_AT_name("hOfs")
    1948                            .dwattr $C$DW$146, DW_AT_TI_symbol_name("hOfs")
    1949                            .dwattr $C$DW$146, DW_AT_type(*$C$DW$T$10)
    1950                            .dwattr $C$DW$146, DW_AT_location[DW_OP_reg0]
    1951                    
    1952                            .dwcfi  cfa_offset, 0
    1953 00000000 B403              PUSH      {A1, A2}              ; [DPU_V7M3_PIPE]  ; [ORIG 16-BIT INS]
    1954                            .dwcfi  cfa_offset, 8
    1955                            .dwcfi  save_reg_to_mem, 1, -4
    1956                            .dwcfi  save_reg_to_mem, 0, -8
    1957 00000002 B5B0              PUSH      {V1, V2, V4, LR}      ; [DPU_V7M3_PIPE]  ; [ORIG 16-BIT INS]
    1958                            .dwcfi  cfa_offset, 24
    1959                            .dwcfi  save_reg_to_mem, 14, -12
    1960                            .dwcfi  save_reg_to_mem, 7, -16
    1961                            .dwcfi  save_reg_to_mem, 5, -20
    1962                            .dwcfi  save_reg_to_mem, 4, -24
    1963 00000004 AF04              ADD       V4, SP, #16           ; [DPU_V7M3_PIPE]  ; [ORIG 16-BIT INS]
    1964                            .dwpsn  file "../Application/Services/nvoctp.c",line 700,column 5,is_stmt,isa 1
    1965 00000006 7838              LDRB      A1, [V4, #0]          ; [DPU_V7M3_PIPE] |700|  ; [ORIG 16-BIT INS]
    1966 00000008 0D18F1AD          SUB       SP, SP, #24           ; [DPU_V7M3_PIPE]  ; [KEEP 32-BIT INS]
    1967                            .dwcfi  cfa_offset, 48
    1968 0000000c 2800              CMP       A1, #0                ; [DPU_V7M3_PIPE] |700|  ; [ORIG 16-BIT INS]
    1969 0000000e BF08              IT        EQ                    ; [DPU_V7M3_PIPE]  ; [ORIG 16-BIT INS]
    1970                            .dwpsn  file "../Application/Services/nvoctp.c",line 703,column 9,is_stmt,isa 1
    1971 00000010 2009              MOVEQ     A1, #9                ; [DPU_V7M3_PIPE] |703|  ; [ORIG 16-BIT INS]
    1972 00000012 D027              BEQ       ||$C$L21||            ; [DPU_V7M3_PIPE] |703|  ; [ORIG 16-BIT INS]
    1973                            ; BRANCHCC OCCURS {||$C$L21||}   ; [] |703| 
    1974                    ;* --------------------------------------------------------------------------*
    1975                            .dwpsn  file "../Application/Services/nvoctp.c",line 708,column 5,is_stmt,isa 1
    1976 00000014 4D16              LDR       V2, $C$CON11          ; [DPU_V7M3_PIPE] |708|  ; [ORIG 16-BIT INS]
    1977 00000016 462C              MOV       V1, V2                ; [DPU_V7M3_PIPE] |708|  ; [ORIG 16-BIT INS]
    1978 00000018 68A0              LDR       A1, [V1, #8]          ; [DPU_V7M3_PIPE] |708|  ; [ORIG 16-BIT INS]
    1979 0000001a 31FFF04F          MOV       A2, #-1               ; [DPU_V7M3_PIPE] |708|  ; [KEEP 32-BIT INS]
    1980                    $C$DW$147       .dwtag  DW_TAG_TI_branch
TI ARM Assembler PC v18.1.1 Wed Apr 25 09:49:37 2018

Tools Copyright (c) 1996-2017 Texas Instruments Incorporated
C:\Users\devops\AppData\Local\Temp\2\{20EEA8E7-9EAD-4D8F-95A1-C84FA7AD0574} PAGE   37

    1981                            .dwattr $C$DW$147, DW_AT_low_pc(0x00)
    1982                            .dwattr $C$DW$147, DW_AT_name("ti_sysbios_knl_Semaphore_pend__E")
    1983                            .dwattr $C$DW$147, DW_AT_TI_call
    1984                    
    1985 0000001e FFFEF7FF!         BL        ti_sysbios_knl_Semaphore_pend__E ; [DPU_V7M3_PIPE] |708|  ; [KEEP 32-BIT INS]
    1986                            ; CALL OCCURS {ti_sysbios_knl_Semaphore_pend__E }  ; [] |708| 
    1987                            .dwpsn  file "../Application/Services/nvoctp.c",line 710,column 5,is_stmt,isa 1
    1988 00000022 A804              ADD       A1, SP, #16           ; [DPU_V7M3_PIPE] |710|  ; [ORIG 16-BIT INS]
    1989 00000024 6839              LDR       A2, [V4, #0]          ; [DPU_V7M3_PIPE] |710|  ; [ORIG 16-BIT INS]
    1990 00000026 88BD              LDRH      V2, [V4, #4]          ; [DPU_V7M3_PIPE] |710|  ; [ORIG 16-BIT INS]
    1991 00000028 6001              STR       A2, [A1, #0]          ; [DPU_V7M3_PIPE] |710|  ; [ORIG 16-BIT INS]
    1992 0000002a AB04              ADD       A4, SP, #16           ; [DPU_V7M3_PIPE] |710|  ; [ORIG 16-BIT INS]
    1993 0000002c 8085              STRH      V2, [A1, #4]          ; [DPU_V7M3_PIPE] |710|  ; [ORIG 16-BIT INS]
    1994 0000002e 0003E893          LDMIA     A4, {A1,A2}           ; [DPU_V7M3_PIPE] |710|  ; [KEEP 32-BIT INS]
    1995 00000032 2200              MOVS      A3, #0                ; [DPU_V7M3_PIPE] |710|  ; [ORIG 16-BIT INS]
    1996 00000034 466B              MOV       A4, SP                ; [DPU_V7M3_PIPE] |710|  ; [ORIG 16-BIT INS]
    1997                    $C$DW$148       .dwtag  DW_TAG_TI_branch
    1998                            .dwattr $C$DW$148, DW_AT_low_pc(0x00)
    1999                            .dwattr $C$DW$148, DW_AT_name("NVOCTP_checkItem")
    2000                            .dwattr $C$DW$148, DW_AT_TI_call
    2001                    
    2002 00000036 FFFEF7FF!         BL        NVOCTP_checkItem      ; [DPU_V7M3_PIPE] |710|  ; [KEEP 32-BIT INS]
    2003                            ; CALL OCCURS {NVOCTP_checkItem }  ; [] |710| 
    2004                            .dwpsn  file "../Application/Services/nvoctp.c",line 708,column 5,is_stmt,isa 1
    2005 0000003a 4625              MOV       V2, V1                ; [DPU_V7M3_PIPE] |708|  ; [ORIG 16-BIT INS]
    2006                            .dwpsn  file "../Application/Services/nvoctp.c",line 711,column 5,is_stmt,isa 1
    2007 0000003c 1C07              MOVS      V4, A1                ; [DPU_V7M3_PIPE] |711|  ; [ORIG 16-BIT INS]
    2008 0000003e D10D              BNE       ||$C$L20||            ; [DPU_V7M3_PIPE] |711|  ; [ORIG 16-BIT INS]
    2009                            ; BRANCHCC OCCURS {||$C$L20||}   ; [] |711| 
    2010                    ;* --------------------------------------------------------------------------*
    2011                            .dwpsn  file "../Application/Services/nvoctp.c",line 716,column 9,is_stmt,isa 1
    2012 00000040 000AF8BD          LDRH      A1, [SP, #10]         ; [DPU_V7M3_PIPE] |716|  ; [KEEP 32-BIT INS]
    2013                    $C$DW$149       .dwtag  DW_TAG_TI_branch
    2014                            .dwattr $C$DW$149, DW_AT_low_pc(0x00)
    2015                            .dwattr $C$DW$149, DW_AT_name("NVOCTP_setItemInactive")
    2016                            .dwattr $C$DW$149, DW_AT_TI_call
    2017                    
    2018 00000044 FFFEF7FF!         BL        NVOCTP_setItemInactive ; [DPU_V7M3_PIPE] |716|  ; [KEEP 32-BIT INS]
    2019                            ; CALL OCCURS {NVOCTP_setItemInactive }  ; [] |716| 
    2020                            .dwpsn  file "../Application/Services/nvoctp.c",line 719,column 9,is_stmt,isa 1
    2021 00000048 78A8              LDRB      A1, [V2, #2]          ; [DPU_V7M3_PIPE] |719|  ; [ORIG 16-BIT INS]
    2022 0000004a 88E9              LDRH      A2, [V2, #6]          ; [DPU_V7M3_PIPE] |719|  ; [ORIG 16-BIT INS]
    2023 0000004c 9A00              LDR       A3, [SP, #0]          ; [DPU_V7M3_PIPE] |719|  ; [ORIG 16-BIT INS]
    2024                    $C$DW$150       .dwtag  DW_TAG_TI_branch
    2025                            .dwattr $C$DW$150, DW_AT_low_pc(0x00)
    2026                            .dwattr $C$DW$150, DW_AT_name("NVOCTP_findItem")
    2027                            .dwattr $C$DW$150, DW_AT_TI_call
    2028                    
    2029 0000004e FFFEF7FF!         BL        NVOCTP_findItem       ; [DPU_V7M3_PIPE] |719|  ; [KEEP 32-BIT INS]
    2030                            ; CALL OCCURS {NVOCTP_findItem }  ; [] |719| 
    2031                            .dwpsn  file "../Application/Services/nvoctp.c",line 722,column 9,is_stmt,isa 1
    2032 00000052 796C              LDRB      V1, [V2, #5]          ; [DPU_V7M3_PIPE] |722|  ; [ORIG 16-BIT INS]
    2033 00000054 2800              CMP       A1, #0                ; [DPU_V7M3_PIPE] |722|  ; [ORIG 16-BIT INS]
    2034 00000056 BFD4              ITE       LE                    ; [DPU_V7M3_PIPE]  ; [ORIG 16-BIT INS]
    2035 00000058 1C27              MOVLE     V4, V1                ; [DPU_V7M3_PIPE] |722|  ; [ORIG 16-BIT INS]
TI ARM Assembler PC v18.1.1 Wed Apr 25 09:49:37 2018

Tools Copyright (c) 1996-2017 Texas Instruments Incorporated
C:\Users\devops\AppData\Local\Temp\2\{20EEA8E7-9EAD-4D8F-95A1-C84FA7AD0574} PAGE   38

    2036 0000005a 2702              MOVGT     V4, #2                ; [DPU_V7M3_PIPE] |722|  ; [ORIG 16-BIT INS]
    2037                    ;* --------------------------------------------------------------------------*
    2038 0000005c           ||$C$L20||:    
    2039                            .dwpsn  file "../Application/Services/nvoctp.c",line 725,column 5,is_stmt,isa 1
    2040 0000005c 68A8              LDR       A1, [V2, #8]          ; [DPU_V7M3_PIPE] |725|  ; [ORIG 16-BIT INS]
    2041                    $C$DW$151       .dwtag  DW_TAG_TI_branch
    2042                            .dwattr $C$DW$151, DW_AT_low_pc(0x00)
    2043                            .dwattr $C$DW$151, DW_AT_name("ti_sysbios_knl_Semaphore_post__E")
    2044                            .dwattr $C$DW$151, DW_AT_TI_call
    2045                    
    2046 0000005e FFFEF7FF!         BL        ti_sysbios_knl_Semaphore_post__E ; [DPU_V7M3_PIPE] |725|  ; [KEEP 32-BIT INS]
    2047                            ; CALL OCCURS {ti_sysbios_knl_Semaphore_post__E }  ; [] |725| 
    2048 00000062 4638              MOV       A1, V4                ; [DPU_V7M3_PIPE] |725|  ; [ORIG 16-BIT INS]
    2049                    ;* --------------------------------------------------------------------------*
    2050 00000064           ||$C$L21||:    
    2051 00000064 B006              ADD       SP, SP, #24           ; [DPU_V7M3_PIPE]  ; [ORIG 16-BIT INS]
    2052                            .dwcfi  cfa_offset, 24
    2053 00000066 40B0E8BD          POP       {V1, V2, V4, LR}      ; [DPU_V7M3_PIPE]  ; [KEEP 32-BIT INS]
    2054                            .dwcfi  cfa_offset, 8
    2055                            .dwcfi  restore_reg, 14
    2056                            .dwcfi  restore_reg, 7
    2057                            .dwcfi  restore_reg, 5
    2058                            .dwcfi  restore_reg, 4
    2059 0000006a B002              ADD       SP, SP, #8            ; [DPU_V7M3_PIPE]  ; [ORIG 16-BIT INS]
    2060                            .dwcfi  cfa_offset, 0
    2061                    $C$DW$152       .dwtag  DW_TAG_TI_branch
    2062                            .dwattr $C$DW$152, DW_AT_low_pc(0x00)
    2063                            .dwattr $C$DW$152, DW_AT_TI_return
    2064                    
    2065 0000006c 4770              BX        LR                    ; [DPU_V7M3_PIPE]  ; [ORIG 16-BIT INS]
    2066                            ; BRANCH OCCURS                  ; [] 
    2067                            .dwattr $C$DW$142, DW_AT_TI_end_file("../Application/Services/nvoctp.c")
    2068                            .dwattr $C$DW$142, DW_AT_TI_end_line(0x2d6)
    2069                            .dwattr $C$DW$142, DW_AT_TI_end_column(0x01)
    2070                            .dwendentry
    2071                            .dwendtag $C$DW$142
    2072                    
    2073 00000000                   .sect   ".text:NVOCTP_createItemApi"
    2074                            .clink
    2075                            .thumbfunc NVOCTP_createItemApi
    2076 00000000                   .thumb
    2077                    
    2078                    $C$DW$153       .dwtag  DW_TAG_subprogram
    2079                            .dwattr $C$DW$153, DW_AT_name("NVOCTP_createItemApi")
    2080                            .dwattr $C$DW$153, DW_AT_low_pc(NVOCTP_createItemApi)
    2081                            .dwattr $C$DW$153, DW_AT_high_pc(0x00)
    2082                            .dwattr $C$DW$153, DW_AT_TI_symbol_name("NVOCTP_createItemApi")
    2083                            .dwattr $C$DW$153, DW_AT_type(*$C$DW$T$131)
    2084                            .dwattr $C$DW$153, DW_AT_TI_begin_file("../Application/Services/nvoctp.c")
    2085                            .dwattr $C$DW$153, DW_AT_TI_begin_line(0x291)
    2086                            .dwattr $C$DW$153, DW_AT_TI_begin_column(0x10)
    2087                            .dwattr $C$DW$153, DW_AT_decl_file("../Application/Services/nvoctp.c")
    2088                            .dwattr $C$DW$153, DW_AT_decl_line(0x291)
    2089                            .dwattr $C$DW$153, DW_AT_decl_column(0x10)
    2090                            .dwattr $C$DW$153, DW_AT_TI_max_frame_size(0x38)
TI ARM Assembler PC v18.1.1 Wed Apr 25 09:49:37 2018

Tools Copyright (c) 1996-2017 Texas Instruments Incorporated
C:\Users\devops\AppData\Local\Temp\2\{20EEA8E7-9EAD-4D8F-95A1-C84FA7AD0574} PAGE   39

    2091                            .dwpsn  file "../Application/Services/nvoctp.c",line 660,column 1,is_stmt,address NVOCTP_creat
    2092                    
    2093                            .dwfde $C$DW$CIE, NVOCTP_createItemApi
    2094                    $C$DW$154       .dwtag  DW_TAG_formal_parameter
    2095                            .dwattr $C$DW$154, DW_AT_name("id")
    2096                            .dwattr $C$DW$154, DW_AT_TI_symbol_name("id")
    2097                            .dwattr $C$DW$154, DW_AT_type(*$C$DW$T$341)
    2098                            .dwattr $C$DW$154, DW_AT_location[DW_OP_breg13 48]
    2099                    
    2100                    $C$DW$155       .dwtag  DW_TAG_formal_parameter
    2101                            .dwattr $C$DW$155, DW_AT_name("bLen")
    2102                            .dwattr $C$DW$155, DW_AT_TI_symbol_name("bLen")
    2103                            .dwattr $C$DW$155, DW_AT_type(*$C$DW$T$127)
    2104                            .dwattr $C$DW$155, DW_AT_location[DW_OP_reg2]
    2105                    
    2106                    $C$DW$156       .dwtag  DW_TAG_formal_parameter
    2107                            .dwattr $C$DW$156, DW_AT_name("pBuf")
    2108                            .dwattr $C$DW$156, DW_AT_TI_symbol_name("pBuf")
    2109                            .dwattr $C$DW$156, DW_AT_type(*$C$DW$T$3)
    2110                            .dwattr $C$DW$156, DW_AT_location[DW_OP_reg3]
    2111                    
    2112                    
    2113                    ;*****************************************************************************
    2114                    ;* FUNCTION NAME: NVOCTP_createItemApi                                       *
    2115                    ;*                                                                           *
    2116                    ;*   Regs Modified     : A1,A2,A3,A4,V1,V2,V3,V4,V9,SP,LR,SR                 *
    2117                    ;*   Regs Used         : A1,A2,A3,A4,V1,V2,V3,V4,V9,SP,LR,SR                 *
    2118                    ;*   Local Frame Size  : 0 Args + 24 Auto + 20 Save = 44 byte                *
    2119                    ;*****************************************************************************
    2120                    NVOCTP_createItemApi:
    2121                    ;* --------------------------------------------------------------------------*
    2122                    $C$DW$157       .dwtag  DW_TAG_variable
    2123                            .dwattr $C$DW$157, DW_AT_name("iHdr")
    2124                            .dwattr $C$DW$157, DW_AT_TI_symbol_name("iHdr")
    2125                            .dwattr $C$DW$157, DW_AT_type(*$C$DW$T$133)
    2126                            .dwattr $C$DW$157, DW_AT_location[DW_OP_breg13 0]
    2127                    
    2128                    ;* V1    assigned to $O$C16
    2129                    ;* V1    assigned to $O$K7
    2130                    ;* V3    assigned to bLen
    2131                    $C$DW$158       .dwtag  DW_TAG_variable
    2132                            .dwattr $C$DW$158, DW_AT_name("bLen")
    2133                            .dwattr $C$DW$158, DW_AT_TI_symbol_name("bLen")
    2134                            .dwattr $C$DW$158, DW_AT_type(*$C$DW$T$1357)
    2135                            .dwattr $C$DW$158, DW_AT_location[DW_OP_reg6]
    2136                    
    2137                    ;* V2    assigned to pBuf
    2138                    $C$DW$159       .dwtag  DW_TAG_variable
    2139                            .dwattr $C$DW$159, DW_AT_name("pBuf")
    2140                            .dwattr $C$DW$159, DW_AT_TI_symbol_name("pBuf")
    2141                            .dwattr $C$DW$159, DW_AT_type(*$C$DW$T$740)
    2142                            .dwattr $C$DW$159, DW_AT_location[DW_OP_reg5]
    2143                    
    2144                    ;* V4    assigned to err
    2145                    $C$DW$160       .dwtag  DW_TAG_variable
TI ARM Assembler PC v18.1.1 Wed Apr 25 09:49:37 2018

Tools Copyright (c) 1996-2017 Texas Instruments Incorporated
C:\Users\devops\AppData\Local\Temp\2\{20EEA8E7-9EAD-4D8F-95A1-C84FA7AD0574} PAGE   40

    2146                            .dwattr $C$DW$160, DW_AT_name("err")
    2147                            .dwattr $C$DW$160, DW_AT_TI_symbol_name("err")
    2148                            .dwattr $C$DW$160, DW_AT_type(*$C$DW$T$10)
    2149                            .dwattr $C$DW$160, DW_AT_location[DW_OP_reg7]
    2150                    
    2151                            .dwcfi  cfa_offset, 0
    2152 00000000 B403              PUSH      {A1, A2}              ; [DPU_V7M3_PIPE]  ; [ORIG 16-BIT INS]
    2153                            .dwcfi  cfa_offset, 8
    2154                            .dwcfi  save_reg_to_mem, 1, -4
    2155                            .dwcfi  save_reg_to_mem, 0, -8
    2156 00000002 B5F0              PUSH      {V1, V2, V3, V4, LR}  ; [DPU_V7M3_PIPE]  ; [ORIG 16-BIT INS]
    2157                            .dwcfi  cfa_offset, 28
    2158                            .dwcfi  save_reg_to_mem, 14, -12
    2159                            .dwcfi  save_reg_to_mem, 7, -16
    2160                            .dwcfi  save_reg_to_mem, 6, -20
    2161                            .dwcfi  save_reg_to_mem, 5, -24
    2162                            .dwcfi  save_reg_to_mem, 4, -28
    2163                            .dwpsn  file "../Application/Services/nvoctp.c",line 665,column 5,is_stmt,isa 1
    2164 00000004 4C14              LDR       V1, $C$CON13          ; [DPU_V7M3_PIPE] |665|  ; [ORIG 16-BIT INS]
    2165 00000006 68A0              LDR       A1, [V1, #8]          ; [DPU_V7M3_PIPE] |665|  ; [ORIG 16-BIT INS]
    2166 00000008 31FFF04F          MOV       A2, #-1               ; [DPU_V7M3_PIPE] |665|  ; [KEEP 32-BIT INS]
    2167 0000000c AF05              ADD       V4, SP, #20           ; [DPU_V7M3_PIPE]  ; [ORIG 16-BIT INS]
    2168                            .dwpsn  file "../Application/Services/nvoctp.c",line 660,column 1,is_stmt,isa 1
    2169 0000000e 461D              MOV       V2, A4                ; [DPU_V7M3_PIPE] |660|  ; [ORIG 16-BIT INS]
    2170 00000010 4616              MOV       V3, A3                ; [DPU_V7M3_PIPE] |660|  ; [ORIG 16-BIT INS]
    2171 00000012 0D1CF1AD          SUB       SP, SP, #28           ; [DPU_V7M3_PIPE]  ; [KEEP 32-BIT INS]
    2172                            .dwcfi  cfa_offset, 56
    2173                            .dwpsn  file "../Application/Services/nvoctp.c",line 665,column 5,is_stmt,isa 1
    2174                    $C$DW$161       .dwtag  DW_TAG_TI_branch
    2175                            .dwattr $C$DW$161, DW_AT_low_pc(0x00)
    2176                            .dwattr $C$DW$161, DW_AT_name("ti_sysbios_knl_Semaphore_pend__E")
    2177                            .dwattr $C$DW$161, DW_AT_TI_call
    2178                    
    2179 00000016 FFFEF7FF!         BL        ti_sysbios_knl_Semaphore_pend__E ; [DPU_V7M3_PIPE] |665|  ; [KEEP 32-BIT INS]
    2180                            ; CALL OCCURS {ti_sysbios_knl_Semaphore_pend__E }  ; [] |665| 
    2181                            .dwpsn  file "../Application/Services/nvoctp.c",line 667,column 5,is_stmt,isa 1
    2182 0000001a 6839              LDR       A2, [V4, #0]          ; [DPU_V7M3_PIPE] |667|  ; [ORIG 16-BIT INS]
    2183 0000001c A804              ADD       A1, SP, #16           ; [DPU_V7M3_PIPE] |667|  ; [ORIG 16-BIT INS]
    2184 0000001e 6001              STR       A2, [A1, #0]          ; [DPU_V7M3_PIPE] |667|  ; [ORIG 16-BIT INS]
    2185 00000020 88B9              LDRH      A2, [V4, #4]          ; [DPU_V7M3_PIPE] |667|  ; [ORIG 16-BIT INS]
    2186 00000022 8081              STRH      A2, [A1, #4]          ; [DPU_V7M3_PIPE] |667|  ; [ORIG 16-BIT INS]
    2187 00000024 A804              ADD       A1, SP, #16           ; [DPU_V7M3_PIPE] |667|  ; [ORIG 16-BIT INS]
    2188 00000026 C803              LDMIA     A1, {A1,A2}           ; [DPU_V7M3_PIPE] |667|  ; [ORIG 16-BIT INS]
    2189 00000028 B2B2              UXTH      A3, V3                ; [DPU_V7M3_PIPE] |667|  ; [ORIG 16-BIT INS]
    2190 0000002a 466B              MOV       A4, SP                ; [DPU_V7M3_PIPE] |667|  ; [ORIG 16-BIT INS]
    2191                    $C$DW$162       .dwtag  DW_TAG_TI_branch
    2192                            .dwattr $C$DW$162, DW_AT_low_pc(0x00)
    2193                            .dwattr $C$DW$162, DW_AT_name("NVOCTP_checkItem")
    2194                            .dwattr $C$DW$162, DW_AT_TI_call
    2195                    
    2196 0000002c FFFEF7FF!         BL        NVOCTP_checkItem      ; [DPU_V7M3_PIPE] |667|  ; [KEEP 32-BIT INS]
    2197                            ; CALL OCCURS {NVOCTP_checkItem }  ; [] |667| 
    2198 00000030 4607              MOV       V4, A1                ; [DPU_V7M3_PIPE] |667|  ; [ORIG 16-BIT INS]
    2199                            .dwpsn  file "../Application/Services/nvoctp.c",line 668,column 5,is_stmt,isa 1
    2200 00000032 2F0A              CMP       V4, #10               ; [DPU_V7M3_PIPE] |668|  ; [ORIG 16-BIT INS]
TI ARM Assembler PC v18.1.1 Wed Apr 25 09:49:37 2018

Tools Copyright (c) 1996-2017 Texas Instruments Incorporated
C:\Users\devops\AppData\Local\Temp\2\{20EEA8E7-9EAD-4D8F-95A1-C84FA7AD0574} PAGE   41

    2201 00000034 D002              BEQ       ||$C$L23||            ; [DPU_V7M3_PIPE] |668|  ; [ORIG 16-BIT INS]
    2202                            ; BRANCHCC OCCURS {||$C$L23||}   ; [] |668| 
    2203                    ;* --------------------------------------------------------------------------*
    2204 00000036 B907              CBNZ      V4, ||$C$L22||        ; []  ; [ORIG 16-BIT INS]
    2205                            .dwpsn  file "../Application/Services/nvoctp.c",line 678,column 13,is_stmt,isa 1
    2206 00000038 2701              MOVS      V4, #1                ; [DPU_V7M3_PIPE] |678|  ; [ORIG 16-BIT INS]
    2207                    ;* --------------------------------------------------------------------------*
    2208 0000003a           ||$C$L22||:    
    2209 0000003a E004              B         ||$C$L24||            ; [DPU_V7M3_PIPE] |678|  ; [ORIG 16-BIT INS]
    2210                            ; BRANCH OCCURS {||$C$L24||}     ; [] |678| 
    2211                    ;* --------------------------------------------------------------------------*
    2212 0000003c           ||$C$L23||:    
    2213                            .dwpsn  file "../Application/Services/nvoctp.c",line 671,column 9,is_stmt,isa 1
    2214 0000003c 4668              MOV       A1, SP                ; [DPU_V7M3_PIPE] |671|  ; [ORIG 16-BIT INS]
    2215 0000003e 4629              MOV       A2, V2                ; [DPU_V7M3_PIPE] |671|  ; [ORIG 16-BIT INS]
    2216                    $C$DW$163       .dwtag  DW_TAG_TI_branch
    2217                            .dwattr $C$DW$163, DW_AT_low_pc(0x00)
    2218                            .dwattr $C$DW$163, DW_AT_name("NVOCTP_newItem")
    2219                            .dwattr $C$DW$163, DW_AT_TI_call
    2220                    
    2221 00000040 FFFEF7FF!         BL        NVOCTP_newItem        ; [DPU_V7M3_PIPE] |671|  ; [KEEP 32-BIT INS]
    2222                            ; CALL OCCURS {NVOCTP_newItem }  ; [] |671| 
    2223 00000044 4607              MOV       V4, A1                ; [DPU_V7M3_PIPE] |671|  ; [ORIG 16-BIT INS]
    2224                    ;* --------------------------------------------------------------------------*
    2225 00000046           ||$C$L24||:    
    2226                            .dwpsn  file "../Application/Services/nvoctp.c",line 682,column 5,is_stmt,isa 1
    2227 00000046 68A0              LDR       A1, [V1, #8]          ; [DPU_V7M3_PIPE] |682|  ; [ORIG 16-BIT INS]
    2228                    $C$DW$164       .dwtag  DW_TAG_TI_branch
    2229                            .dwattr $C$DW$164, DW_AT_low_pc(0x00)
    2230                            .dwattr $C$DW$164, DW_AT_name("ti_sysbios_knl_Semaphore_post__E")
    2231                            .dwattr $C$DW$164, DW_AT_TI_call
    2232                    
    2233 00000048 FFFEF7FF!         BL        ti_sysbios_knl_Semaphore_post__E ; [DPU_V7M3_PIPE] |682|  ; [KEEP 32-BIT INS]
    2234                            ; CALL OCCURS {ti_sysbios_knl_Semaphore_post__E }  ; [] |682| 
    2235 0000004c 4638              MOV       A1, V4                ; [DPU_V7M3_PIPE] |682|  ; [ORIG 16-BIT INS]
    2236 0000004e B007              ADD       SP, SP, #28           ; [DPU_V7M3_PIPE]  ; [ORIG 16-BIT INS]
    2237                            .dwcfi  cfa_offset, 28
    2238 00000050 40F0E8BD          POP       {V1, V2, V3, V4, LR}  ; [DPU_V7M3_PIPE]  ; [KEEP 32-BIT INS]
    2239                            .dwcfi  cfa_offset, 8
    2240                            .dwcfi  restore_reg, 14
    2241                            .dwcfi  restore_reg, 7
    2242                            .dwcfi  restore_reg, 6
    2243                            .dwcfi  restore_reg, 5
    2244                            .dwcfi  restore_reg, 4
    2245 00000054 B002              ADD       SP, SP, #8            ; [DPU_V7M3_PIPE]  ; [ORIG 16-BIT INS]
    2246                            .dwcfi  cfa_offset, 0
    2247                    $C$DW$165       .dwtag  DW_TAG_TI_branch
    2248                            .dwattr $C$DW$165, DW_AT_low_pc(0x00)
    2249                            .dwattr $C$DW$165, DW_AT_TI_return
    2250                    
    2251 00000056 4770              BX        LR                    ; [DPU_V7M3_PIPE]  ; [ORIG 16-BIT INS]
    2252                            ; BRANCH OCCURS                  ; [] 
    2253                            .dwattr $C$DW$153, DW_AT_TI_end_file("../Application/Services/nvoctp.c")
    2254                            .dwattr $C$DW$153, DW_AT_TI_end_line(0x2ab)
    2255                            .dwattr $C$DW$153, DW_AT_TI_end_column(0x01)
TI ARM Assembler PC v18.1.1 Wed Apr 25 09:49:37 2018

Tools Copyright (c) 1996-2017 Texas Instruments Incorporated
C:\Users\devops\AppData\Local\Temp\2\{20EEA8E7-9EAD-4D8F-95A1-C84FA7AD0574} PAGE   42

    2256                            .dwendentry
    2257                            .dwendtag $C$DW$153
    2258                    
    2259 00000000                   .sect   ".text:NVOCTP_compactNvApi"
    2260                            .clink
    2261                            .thumbfunc NVOCTP_compactNvApi
    2262 00000000                   .thumb
    2263                    
    2264                    $C$DW$166       .dwtag  DW_TAG_subprogram
    2265                            .dwattr $C$DW$166, DW_AT_name("NVOCTP_compactNvApi")
    2266                            .dwattr $C$DW$166, DW_AT_low_pc(NVOCTP_compactNvApi)
    2267                            .dwattr $C$DW$166, DW_AT_high_pc(0x00)
    2268                            .dwattr $C$DW$166, DW_AT_TI_symbol_name("NVOCTP_compactNvApi")
    2269                            .dwattr $C$DW$166, DW_AT_type(*$C$DW$T$131)
    2270                            .dwattr $C$DW$166, DW_AT_TI_begin_file("../Application/Services/nvoctp.c")
    2271                            .dwattr $C$DW$166, DW_AT_TI_begin_line(0x262)
    2272                            .dwattr $C$DW$166, DW_AT_TI_begin_column(0x10)
    2273                            .dwattr $C$DW$166, DW_AT_decl_file("../Application/Services/nvoctp.c")
    2274                            .dwattr $C$DW$166, DW_AT_decl_line(0x262)
    2275                            .dwattr $C$DW$166, DW_AT_decl_column(0x10)
    2276                            .dwattr $C$DW$166, DW_AT_TI_max_frame_size(0x10)
    2277                            .dwpsn  file "../Application/Services/nvoctp.c",line 611,column 1,is_stmt,address NVOCTP_compa
    2278                    
    2279                            .dwfde $C$DW$CIE, NVOCTP_compactNvApi
    2280                    $C$DW$167       .dwtag  DW_TAG_formal_parameter
    2281                            .dwattr $C$DW$167, DW_AT_name("minAvail")
    2282                            .dwattr $C$DW$167, DW_AT_TI_symbol_name("minAvail")
    2283                            .dwattr $C$DW$167, DW_AT_type(*$C$DW$T$129)
    2284                            .dwattr $C$DW$167, DW_AT_location[DW_OP_reg0]
    2285                    
    2286                    
    2287                    ;*****************************************************************************
    2288                    ;* FUNCTION NAME: NVOCTP_compactNvApi                                        *
    2289                    ;*                                                                           *
    2290                    ;*   Regs Modified     : A1,A2,A3,A4,V1,V3,V4,V9,SP,LR,SR                    *
    2291                    ;*   Regs Used         : A1,A2,A3,A4,V1,V3,V4,V9,SP,LR,SR                    *
    2292                    ;*   Local Frame Size  : 0 Args + 0 Auto + 16 Save = 16 byte                 *
    2293                    ;*****************************************************************************
    2294                    NVOCTP_compactNvApi:
    2295                    ;* --------------------------------------------------------------------------*
    2296                    ;* V1    assigned to $O$C16
    2297                    ;* V1    assigned to $O$K4
    2298                    ;* V3    assigned to minAvail
    2299                    $C$DW$168       .dwtag  DW_TAG_variable
    2300                            .dwattr $C$DW$168, DW_AT_name("minAvail")
    2301                            .dwattr $C$DW$168, DW_AT_TI_symbol_name("minAvail")
    2302                            .dwattr $C$DW$168, DW_AT_type(*$C$DW$T$1144)
    2303                            .dwattr $C$DW$168, DW_AT_location[DW_OP_reg6]
    2304                    
    2305                    ;* V4    assigned to err
    2306                    $C$DW$169       .dwtag  DW_TAG_variable
    2307                            .dwattr $C$DW$169, DW_AT_name("err")
    2308                            .dwattr $C$DW$169, DW_AT_TI_symbol_name("err")
    2309                            .dwattr $C$DW$169, DW_AT_type(*$C$DW$T$10)
    2310                            .dwattr $C$DW$169, DW_AT_location[DW_OP_reg7]
TI ARM Assembler PC v18.1.1 Wed Apr 25 09:49:37 2018

Tools Copyright (c) 1996-2017 Texas Instruments Incorporated
C:\Users\devops\AppData\Local\Temp\2\{20EEA8E7-9EAD-4D8F-95A1-C84FA7AD0574} PAGE   43

    2311                    
    2312                            .dwcfi  cfa_offset, 0
    2313 00000000 B5D0              PUSH      {V1, V3, V4, LR}      ; [DPU_V7M3_PIPE]  ; [ORIG 16-BIT INS]
    2314                            .dwcfi  cfa_offset, 16
    2315                            .dwcfi  save_reg_to_mem, 14, -4
    2316                            .dwcfi  save_reg_to_mem, 7, -8
    2317                            .dwcfi  save_reg_to_mem, 6, -12
    2318                            .dwcfi  save_reg_to_mem, 4, -16
    2319                            .dwpsn  file "../Application/Services/nvoctp.c",line 615,column 5,is_stmt,isa 1
    2320 00000002 4C0E              LDR       V1, $C$CON14          ; [DPU_V7M3_PIPE] |615|  ; [ORIG 16-BIT INS]
    2321                            .dwpsn  file "../Application/Services/nvoctp.c",line 611,column 1,is_stmt,isa 1
    2322 00000004 4606              MOV       V3, A1                ; [DPU_V7M3_PIPE] |611|  ; [ORIG 16-BIT INS]
    2323                            .dwpsn  file "../Application/Services/nvoctp.c",line 615,column 5,is_stmt,isa 1
    2324 00000006 68A0              LDR       A1, [V1, #8]          ; [DPU_V7M3_PIPE] |615|  ; [ORIG 16-BIT INS]
    2325 00000008 31FFF04F          MOV       A2, #-1               ; [DPU_V7M3_PIPE] |615|  ; [KEEP 32-BIT INS]
    2326                    $C$DW$170       .dwtag  DW_TAG_TI_branch
    2327                            .dwattr $C$DW$170, DW_AT_low_pc(0x00)
    2328                            .dwattr $C$DW$170, DW_AT_name("ti_sysbios_knl_Semaphore_pend__E")
    2329                            .dwattr $C$DW$170, DW_AT_TI_call
    2330                    
    2331 0000000c FFFEF7FF!         BL        ti_sysbios_knl_Semaphore_pend__E ; [DPU_V7M3_PIPE] |615|  ; [KEEP 32-BIT INS]
    2332                            ; CALL OCCURS {ti_sysbios_knl_Semaphore_pend__E }  ; [] |615| 
    2333                            .dwpsn  file "../Application/Services/nvoctp.c",line 617,column 5,is_stmt,isa 1
    2334 00000010 7927              LDRB      V4, [V1, #4]          ; [DPU_V7M3_PIPE] |617|  ; [ORIG 16-BIT INS]
    2335 00000012 B977              CBNZ      V4, ||$C$L26||        ; []  ; [ORIG 16-BIT INS]
    2336                            .dwpsn  file "../Application/Services/nvoctp.c",line 618,column 5,is_stmt,isa 1
    2337                            ; BRANCHCC OCCURS {||$C$L26||}   ; [] |618| 
    2338                    ;* --------------------------------------------------------------------------*
    2339                            .dwpsn  file "../Application/Services/nvoctp.c",line 626,column 7,is_stmt,isa 1
    2340 00000014 88E0              LDRH      A1, [V1, #6]          ; [DPU_V7M3_PIPE] |626|  ; [ORIG 16-BIT INS]
    2341 00000016 5080F5C0          RSB       A1, A1, #4096         ; [DPU_V7M3_PIPE] |626|  ; [KEEP 32-BIT INS]
    2342 0000001a B200              SXTH      A1, A1                ; [DPU_V7M3_PIPE] |626|  ; [ORIG 16-BIT INS]
    2343 0000001c 4286              CMP       V3, A1                ; [DPU_V7M3_PIPE] |626|  ; [ORIG 16-BIT INS]
    2344 0000001e DC03              BGT       ||$C$L25||            ; [DPU_V7M3_PIPE] |626|  ; [ORIG 16-BIT INS]
    2345                            ; BRANCHCC OCCURS {||$C$L25||}   ; [] |626| 
    2346                    ;* --------------------------------------------------------------------------*
    2347 00000020 2E00              CMP       V3, #0                ; [DPU_V7M3_PIPE] |626|  ; [ORIG 16-BIT INS]
    2348 00000022 BF18              IT        NE                    ; [DPU_V7M3_PIPE]  ; [ORIG 16-BIT INS]
    2349                            .dwpsn  file "../Application/Services/nvoctp.c",line 636,column 11,is_stmt,isa 1
    2350 00000024 2704              MOVNE     V4, #4                ; [DPU_V7M3_PIPE] |636|  ; [ORIG 16-BIT INS]
    2351 00000026 D104              BNE       ||$C$L26||            ; [DPU_V7M3_PIPE] |636|  ; [ORIG 16-BIT INS]
    2352                            ; BRANCHCC OCCURS {||$C$L26||}   ; [] |636| 
    2353                    ;* --------------------------------------------------------------------------*
    2354 00000028           ||$C$L25||:    
    2355                            .dwpsn  file "../Application/Services/nvoctp.c",line 629,column 11,is_stmt,isa 1
    2356 00000028 78A0              LDRB      A1, [V1, #2]          ; [DPU_V7M3_PIPE] |629|  ; [ORIG 16-BIT INS]
    2357 0000002a 2100              MOVS      A2, #0                ; [DPU_V7M3_PIPE] |629|  ; [ORIG 16-BIT INS]
    2358                    $C$DW$171       .dwtag  DW_TAG_TI_branch
    2359                            .dwattr $C$DW$171, DW_AT_low_pc(0x00)
    2360                            .dwattr $C$DW$171, DW_AT_name("NVOCTP_compactPage")
    2361                            .dwattr $C$DW$171, DW_AT_TI_call
    2362                    
    2363 0000002c FFFEF7FF!         BL        NVOCTP_compactPage    ; [DPU_V7M3_PIPE] |629|  ; [KEEP 32-BIT INS]
    2364                            ; CALL OCCURS {NVOCTP_compactPage }  ; [] |629| 
    2365                            .dwpsn  file "../Application/Services/nvoctp.c",line 631,column 11,is_stmt,isa 1
TI ARM Assembler PC v18.1.1 Wed Apr 25 09:49:37 2018

Tools Copyright (c) 1996-2017 Texas Instruments Incorporated
C:\Users\devops\AppData\Local\Temp\2\{20EEA8E7-9EAD-4D8F-95A1-C84FA7AD0574} PAGE   44

    2366 00000030 7967              LDRB      V4, [V1, #5]          ; [DPU_V7M3_PIPE] |631|  ; [ORIG 16-BIT INS]
    2367                    ;* --------------------------------------------------------------------------*
    2368 00000032           ||$C$L26||:    
    2369                            .dwpsn  file "../Application/Services/nvoctp.c",line 639,column 3,is_stmt,isa 1
    2370 00000032 68A0              LDR       A1, [V1, #8]          ; [DPU_V7M3_PIPE] |639|  ; [ORIG 16-BIT INS]
    2371                    $C$DW$172       .dwtag  DW_TAG_TI_branch
    2372                            .dwattr $C$DW$172, DW_AT_low_pc(0x00)
    2373                            .dwattr $C$DW$172, DW_AT_name("ti_sysbios_knl_Semaphore_post__E")
    2374                            .dwattr $C$DW$172, DW_AT_TI_call
    2375                    
    2376 00000034 FFFEF7FF!         BL        ti_sysbios_knl_Semaphore_post__E ; [DPU_V7M3_PIPE] |639|  ; [KEEP 32-BIT INS]
    2377                            ; CALL OCCURS {ti_sysbios_knl_Semaphore_post__E }  ; [] |639| 
    2378 00000038 4638              MOV       A1, V4                ; [DPU_V7M3_PIPE] |639|  ; [ORIG 16-BIT INS]
    2379                    $C$DW$173       .dwtag  DW_TAG_TI_branch
    2380                            .dwattr $C$DW$173, DW_AT_low_pc(0x00)
    2381                            .dwattr $C$DW$173, DW_AT_TI_return
    2382                    
    2383 0000003a BDD0              POP       {V1, V3, V4, PC}      ; [DPU_V7M3_PIPE]  ; [ORIG 16-BIT INS]
    2384                            .dwcfi  cfa_offset, 0
    2385                            .dwcfi  restore_reg, 7
    2386                            .dwcfi  restore_reg, 6
    2387                            .dwcfi  restore_reg, 4
    2388                            ; BRANCH OCCURS                  ; [] 
    2389                            .dwattr $C$DW$166, DW_AT_TI_end_file("../Application/Services/nvoctp.c")
    2390                            .dwattr $C$DW$166, DW_AT_TI_end_line(0x280)
    2391                            .dwattr $C$DW$166, DW_AT_TI_end_column(0x01)
    2392                            .dwendentry
    2393                            .dwendtag $C$DW$166
    2394                    
    2395 00000000                   .sect   ".text:NVOCTP_setPageActive"
    2396                            .clink
    2397                            .thumbfunc NVOCTP_setPageActive
    2398 00000000                   .thumb
    2399                    
    2400                    $C$DW$174       .dwtag  DW_TAG_subprogram
    2401                            .dwattr $C$DW$174, DW_AT_name("NVOCTP_setPageActive")
    2402                            .dwattr $C$DW$174, DW_AT_low_pc(NVOCTP_setPageActive)
    2403                            .dwattr $C$DW$174, DW_AT_high_pc(0x00)
    2404                            .dwattr $C$DW$174, DW_AT_TI_symbol_name("NVOCTP_setPageActive")
    2405                            .dwattr $C$DW$174, DW_AT_TI_begin_file("../Application/Services/nvoctp.c")
    2406                            .dwattr $C$DW$174, DW_AT_TI_begin_line(0x4fc)
    2407                            .dwattr $C$DW$174, DW_AT_TI_begin_column(0x0d)
    2408                            .dwattr $C$DW$174, DW_AT_decl_file("../Application/Services/nvoctp.c")
    2409                            .dwattr $C$DW$174, DW_AT_decl_line(0x4fc)
    2410                            .dwattr $C$DW$174, DW_AT_decl_column(0x0d)
    2411                            .dwattr $C$DW$174, DW_AT_TI_max_frame_size(0x10)
    2412                            .dwpsn  file "../Application/Services/nvoctp.c",line 1277,column 1,is_stmt,address NVOCTP_setP
    2413                    
    2414                            .dwfde $C$DW$CIE, NVOCTP_setPageActive
    2415                    $C$DW$175       .dwtag  DW_TAG_formal_parameter
    2416                            .dwattr $C$DW$175, DW_AT_name("pg")
    2417                            .dwattr $C$DW$175, DW_AT_TI_symbol_name("pg")
    2418                            .dwattr $C$DW$175, DW_AT_type(*$C$DW$T$131)
    2419                            .dwattr $C$DW$175, DW_AT_location[DW_OP_reg0]
    2420                    
TI ARM Assembler PC v18.1.1 Wed Apr 25 09:49:37 2018

Tools Copyright (c) 1996-2017 Texas Instruments Incorporated
C:\Users\devops\AppData\Local\Temp\2\{20EEA8E7-9EAD-4D8F-95A1-C84FA7AD0574} PAGE   45

    2421                    
    2422                    ;*****************************************************************************
    2423                    ;* FUNCTION NAME: NVOCTP_setPageActive                                       *
    2424                    ;*                                                                           *
    2425                    ;*   Regs Modified     : A1,A2,A3,A4,V1,V2,V3,V9,SP,LR,SR                    *
    2426                    ;*   Regs Used         : A1,A2,A3,A4,V1,V2,V3,V9,SP,LR,SR                    *
    2427                    ;*   Local Frame Size  : 0 Args + 0 Auto + 16 Save = 16 byte                 *
    2428                    ;*****************************************************************************
    2429                    NVOCTP_setPageActive:
    2430                    ;* --------------------------------------------------------------------------*
    2431                    ;* V1    assigned to $O$K3
    2432                    ;* A1    assigned to $O$v1
    2433                    ;* V2    assigned to pg
    2434                    $C$DW$176       .dwtag  DW_TAG_variable
    2435                            .dwattr $C$DW$176, DW_AT_name("pg")
    2436                            .dwattr $C$DW$176, DW_AT_TI_symbol_name("pg")
    2437                            .dwattr $C$DW$176, DW_AT_type(*$C$DW$T$1106)
    2438                            .dwattr $C$DW$176, DW_AT_location[DW_OP_reg5]
    2439                    
    2440                    ;* V3    assigned to cycle
    2441                    $C$DW$177       .dwtag  DW_TAG_variable
    2442                            .dwattr $C$DW$177, DW_AT_name("cycle")
    2443                            .dwattr $C$DW$177, DW_AT_TI_symbol_name("cycle")
    2444                            .dwattr $C$DW$177, DW_AT_type(*$C$DW$T$10)
    2445                            .dwattr $C$DW$177, DW_AT_location[DW_OP_reg6]
    2446                    
    2447                            .dwcfi  cfa_offset, 0
    2448 00000000 B570              PUSH      {V1, V2, V3, LR}      ; [DPU_V7M3_PIPE]  ; [ORIG 16-BIT INS]
    2449                            .dwcfi  cfa_offset, 16
    2450                            .dwcfi  save_reg_to_mem, 14, -4
    2451                            .dwcfi  save_reg_to_mem, 6, -8
    2452                            .dwcfi  save_reg_to_mem, 5, -12
    2453                            .dwcfi  save_reg_to_mem, 4, -16
    2454                            .dwpsn  file "../Application/Services/nvoctp.c",line 1281,column 5,is_stmt,isa 1
    2455 00000002 4C11              LDR       V1, $C$CON17          ; [DPU_V7M3_PIPE] |1281|  ; [ORIG 16-BIT INS]
    2456                            .dwpsn  file "../Application/Services/nvoctp.c",line 1277,column 1,is_stmt,isa 1
    2457 00000004 4605              MOV       V2, A1                ; [DPU_V7M3_PIPE] |1277|  ; [ORIG 16-BIT INS]
    2458 00000006 1CE0              ADDS      A1, V1, #3            ; [DPU_V7M3_PIPE]  ; [ORIG 16-BIT INS]
    2459                            .dwpsn  file "../Application/Services/nvoctp.c",line 1281,column 5,is_stmt,isa 1
    2460 00000008 7800              LDRB      A1, [A1, #0]          ; [DPU_V7M3_PIPE] |1281|  ; [ORIG 16-BIT INS]
    2461 0000000a 28FE              CMP       A1, #254              ; [DPU_V7M3_PIPE] |1281|  ; [ORIG 16-BIT INS]
    2462 0000000c BFAE              ITEE      GE                    ; [DPU_V7M3_PIPE]  ; [ORIG 16-BIT INS]
    2463 0000000e 2601              MOVGE     V3, #1                ; [DPU_V7M3_PIPE] |1281|  ; [ORIG 16-BIT INS]
    2464 00000010 1C40              ADDLT     A1, A1, #1            ; [DPU_V7M3_PIPE] |1281|  ; [ORIG 16-BIT INS]
    2465 00000012 B2C6              UXTBLT    V3, A1                ; [DPU_V7M3_PIPE] |1281|  ; [ORIG 16-BIT INS]
    2466                            .dwpsn  file "../Application/Services/nvoctp.c",line 1284,column 5,is_stmt,isa 1
    2467 00000014 2103              MOVS      A2, #3                ; [DPU_V7M3_PIPE] |1284|  ; [ORIG 16-BIT INS]
    2468 00000016 2296              MOVS      A3, #150              ; [DPU_V7M3_PIPE] |1284|  ; [ORIG 16-BIT INS]
    2469 00000018 4628              MOV       A1, V2                ; [DPU_V7M3_PIPE] |1284|  ; [ORIG 16-BIT INS]
    2470                    $C$DW$178       .dwtag  DW_TAG_TI_branch
    2471                            .dwattr $C$DW$178, DW_AT_low_pc(0x00)
    2472                            .dwattr $C$DW$178, DW_AT_name("NVOCTP_writeByte")
    2473                            .dwattr $C$DW$178, DW_AT_TI_call
    2474                    
    2475 0000001a FFFEF7FF!         BL        NVOCTP_writeByte      ; [DPU_V7M3_PIPE] |1284|  ; [KEEP 32-BIT INS]
TI ARM Assembler PC v18.1.1 Wed Apr 25 09:49:37 2018

Tools Copyright (c) 1996-2017 Texas Instruments Incorporated
C:\Users\devops\AppData\Local\Temp\2\{20EEA8E7-9EAD-4D8F-95A1-C84FA7AD0574} PAGE   46

    2476                            ; CALL OCCURS {NVOCTP_writeByte }  ; [] |1284| 
    2477                            .dwpsn  file "../Application/Services/nvoctp.c",line 1286,column 5,is_stmt,isa 1
    2478 0000001e 2102              MOVS      A2, #2                ; [DPU_V7M3_PIPE] |1286|  ; [ORIG 16-BIT INS]
    2479 00000020 2201              MOVS      A3, #1                ; [DPU_V7M3_PIPE] |1286|  ; [ORIG 16-BIT INS]
    2480 00000022 4628              MOV       A1, V2                ; [DPU_V7M3_PIPE] |1286|  ; [ORIG 16-BIT INS]
    2481                    $C$DW$179       .dwtag  DW_TAG_TI_branch
    2482                            .dwattr $C$DW$179, DW_AT_low_pc(0x00)
    2483                            .dwattr $C$DW$179, DW_AT_name("NVOCTP_writeByte")
    2484                            .dwattr $C$DW$179, DW_AT_TI_call
    2485                    
    2486 00000024 FFFEF7FF!         BL        NVOCTP_writeByte      ; [DPU_V7M3_PIPE] |1286|  ; [KEEP 32-BIT INS]
    2487                            ; CALL OCCURS {NVOCTP_writeByte }  ; [] |1286| 
    2488                            .dwpsn  file "../Application/Services/nvoctp.c",line 1288,column 5,is_stmt,isa 1
    2489 00000028 2101              MOVS      A2, #1                ; [DPU_V7M3_PIPE] |1288|  ; [ORIG 16-BIT INS]
    2490 0000002a 4628              MOV       A1, V2                ; [DPU_V7M3_PIPE] |1288|  ; [ORIG 16-BIT INS]
    2491 0000002c 4632              MOV       A3, V3                ; [DPU_V7M3_PIPE] |1288|  ; [ORIG 16-BIT INS]
    2492                    $C$DW$180       .dwtag  DW_TAG_TI_branch
    2493                            .dwattr $C$DW$180, DW_AT_low_pc(0x00)
    2494                            .dwattr $C$DW$180, DW_AT_name("NVOCTP_writeByte")
    2495                            .dwattr $C$DW$180, DW_AT_TI_call
    2496                    
    2497 0000002e FFFEF7FF!         BL        NVOCTP_writeByte      ; [DPU_V7M3_PIPE] |1288|  ; [KEEP 32-BIT INS]
    2498                            ; CALL OCCURS {NVOCTP_writeByte }  ; [] |1288| 
    2499                            .dwpsn  file "../Application/Services/nvoctp.c",line 1290,column 5,is_stmt,isa 1
    2500 00000032 2100              MOVS      A2, #0                ; [DPU_V7M3_PIPE] |1290|  ; [ORIG 16-BIT INS]
    2501 00000034 22A5              MOVS      A3, #165              ; [DPU_V7M3_PIPE] |1290|  ; [ORIG 16-BIT INS]
    2502 00000036 4628              MOV       A1, V2                ; [DPU_V7M3_PIPE] |1290|  ; [ORIG 16-BIT INS]
    2503                    $C$DW$181       .dwtag  DW_TAG_TI_branch
    2504                            .dwattr $C$DW$181, DW_AT_low_pc(0x00)
    2505                            .dwattr $C$DW$181, DW_AT_name("NVOCTP_writeByte")
    2506                            .dwattr $C$DW$181, DW_AT_TI_call
    2507                    
    2508 00000038 FFFEF7FF!         BL        NVOCTP_writeByte      ; [DPU_V7M3_PIPE] |1290|  ; [KEEP 32-BIT INS]
    2509                            ; CALL OCCURS {NVOCTP_writeByte }  ; [] |1290| 
    2510                            .dwpsn  file "../Application/Services/nvoctp.c",line 1292,column 5,is_stmt,isa 1
    2511 0000003c 7960              LDRB      A1, [V1, #5]          ; [DPU_V7M3_PIPE] |1292|  ; [ORIG 16-BIT INS]
    2512 0000003e B908              CBNZ      A1, ||$C$L27||        ; []  ; [ORIG 16-BIT INS]
    2513                            .dwpsn  file "../Application/Services/nvoctp.c",line 1295,column 9,is_stmt,isa 1
    2514 00000040 70A5              STRB      V2, [V1, #2]          ; [DPU_V7M3_PIPE] |1295|  ; [ORIG 16-BIT INS]
    2515                            .dwpsn  file "../Application/Services/nvoctp.c",line 1296,column 9,is_stmt,isa 1
    2516 00000042 70E6              STRB      V3, [V1, #3]          ; [DPU_V7M3_PIPE] |1296|  ; [ORIG 16-BIT INS]
    2517                    ;* --------------------------------------------------------------------------*
    2518                    ||$C$L27||:    
    2519                    $C$DW$182       .dwtag  DW_TAG_TI_branch
    2520                            .dwattr $C$DW$182, DW_AT_low_pc(0x00)
    2521                            .dwattr $C$DW$182, DW_AT_TI_return
    2522                    
    2523 00000044 BD70              POP       {V1, V2, V3, PC}      ; [DPU_V7M3_PIPE]  ; [ORIG 16-BIT INS]
    2524                            .dwcfi  cfa_offset, 0
    2525                            .dwcfi  restore_reg, 6
    2526                            .dwcfi  restore_reg, 5
    2527                            .dwcfi  restore_reg, 4
    2528                            ; BRANCH OCCURS                  ; [] 
    2529                            .dwattr $C$DW$174, DW_AT_TI_end_file("../Application/Services/nvoctp.c")
    2530                            .dwattr $C$DW$174, DW_AT_TI_end_line(0x512)
TI ARM Assembler PC v18.1.1 Wed Apr 25 09:49:37 2018

Tools Copyright (c) 1996-2017 Texas Instruments Incorporated
C:\Users\devops\AppData\Local\Temp\2\{20EEA8E7-9EAD-4D8F-95A1-C84FA7AD0574} PAGE   47

    2531                            .dwattr $C$DW$174, DW_AT_TI_end_column(0x01)
    2532                            .dwendentry
    2533                            .dwendtag $C$DW$174
    2534                    
    2535 00000000                   .sect   ".text:NVOCTP_initNvApi"
    2536                            .clink
    2537                            .thumbfunc NVOCTP_initNvApi
    2538 00000000                   .thumb
    2539                    
    2540                    $C$DW$183       .dwtag  DW_TAG_subprogram
    2541                            .dwattr $C$DW$183, DW_AT_name("NVOCTP_initNvApi")
    2542                            .dwattr $C$DW$183, DW_AT_low_pc(NVOCTP_initNvApi)
    2543                            .dwattr $C$DW$183, DW_AT_high_pc(0x00)
    2544                            .dwattr $C$DW$183, DW_AT_TI_symbol_name("NVOCTP_initNvApi")
    2545                            .dwattr $C$DW$183, DW_AT_type(*$C$DW$T$131)
    2546                            .dwattr $C$DW$183, DW_AT_TI_begin_file("../Application/Services/nvoctp.c")
    2547                            .dwattr $C$DW$183, DW_AT_TI_begin_line(0x1d0)
    2548                            .dwattr $C$DW$183, DW_AT_TI_begin_column(0x10)
    2549                            .dwattr $C$DW$183, DW_AT_decl_file("../Application/Services/nvoctp.c")
    2550                            .dwattr $C$DW$183, DW_AT_decl_line(0x1d0)
    2551                            .dwattr $C$DW$183, DW_AT_decl_column(0x10)
    2552                            .dwattr $C$DW$183, DW_AT_TI_max_frame_size(0x58)
    2553                            .dwpsn  file "../Application/Services/nvoctp.c",line 465,column 1,is_stmt,address NVOCTP_initN
    2554                    
    2555                            .dwfde $C$DW$CIE, NVOCTP_initNvApi
    2556                    $C$DW$184       .dwtag  DW_TAG_formal_parameter
    2557                            .dwattr $C$DW$184, DW_AT_name("param")
    2558                            .dwattr $C$DW$184, DW_AT_TI_symbol_name("param")
    2559                            .dwattr $C$DW$184, DW_AT_type(*$C$DW$T$3)
    2560                            .dwattr $C$DW$184, DW_AT_location[DW_OP_reg0]
    2561                    
    2562                    
    2563                    ;*****************************************************************************
    2564                    ;* FUNCTION NAME: NVOCTP_initNvApi                                           *
    2565                    ;*                                                                           *
    2566                    ;*   Regs Modified     : A1,A2,A3,A4,V1,V2,V3,V4,V5,V9,SP,LR,SR              *
    2567                    ;*   Regs Used         : A1,A2,A3,A4,V1,V2,V3,V4,V5,V9,SP,LR,SR              *
    2568                    ;*   Local Frame Size  : 4 Args + 60 Auto + 24 Save = 88 byte                *
    2569                    ;*****************************************************************************
    2570                    NVOCTP_initNvApi:
    2571                    ;* --------------------------------------------------------------------------*
    2572                    ;* V4    assigned to $O$C16
    2573                    ;* A1    assigned to $O$C17
    2574                    ;* V1    assigned to $O$C18
    2575                    ;* V3    assigned to $O$v6
    2576                    ;* A1    assigned to $O$v6
    2577                    ;* A1    assigned to $O$v6
    2578                    ;* V1    assigned to $O$K2
    2579                    ;* V4    assigned to pg
    2580                    $C$DW$185       .dwtag  DW_TAG_variable
    2581                            .dwattr $C$DW$185, DW_AT_name("pg")
    2582                            .dwattr $C$DW$185, DW_AT_TI_symbol_name("pg")
    2583                            .dwattr $C$DW$185, DW_AT_type(*$C$DW$T$10)
    2584                            .dwattr $C$DW$185, DW_AT_location[DW_OP_reg7]
    2585                    
TI ARM Assembler PC v18.1.1 Wed Apr 25 09:49:37 2018

Tools Copyright (c) 1996-2017 Texas Instruments Incorporated
C:\Users\devops\AppData\Local\Temp\2\{20EEA8E7-9EAD-4D8F-95A1-C84FA7AD0574} PAGE   48

    2586                    ;* A1    assigned to $O$v7
    2587                    ;* A1    assigned to $O$v5
    2588                    ;* A2    assigned to $O$v4
    2589                    ;* A4    assigned to $O$v3
    2590                    ;* V2    assigned to $O$v2
    2591                    ;* V3    assigned to xferPg
    2592                    $C$DW$186       .dwtag  DW_TAG_variable
    2593                            .dwattr $C$DW$186, DW_AT_name("xferPg")
    2594                            .dwattr $C$DW$186, DW_AT_TI_symbol_name("xferPg")
    2595                            .dwattr $C$DW$186, DW_AT_type(*$C$DW$T$10)
    2596                            .dwattr $C$DW$186, DW_AT_location[DW_OP_reg6]
    2597                    
    2598                    ;* A1    assigned to err
    2599                    $C$DW$187       .dwtag  DW_TAG_variable
    2600                            .dwattr $C$DW$187, DW_AT_name("err")
    2601                            .dwattr $C$DW$187, DW_AT_TI_symbol_name("err")
    2602                            .dwattr $C$DW$187, DW_AT_type(*$C$DW$T$10)
    2603                            .dwattr $C$DW$187, DW_AT_location[DW_OP_reg0]
    2604                    
    2605                            .dwcfi  cfa_offset, 0
    2606 00000000 41F0E92D          PUSH      {V1, V2, V3, V4, V5, LR} ; [DPU_V7M3_PIPE]  ; [KEEP 32-BIT INS]
    2607                            .dwcfi  cfa_offset, 24
    2608                            .dwcfi  save_reg_to_mem, 14, -4
    2609                            .dwcfi  save_reg_to_mem, 8, -8
    2610                            .dwcfi  save_reg_to_mem, 7, -12
    2611                            .dwcfi  save_reg_to_mem, 6, -16
    2612                            .dwcfi  save_reg_to_mem, 5, -20
    2613                            .dwcfi  save_reg_to_mem, 4, -24
    2614                            .dwpsn  file "../Application/Services/nvoctp.c",line 466,column 5,is_stmt,isa 1
    2615 00000004 4C56              LDR       V1, $C$CON20          ; [DPU_V7M3_PIPE] |466|  ; [ORIG 16-BIT INS]
    2616 00000006 7920              LDRB      A1, [V1, #4]          ; [DPU_V7M3_PIPE] |466|  ; [ORIG 16-BIT INS]
    2617 00000008 0D40F1AD          SUB       SP, SP, #64           ; [DPU_V7M3_PIPE]  ; [KEEP 32-BIT INS]
    2618                            .dwcfi  cfa_offset, 88
    2619                            .dwpsn  file "../Application/Services/nvoctp.c",line 468,column 5,is_stmt,isa 1
    2620 0000000c 2803              CMP       A1, #3                ; [DPU_V7M3_PIPE] |468|  ; [ORIG 16-BIT INS]
    2621 0000000e BF18              IT        NE                    ; [DPU_V7M3_PIPE]  ; [ORIG 16-BIT INS]
    2622 00000010 7160              STRBNE    A1, [V1, #5]          ; [DPU_V7M3_PIPE]  ; [ORIG 16-BIT INS]
    2623 00000012 AFFEF47F!         BNE       ||$C$L44||            ; [DPU_V7M3_PIPE]  ; [KEEP 32-BIT INS]
    2624                            ; BRANCHCC OCCURS {||$C$L44||}   ; [] 
    2625                    ;* --------------------------------------------------------------------------*
    2626                            .dwpsn  file "../Application/Services/nvoctp.c",line 475,column 9,is_stmt,isa 1
    2627 00000016 2000              MOVS      A1, #0                ; [DPU_V7M3_PIPE] |475|  ; [ORIG 16-BIT INS]
    2628 00000018 4680              MOV       V5, A1                ; [DPU_V7M3_PIPE] |475|  ; [ORIG 16-BIT INS]
    2629 0000001a 7160              STRB      A1, [V1, #5]          ; [DPU_V7M3_PIPE] |475|  ; [ORIG 16-BIT INS]
    2630                            .dwpsn  file "C:/ti/simplelink_cc13x0_sdk_2_10_00_36/kernel/tirtos/packages/ti/sysbios/knl/Sem
    2631 0000001c 2224              MOVS      A3, #36               ; [DPU_V7M3_PIPE] |547|  ; [ORIG 16-BIT INS]
    2632 0000001e 2308              MOVS      A4, #8                ; [DPU_V7M3_PIPE] |547|  ; [ORIG 16-BIT INS]
    2633                            .dwpsn  file "../Application/Services/nvoctp.c",line 475,column 9,is_stmt,isa 1
    2634 00000020 8004F884          STRB      V5, [V1, #4]          ; [DPU_V7M3_PIPE] |475|  ; [KEEP 32-BIT INS]
    2635                            .dwpsn  file "C:/ti/simplelink_cc13x0_sdk_2_10_00_36/kernel/tirtos/packages/ti/sysbios/knl/Sem
    2636 00000024 4641              MOV       A2, V5                ; [DPU_V7M3_PIPE] |547|  ; [ORIG 16-BIT INS]
    2637 00000026 A801              ADD       A1, SP, #4            ; [DPU_V7M3_PIPE] |547|  ; [ORIG 16-BIT INS]
    2638                    $C$DW$188       .dwtag  DW_TAG_TI_branch
    2639                            .dwattr $C$DW$188, DW_AT_low_pc(0x00)
    2640                            .dwattr $C$DW$188, DW_AT_name("ti_sysbios_knl_Semaphore_Params__init__S")
TI ARM Assembler PC v18.1.1 Wed Apr 25 09:49:37 2018

Tools Copyright (c) 1996-2017 Texas Instruments Incorporated
C:\Users\devops\AppData\Local\Temp\2\{20EEA8E7-9EAD-4D8F-95A1-C84FA7AD0574} PAGE   49

    2641                            .dwattr $C$DW$188, DW_AT_TI_call
    2642                    
    2643 00000028 FFFEF7FF!         BL        ti_sysbios_knl_Semaphore_Params__init__S ; [DPU_V7M3_PIPE] |547|  ; [KEEP 32-BIT INS
    2644                            ; CALL OCCURS {ti_sysbios_knl_Semaphore_Params__init__S }  ; [] |547| 
    2645                            .dwpsn  file "../Application/Services/nvoctp.c",line 479,column 9,is_stmt,isa 1
    2646 0000002c 2003              MOVS      A1, #3                ; [DPU_V7M3_PIPE] |479|  ; [ORIG 16-BIT INS]
    2647                            .dwpsn  file "../Application/Services/nvoctp.c",line 480,column 9,is_stmt,isa 1
    2648 0000002e A901              ADD       A2, SP, #4            ; [DPU_V7M3_PIPE] |480|  ; [ORIG 16-BIT INS]
    2649                            .dwpsn  file "../Application/Services/nvoctp.c",line 479,column 9,is_stmt,isa 1
    2650 00000030 001CF88D          STRB      A1, [SP, #28]         ; [DPU_V7M3_PIPE] |479|  ; [KEEP 32-BIT INS]
    2651                            .dwpsn  file "../Application/Services/nvoctp.c",line 480,column 9,is_stmt,isa 1
    2652 00000034 4642              MOV       A3, V5                ; [DPU_V7M3_PIPE] |480|  ; [ORIG 16-BIT INS]
    2653 00000036 2001              MOVS      A1, #1                ; [DPU_V7M3_PIPE] |480|  ; [ORIG 16-BIT INS]
    2654                    $C$DW$189       .dwtag  DW_TAG_TI_branch
    2655                            .dwattr $C$DW$189, DW_AT_low_pc(0x00)
    2656                            .dwattr $C$DW$189, DW_AT_name("ti_sysbios_knl_Semaphore_create")
    2657                            .dwattr $C$DW$189, DW_AT_TI_call
    2658                    
    2659 00000038 FFFEF7FF!         BL        ti_sysbios_knl_Semaphore_create ; [DPU_V7M3_PIPE] |480|  ; [KEEP 32-BIT INS]
    2660                            ; CALL OCCURS {ti_sysbios_knl_Semaphore_create }  ; [] |480| 
    2661 0000003c 271D              MOVS      V4, #29               ; [DPU_V7M3_PIPE]  ; [ORIG 16-BIT INS]
    2662 0000003e 60A0              STR       A1, [V1, #8]          ; [DPU_V7M3_PIPE] |480|  ; [ORIG 16-BIT INS]
    2663 00000040 4640              MOV       A1, V5                ; [DPU_V7M3_PIPE] |480|  ; [ORIG 16-BIT INS]
    2664 00000042 4606              MOV       V3, A1                ; [DPU_V7M3_PIPE]  ; [ORIG 16-BIT INS]
    2665 00000044 4635              MOV       V2, V3                ; [DPU_V7M3_PIPE]  ; [ORIG 16-BIT INS]
    2666                            .dwpsn  file "../Application/Services/nvoctp.c",line 483,column 9,is_stmt,isa 1
    2667 00000046 70A0              STRB      A1, [V1, #2]          ; [DPU_V7M3_PIPE] |483|  ; [ORIG 16-BIT INS]
    2668                    ;* --------------------------------------------------------------------------*
    2669                    ;*   BEGIN LOOP ||$C$L28||
    2670                    ;*
    2671                    ;*   Loop source line                : 486
    2672                    ;*   Loop closing brace source line  : 545
    2673                    ;*   Known Minimum Trip Count        : 2
    2674                    ;*   Known Maximum Trip Count        : 2
    2675                    ;*   Known Max Trip Count Factor     : 2
    2676                    ;* --------------------------------------------------------------------------*
    2677 00000048           ||$C$L28||:    
    2678                            .dwpsn  file "../Application/Services/nvoctp.c",line 490,column 13,is_stmt,isa 1
    2679 00000048 AB0A              ADD       A4, SP, #40           ; [DPU_V7M3_PIPE] |490|  ; [ORIG 16-BIT INS]
    2680 0000004a 4638              MOV       A1, V4                ; [DPU_V7M3_PIPE] |490|  ; [ORIG 16-BIT INS]
    2681 0000004c 4641              MOV       A2, V5                ; [DPU_V7M3_PIPE] |490|  ; [ORIG 16-BIT INS]
    2682 0000004e 2204              MOVS      A3, #4                ; [DPU_V7M3_PIPE] |490|  ; [ORIG 16-BIT INS]
    2683                    $C$DW$190       .dwtag  DW_TAG_TI_branch
    2684                            .dwattr $C$DW$190, DW_AT_low_pc(0x00)
    2685                            .dwattr $C$DW$190, DW_AT_name("NVOCTP_flashRead")
    2686                            .dwattr $C$DW$190, DW_AT_TI_call
    2687                    
    2688 00000050 FFFEF7FF!         BL        NVOCTP_flashRead      ; [DPU_V7M3_PIPE] |490|  ; [KEEP 32-BIT INS]
    2689                            ; CALL OCCURS {NVOCTP_flashRead }  ; [] |490| 
    2690                            .dwpsn  file "../Application/Services/nvoctp.c",line 492,column 13,is_stmt,isa 1
    2691 00000054 1028F89D          LDRB      A2, [SP, #40]         ; [DPU_V7M3_PIPE] |492|  ; [KEEP 32-BIT INS]
    2692 00000058 78E3              LDRB      A4, [V1, #3]          ; [DPU_V7M3_PIPE] |492|  ; [ORIG 16-BIT INS]
    2693 0000005a 29A5              CMP       A2, #165              ; [DPU_V7M3_PIPE] |492|  ; [ORIG 16-BIT INS]
    2694 0000005c D107              BNE       ||$C$L29||            ; [DPU_V7M3_PIPE] |492|  ; [ORIG 16-BIT INS]
    2695                            ; BRANCHCC OCCURS {||$C$L29||}   ; [] |492| 
TI ARM Assembler PC v18.1.1 Wed Apr 25 09:49:37 2018

Tools Copyright (c) 1996-2017 Texas Instruments Incorporated
C:\Users\devops\AppData\Local\Temp\2\{20EEA8E7-9EAD-4D8F-95A1-C84FA7AD0574} PAGE   50

    2696                    ;* --------------------------------------------------------------------------*
    2697 0000005e 0029F89D          LDRB      A1, [SP, #41]         ; [DPU_V7M3_PIPE] |492|  ; [KEEP 32-BIT INS]
    2698 00000062 28FE              CMP       A1, #254              ; [DPU_V7M3_PIPE] |492|  ; [ORIG 16-BIT INS]
    2699 00000064 DC03              BGT       ||$C$L29||            ; [DPU_V7M3_PIPE] |492|  ; [ORIG 16-BIT INS]
    2700                            ; BRANCHCC OCCURS {||$C$L29||}   ; [] |492| 
    2701                    ;* --------------------------------------------------------------------------*
    2702 00000066 202BF89D          LDRB      A3, [SP, #43]         ; [DPU_V7M3_PIPE] |492|  ; [KEEP 32-BIT INS]
    2703 0000006a 2A96              CMP       A3, #150              ; [DPU_V7M3_PIPE] |492|  ; [ORIG 16-BIT INS]
    2704 0000006c D009              BEQ       ||$C$L31||            ; [DPU_V7M3_PIPE] |492|  ; [ORIG 16-BIT INS]
    2705                            ; BRANCHCC OCCURS {||$C$L31||}   ; [] |492| 
    2706                    ;* --------------------------------------------------------------------------*
    2707 0000006e           ||$C$L29||:    
    2708                            .dwpsn  file "../Application/Services/nvoctp.c",line 531,column 18,is_stmt,isa 1
    2709 0000006e 2924              CMP       A2, #36               ; [DPU_V7M3_PIPE] |531|  ; [ORIG 16-BIT INS]
    2710 00000070 D002              BEQ       ||$C$L30||            ; [DPU_V7M3_PIPE] |531|  ; [ORIG 16-BIT INS]
    2711                            ; BRANCHCC OCCURS {||$C$L30||}   ; [] |531| 
    2712                    ;* --------------------------------------------------------------------------*
    2713                            .dwpsn  file "../Application/Services/nvoctp.c",line 540,column 18,is_stmt,isa 1
    2714 00000072 29B7              CMP       A2, #183              ; [DPU_V7M3_PIPE] |540|  ; [ORIG 16-BIT INS]
    2715 00000074 D118              BNE       ||$C$L34||            ; [DPU_V7M3_PIPE] |540|  ; [ORIG 16-BIT INS]
    2716                            ; BRANCHCC OCCURS {||$C$L34||}   ; [] |540| 
    2717                    ;* --------------------------------------------------------------------------*
    2718 00000076 E01F              B         ||$C$L37||            ; [DPU_V7M3_PIPE] |540|  ; [ORIG 16-BIT INS]
    2719                            ; BRANCH OCCURS {||$C$L37||}     ; [] |540| 
    2720                    ;* --------------------------------------------------------------------------*
    2721 00000078           ||$C$L30||:    
    2722                            .dwpsn  file "../Application/Services/nvoctp.c",line 533,column 17,is_stmt,isa 1
    2723 00000078 463E              MOV       V3, V4                ; [DPU_V7M3_PIPE] |533|  ; [ORIG 16-BIT INS]
    2724 0000007a B9EB              CBNZ      A4, ||$C$L37||        ; []  ; [ORIG 16-BIT INS]
    2725                            .dwpsn  file "../Application/Services/nvoctp.c",line 534,column 17,is_stmt,isa 1
    2726                            ; BRANCHCC OCCURS {||$C$L37||}   ; [] |534| 
    2727                    ;* --------------------------------------------------------------------------*
    2728                            .dwpsn  file "../Application/Services/nvoctp.c",line 537,column 21,is_stmt,isa 1
    2729 0000007c 0029F89D          LDRB      A1, [SP, #41]         ; [DPU_V7M3_PIPE] |537|  ; [KEEP 32-BIT INS]
    2730 00000080 E019              B         ||$C$L36||            ; [DPU_V7M3_PIPE] |537|  ; [ORIG 16-BIT INS]
    2731                            ; BRANCH OCCURS {||$C$L36||}     ; [] |537| 
    2732                    ;* --------------------------------------------------------------------------*
    2733 00000082           ||$C$L31||:    
    2734 00000082 B1B5              CBZ       V2, ||$C$L35||        ; []  ; [ORIG 16-BIT INS]
    2735                            .dwpsn  file "../Application/Services/nvoctp.c",line 503,column 17,is_stmt,isa 1
    2736                            ; BRANCHCC OCCURS {||$C$L35||}   ; [] |503| 
    2737                    ;* --------------------------------------------------------------------------*
    2738                            .dwpsn  file "../Application/Services/nvoctp.c",line 512,column 21,is_stmt,isa 1
    2739 00000084 4298              CMP       A1, A4                ; [DPU_V7M3_PIPE] |512|  ; [ORIG 16-BIT INS]
    2740 00000086 DA03              BGE       ||$C$L32||            ; [DPU_V7M3_PIPE] |512|  ; [ORIG 16-BIT INS]
    2741                            ; BRANCHCC OCCURS {||$C$L32||}   ; [] |512| 
    2742                    ;* --------------------------------------------------------------------------*
    2743 00000088 2BFE              CMP       A4, #254              ; [DPU_V7M3_PIPE] |512|  ; [ORIG 16-BIT INS]
    2744 0000008a BF18              IT        NE                    ; [DPU_V7M3_PIPE]  ; [ORIG 16-BIT INS]
    2745 0000008c 2801              CMPNE     A1, #1                ; [DPU_V7M3_PIPE] |512|  ; [ORIG 16-BIT INS]
    2746 0000008e D10B              BNE       ||$C$L34||            ; [DPU_V7M3_PIPE] |512|  ; [ORIG 16-BIT INS]
    2747                            ; BRANCHCC OCCURS {||$C$L34||}   ; [] |512| 
    2748                    ;* --------------------------------------------------------------------------*
    2749 00000090           ||$C$L32||:    
    2750 00000090 4298              CMP       A1, A4                ; [DPU_V7M3_PIPE] |512|  ; [ORIG 16-BIT INS]
TI ARM Assembler PC v18.1.1 Wed Apr 25 09:49:37 2018

Tools Copyright (c) 1996-2017 Texas Instruments Incorporated
C:\Users\devops\AppData\Local\Temp\2\{20EEA8E7-9EAD-4D8F-95A1-C84FA7AD0574} PAGE   51

    2751 00000092 DD03              BLE       ||$C$L33||            ; [DPU_V7M3_PIPE] |512|  ; [ORIG 16-BIT INS]
    2752                            ; BRANCHCC OCCURS {||$C$L33||}   ; [] |512| 
    2753                    ;* --------------------------------------------------------------------------*
    2754 00000094 2B01              CMP       A4, #1                ; [DPU_V7M3_PIPE] |512|  ; [ORIG 16-BIT INS]
    2755 00000096 BF08              IT        EQ                    ; [DPU_V7M3_PIPE]  ; [ORIG 16-BIT INS]
    2756 00000098 28FE              CMPEQ     A1, #254              ; [DPU_V7M3_PIPE] |512|  ; [ORIG 16-BIT INS]
    2757 0000009a D005              BEQ       ||$C$L34||            ; [DPU_V7M3_PIPE] |512|  ; [ORIG 16-BIT INS]
    2758                            ; BRANCHCC OCCURS {||$C$L34||}   ; [] |512| 
    2759                    ;* --------------------------------------------------------------------------*
    2760 0000009c           ||$C$L33||:    
    2761                            .dwpsn  file "../Application/Services/nvoctp.c",line 525,column 25,is_stmt,isa 1
    2762 0000009c 4628              MOV       A1, V2                ; [DPU_V7M3_PIPE] |525|  ; [ORIG 16-BIT INS]
    2763                    $C$DW$191       .dwtag  DW_TAG_TI_branch
    2764                            .dwattr $C$DW$191, DW_AT_low_pc(0x00)
    2765                            .dwattr $C$DW$191, DW_AT_name("NVOCTP_erasePage")
    2766                            .dwattr $C$DW$191, DW_AT_TI_call
    2767                    
    2768 0000009e FFFEF7FF!         BL        NVOCTP_erasePage      ; [DPU_V7M3_PIPE] |525|  ; [KEEP 32-BIT INS]
    2769                            ; CALL OCCURS {NVOCTP_erasePage }  ; [] |525| 
    2770                            .dwpsn  file "../Application/Services/nvoctp.c",line 527,column 25,is_stmt,isa 1
    2771 000000a2 0029F89D          LDRB      A1, [SP, #41]         ; [DPU_V7M3_PIPE] |527|  ; [KEEP 32-BIT INS]
    2772 000000a6 E004              B         ||$C$L35||            ; [DPU_V7M3_PIPE] |527|  ; [ORIG 16-BIT INS]
    2773                            ; BRANCH OCCURS {||$C$L35||}     ; [] |527| 
    2774                    ;* --------------------------------------------------------------------------*
    2775 000000a8           ||$C$L34||:    
    2776                            .dwpsn  file "../Application/Services/nvoctp.c",line 520,column 25,is_stmt,isa 1
    2777 000000a8 4638              MOV       A1, V4                ; [DPU_V7M3_PIPE] |520|  ; [ORIG 16-BIT INS]
    2778                    $C$DW$192       .dwtag  DW_TAG_TI_branch
    2779                            .dwattr $C$DW$192, DW_AT_low_pc(0x00)
    2780                            .dwattr $C$DW$192, DW_AT_name("NVOCTP_erasePage")
    2781                            .dwattr $C$DW$192, DW_AT_TI_call
    2782                    
    2783 000000aa FFFEF7FF!         BL        NVOCTP_erasePage      ; [DPU_V7M3_PIPE] |520|  ; [KEEP 32-BIT INS]
    2784                            ; CALL OCCURS {NVOCTP_erasePage }  ; [] |520| 
    2785                            .dwpsn  file "../Application/Services/nvoctp.c",line 521,column 21,is_stmt,isa 1
    2786 000000ae 78A5              LDRB      V2, [V1, #2]          ; [DPU_V7M3_PIPE] |521|  ; [ORIG 16-BIT INS]
    2787 000000b0 E002              B         ||$C$L37||            ; [DPU_V7M3_PIPE] |521|  ; [ORIG 16-BIT INS]
    2788                            ; BRANCH OCCURS {||$C$L37||}     ; [] |521| 
    2789                    ;* --------------------------------------------------------------------------*
    2790 000000b2           ||$C$L35||:    
    2791                            .dwpsn  file "../Application/Services/nvoctp.c",line 506,column 21,is_stmt,isa 1
    2792 000000b2 463D              MOV       V2, V4                ; [DPU_V7M3_PIPE] |506|  ; [ORIG 16-BIT INS]
    2793 000000b4 70A5              STRB      V2, [V1, #2]          ; [DPU_V7M3_PIPE] |506|  ; [ORIG 16-BIT INS]
    2794                    ;* --------------------------------------------------------------------------*
    2795 000000b6           ||$C$L36||:    
    2796                            .dwpsn  file "../Application/Services/nvoctp.c",line 507,column 21,is_stmt,isa 1
    2797 000000b6 70E0              STRB      A1, [V1, #3]          ; [DPU_V7M3_PIPE] |507|  ; [ORIG 16-BIT INS]
    2798                    ;* --------------------------------------------------------------------------*
    2799 000000b8           ||$C$L37||:    
    2800                            .dwpsn  file "../Application/Services/nvoctp.c",line 486,column 46,is_stmt,isa 1
    2801 000000b8 1C7F              ADDS      V4, V4, #1            ; [DPU_V7M3_PIPE] |486|  ; [ORIG 16-BIT INS]
    2802 000000ba 2F1E              CMP       V4, #30               ; [DPU_V7M3_PIPE] |486|  ; [ORIG 16-BIT INS]
    2803 000000bc DDC4              BLE       ||$C$L28||            ; [DPU_V7M3_PIPE] |486|  ; [ORIG 16-BIT INS]
    2804                            ; BRANCHCC OCCURS {||$C$L28||}   ; [] |486| 
    2805                    ;* --------------------------------------------------------------------------*
TI ARM Assembler PC v18.1.1 Wed Apr 25 09:49:37 2018

Tools Copyright (c) 1996-2017 Texas Instruments Incorporated
C:\Users\devops\AppData\Local\Temp\2\{20EEA8E7-9EAD-4D8F-95A1-C84FA7AD0574} PAGE   52

    2806 000000be B98D              CBNZ      V2, ||$C$L39||        ; []  ; [ORIG 16-BIT INS]
    2807                            .dwpsn  file "../Application/Services/nvoctp.c",line 547,column 9,is_stmt,isa 1
    2808                            ; BRANCHCC OCCURS {||$C$L39||}   ; [] |547| 
    2809                    ;* --------------------------------------------------------------------------*
    2810 000000c0 B926              CBNZ      V3, ||$C$L38||        ; []  ; [ORIG 16-BIT INS]
    2811                            .dwpsn  file "../Application/Services/nvoctp.c",line 549,column 13,is_stmt,isa 1
    2812                            ; BRANCHCC OCCURS {||$C$L38||}   ; [] |549| 
    2813                    ;* --------------------------------------------------------------------------*
    2814                            .dwpsn  file "../Application/Services/nvoctp.c",line 552,column 17,is_stmt,isa 1
    2815 000000c2 201D              MOVS      A1, #29               ; [DPU_V7M3_PIPE] |552|  ; [ORIG 16-BIT INS]
    2816                    $C$DW$193       .dwtag  DW_TAG_TI_branch
    2817                            .dwattr $C$DW$193, DW_AT_low_pc(0x00)
    2818                            .dwattr $C$DW$193, DW_AT_name("NVOCTP_setPageActive")
    2819                            .dwattr $C$DW$193, DW_AT_TI_call
    2820                    
    2821 000000c4 FFFEF7FF!         BL        NVOCTP_setPageActive  ; [DPU_V7M3_PIPE] |552|  ; [KEEP 32-BIT INS]
    2822                            ; CALL OCCURS {NVOCTP_setPageActive }  ; [] |552| 
    2823                            .dwpsn  file "../Application/Services/nvoctp.c",line 553,column 17,is_stmt,isa 1
    2824 000000c8 2004              MOVS      A1, #4                ; [DPU_V7M3_PIPE] |553|  ; [ORIG 16-BIT INS]
    2825                            .dwpsn  file "../Application/Services/nvoctp.c",line 554,column 13,is_stmt,isa 1
    2826 000000ca E015              B         ||$C$L41||            ; [DPU_V7M3_PIPE] |554|  ; [ORIG 16-BIT INS]
    2827                            ; BRANCH OCCURS {||$C$L41||}     ; [] |554| 
    2828                    ;* --------------------------------------------------------------------------*
    2829 000000cc           ||$C$L38||:    
    2830                            .dwpsn  file "../Application/Services/nvoctp.c",line 558,column 17,is_stmt,isa 1
    2831 000000cc 70A6              STRB      V3, [V1, #2]          ; [DPU_V7M3_PIPE] |558|  ; [ORIG 16-BIT INS]
    2832                            .dwpsn  file "../Application/Services/nvoctp.c",line 559,column 17,is_stmt,isa 1
    2833 000000ce 4630              MOV       A1, V3                ; [DPU_V7M3_PIPE] |559|  ; [ORIG 16-BIT INS]
    2834 000000d0 5180F44F          MOV       A2, #4096             ; [DPU_V7M3_PIPE] |559|  ; [KEEP 32-BIT INS]
    2835                    $C$DW$194       .dwtag  DW_TAG_TI_branch
    2836                            .dwattr $C$DW$194, DW_AT_low_pc(0x00)
    2837                            .dwattr $C$DW$194, DW_AT_name("NVOCTP_findOffset")
    2838                            .dwattr $C$DW$194, DW_AT_TI_call
    2839                    
    2840 000000d4 FFFEF7FF!         BL        NVOCTP_findOffset     ; [DPU_V7M3_PIPE] |559|  ; [KEEP 32-BIT INS]
    2841                            ; CALL OCCURS {NVOCTP_findOffset }  ; [] |559| 
    2842 000000d8 80E0              STRH      A1, [V1, #6]          ; [DPU_V7M3_PIPE] |559|  ; [ORIG 16-BIT INS]
    2843                            .dwpsn  file "../Application/Services/nvoctp.c",line 560,column 17,is_stmt,isa 1
    2844 000000da 4641              MOV       A2, V5                ; [DPU_V7M3_PIPE] |560|  ; [ORIG 16-BIT INS]
    2845 000000dc 4630              MOV       A1, V3                ; [DPU_V7M3_PIPE] |560|  ; [ORIG 16-BIT INS]
    2846                    $C$DW$195       .dwtag  DW_TAG_TI_branch
    2847                            .dwattr $C$DW$195, DW_AT_low_pc(0x00)
    2848                            .dwattr $C$DW$195, DW_AT_name("NVOCTP_compactPage")
    2849                            .dwattr $C$DW$195, DW_AT_TI_call
    2850                    
    2851 000000de FFFEF7FF!         BL        NVOCTP_compactPage    ; [DPU_V7M3_PIPE] |560|  ; [KEEP 32-BIT INS]
    2852                            ; CALL OCCURS {NVOCTP_compactPage }  ; [] |560| 
    2853 000000e2 E00A              B         ||$C$L42||            ; [DPU_V7M3_PIPE] |560|  ; [ORIG 16-BIT INS]
    2854                            ; BRANCH OCCURS {||$C$L42||}     ; [] |560| 
    2855                    ;* --------------------------------------------------------------------------*
    2856 000000e4           ||$C$L39||:    
    2857 000000e4 B11E              CBZ       V3, ||$C$L40||        ; []  ; [ORIG 16-BIT INS]
    2858                            .dwpsn  file "../Application/Services/nvoctp.c",line 565,column 13,is_stmt,isa 1
    2859                            ; BRANCHCC OCCURS {||$C$L40||}   ; [] |565| 
    2860                    ;* --------------------------------------------------------------------------*
TI ARM Assembler PC v18.1.1 Wed Apr 25 09:49:37 2018

Tools Copyright (c) 1996-2017 Texas Instruments Incorporated
C:\Users\devops\AppData\Local\Temp\2\{20EEA8E7-9EAD-4D8F-95A1-C84FA7AD0574} PAGE   53

    2861                            .dwpsn  file "../Application/Services/nvoctp.c",line 568,column 17,is_stmt,isa 1
    2862 000000e6 4630              MOV       A1, V3                ; [DPU_V7M3_PIPE] |568|  ; [ORIG 16-BIT INS]
    2863                    $C$DW$196       .dwtag  DW_TAG_TI_branch
    2864                            .dwattr $C$DW$196, DW_AT_low_pc(0x00)
    2865                            .dwattr $C$DW$196, DW_AT_name("NVOCTP_erasePage")
    2866                            .dwattr $C$DW$196, DW_AT_TI_call
    2867                    
    2868 000000e8 FFFEF7FF!         BL        NVOCTP_erasePage      ; [DPU_V7M3_PIPE] |568|  ; [KEEP 32-BIT INS]
    2869                            ; CALL OCCURS {NVOCTP_erasePage }  ; [] |568| 
    2870 000000ec 78A5              LDRB      V2, [V1, #2]          ; [DPU_V7M3_PIPE] |568|  ; [ORIG 16-BIT INS]
    2871                    ;* --------------------------------------------------------------------------*
    2872 000000ee           ||$C$L40||:    
    2873                            .dwpsn  file "../Application/Services/nvoctp.c",line 571,column 13,is_stmt,isa 1
    2874 000000ee 4628              MOV       A1, V2                ; [DPU_V7M3_PIPE] |571|  ; [ORIG 16-BIT INS]
    2875 000000f0 5180F44F          MOV       A2, #4096             ; [DPU_V7M3_PIPE] |571|  ; [KEEP 32-BIT INS]
    2876                    $C$DW$197       .dwtag  DW_TAG_TI_branch
    2877                            .dwattr $C$DW$197, DW_AT_low_pc(0x00)
    2878                            .dwattr $C$DW$197, DW_AT_name("NVOCTP_findOffset")
    2879                            .dwattr $C$DW$197, DW_AT_TI_call
    2880                    
    2881 000000f4 FFFEF7FF!         BL        NVOCTP_findOffset     ; [DPU_V7M3_PIPE] |571|  ; [KEEP 32-BIT INS]
    2882                            ; CALL OCCURS {NVOCTP_findOffset }  ; [] |571| 
    2883                    ;* --------------------------------------------------------------------------*
    2884 000000f8           ||$C$L41||:    
    2885 000000f8 80E0              STRH      A1, [V1, #6]          ; [DPU_V7M3_PIPE] |571|  ; [ORIG 16-BIT INS]
    2886                    ;* --------------------------------------------------------------------------*
    2887 000000fa           ||$C$L42||:    
    2888                            .dwpsn  file "../Application/Services/nvoctp.c",line 580,column 13,is_stmt,isa 1
    2889 000000fa AF0A              ADD       V4, SP, #40           ; [DPU_V7M3_PIPE] |580|  ; [ORIG 16-BIT INS]
    2890 000000fc 4D17              LDR       V2, $C$CON19          ; [DPU_V7M3_PIPE] |580|  ; [ORIG 16-BIT INS]
    2891 000000fe 9700              STR       V4, [SP, #0]          ; [DPU_V7M3_PIPE] |580|  ; [ORIG 16-BIT INS]
    2892 00000100 A80E              ADD       A1, SP, #56           ; [DPU_V7M3_PIPE] |580|  ; [ORIG 16-BIT INS]
    2893 00000102 6829              LDR       A2, [V2, #0]          ; [DPU_V7M3_PIPE] |580|  ; [ORIG 16-BIT INS]
    2894 00000104 88AE              LDRH      V3, [V2, #4]          ; [DPU_V7M3_PIPE] |580|  ; [ORIG 16-BIT INS]
    2895 00000106 6001              STR       A2, [A1, #0]          ; [DPU_V7M3_PIPE] |580|  ; [ORIG 16-BIT INS]
    2896 00000108 AB0E              ADD       A4, SP, #56           ; [DPU_V7M3_PIPE] |580|  ; [ORIG 16-BIT INS]
    2897 0000010a 8086              STRH      V3, [A1, #4]          ; [DPU_V7M3_PIPE] |580|  ; [ORIG 16-BIT INS]
    2898 0000010c 0003E893          LDMIA     A4, {A1,A2}           ; [DPU_V7M3_PIPE] |580|  ; [KEEP 32-BIT INS]
